ARM GAS  /tmp/ccyel5bP.s 			page 1


   1              		.cpu cortex-m0plus
   2              		.arch armv6s-m
   3              		.fpu softvfp
   4              		.eabi_attribute 20, 1
   5              		.eabi_attribute 21, 1
   6              		.eabi_attribute 23, 3
   7              		.eabi_attribute 24, 1
   8              		.eabi_attribute 25, 1
   9              		.eabi_attribute 26, 1
  10              		.eabi_attribute 30, 2
  11              		.eabi_attribute 34, 0
  12              		.eabi_attribute 18, 4
  13              		.file	"gpio.c"
  14              		.text
  15              	.Ltext0:
  16              		.cfi_sections	.debug_frame
  17              		.file 1 "src/system/gpio.c"
  18              		.section	.text.MX_GPIO_Init,"ax",%progbits
  19              		.align	1
  20              		.p2align 2,,3
  21              		.global	MX_GPIO_Init
  22              		.syntax unified
  23              		.code	16
  24              		.thumb_func
  26              	MX_GPIO_Init:
  27              	.LFB214:
   1:src/system/gpio.c **** /* USER CODE BEGIN Header */
   2:src/system/gpio.c **** /**
   3:src/system/gpio.c ****   ******************************************************************************
   4:src/system/gpio.c ****   * @file    gpio.c
   5:src/system/gpio.c ****   * @brief   This file provides code for the configuration
   6:src/system/gpio.c ****   *          of all used GPIO pins.
   7:src/system/gpio.c ****   ******************************************************************************
   8:src/system/gpio.c ****   * @attention
   9:src/system/gpio.c ****   *
  10:src/system/gpio.c ****   * Copyright (c) 2025 STMicroelectronics.
  11:src/system/gpio.c ****   * All rights reserved.
  12:src/system/gpio.c ****   *
  13:src/system/gpio.c ****   * This software is licensed under terms that can be found in the LICENSE file
  14:src/system/gpio.c ****   * in the root directory of this software component.
  15:src/system/gpio.c ****   * If no LICENSE file comes with this software, it is provided AS-IS.
  16:src/system/gpio.c ****   *
  17:src/system/gpio.c ****   ******************************************************************************
  18:src/system/gpio.c ****   */
  19:src/system/gpio.c **** /* USER CODE END Header */
  20:src/system/gpio.c **** 
  21:src/system/gpio.c **** /* Includes ------------------------------------------------------------------*/
  22:src/system/gpio.c **** #include "gpio.h"
  23:src/system/gpio.c **** 
  24:src/system/gpio.c **** /* USER CODE BEGIN 0 */
  25:src/system/gpio.c **** 
  26:src/system/gpio.c **** /* USER CODE END 0 */
  27:src/system/gpio.c **** 
  28:src/system/gpio.c **** /*----------------------------------------------------------------------------*/
  29:src/system/gpio.c **** /* Configure GPIO                                                             */
  30:src/system/gpio.c **** /*----------------------------------------------------------------------------*/
  31:src/system/gpio.c **** /* USER CODE BEGIN 1 */
ARM GAS  /tmp/ccyel5bP.s 			page 2


  32:src/system/gpio.c **** 
  33:src/system/gpio.c **** /* USER CODE END 1 */
  34:src/system/gpio.c **** 
  35:src/system/gpio.c **** /** Configure pins as
  36:src/system/gpio.c ****         * Analog
  37:src/system/gpio.c ****         * Input
  38:src/system/gpio.c ****         * Output
  39:src/system/gpio.c ****         * EVENT_OUT
  40:src/system/gpio.c ****         * EXTI
  41:src/system/gpio.c **** */
  42:src/system/gpio.c **** void MX_GPIO_Init(void)
  43:src/system/gpio.c **** {
  28              		.loc 1 43 1 view -0
  29              		.cfi_startproc
  30              		@ args = 0, pretend = 0, frame = 48
  31              		@ frame_needed = 0, uses_anonymous_args = 0
  44:src/system/gpio.c **** 
  45:src/system/gpio.c ****   GPIO_InitTypeDef GPIO_InitStruct = {0};
  32              		.loc 1 45 3 view .LVU1
  43:src/system/gpio.c **** 
  33              		.loc 1 43 1 is_stmt 0 view .LVU2
  34 0000 30B5     		push	{r4, r5, lr}
  35              	.LCFI0:
  36              		.cfi_def_cfa_offset 12
  37              		.cfi_offset 4, -12
  38              		.cfi_offset 5, -8
  39              		.cfi_offset 14, -4
  40 0002 8DB0     		sub	sp, sp, #52
  41              	.LCFI1:
  42              		.cfi_def_cfa_offset 64
  43              		.loc 1 45 20 view .LVU3
  44 0004 1422     		movs	r2, #20
  45 0006 0021     		movs	r1, #0
  46 0008 06A8     		add	r0, sp, #24
  47 000a FFF7FEFF 		bl	memset
  48              	.LVL0:
  46:src/system/gpio.c **** 
  47:src/system/gpio.c ****   /* GPIO Ports Clock Enable */
  48:src/system/gpio.c ****   __HAL_RCC_GPIOC_CLK_ENABLE();
  49              		.loc 1 48 3 is_stmt 1 view .LVU4
  50              	.LBB2:
  51              		.loc 1 48 3 view .LVU5
  52              		.loc 1 48 3 view .LVU6
  53 000e 0422     		movs	r2, #4
  54 0010 274B     		ldr	r3, .L3
  55              	.LBE2:
  49:src/system/gpio.c ****   __HAL_RCC_GPIOF_CLK_ENABLE();
  50:src/system/gpio.c ****   __HAL_RCC_GPIOA_CLK_ENABLE();
  51:src/system/gpio.c ****   __HAL_RCC_GPIOB_CLK_ENABLE();
  52:src/system/gpio.c ****   __HAL_RCC_GPIOD_CLK_ENABLE();
  53:src/system/gpio.c **** 
  54:src/system/gpio.c ****   /*Configure GPIO pin Output Level */
  55:src/system/gpio.c ****   HAL_GPIO_WritePin(LEDPIN_GPIO_Port, LEDPIN_Pin, GPIO_PIN_SET);
  56              		.loc 1 55 3 is_stmt 0 view .LVU7
  57 0012 A025     		movs	r5, #160
  58              	.LBB3:
  48:src/system/gpio.c ****   __HAL_RCC_GPIOF_CLK_ENABLE();
ARM GAS  /tmp/ccyel5bP.s 			page 3


  59              		.loc 1 48 3 view .LVU8
  60 0014 596B     		ldr	r1, [r3, #52]
  61              	.LBE3:
  56:src/system/gpio.c **** 
  57:src/system/gpio.c ****   /*Configure GPIO pin Output Level */
  58:src/system/gpio.c ****   HAL_GPIO_WritePin(GPIOB, TESTPIN_Pin|BBPWM_1_Pin, GPIO_PIN_RESET);
  62              		.loc 1 58 3 view .LVU9
  63 0016 274C     		ldr	r4, .L3+4
  64              	.LBB4:
  48:src/system/gpio.c ****   __HAL_RCC_GPIOF_CLK_ENABLE();
  65              		.loc 1 48 3 view .LVU10
  66 0018 1143     		orrs	r1, r2
  67 001a 5963     		str	r1, [r3, #52]
  48:src/system/gpio.c ****   __HAL_RCC_GPIOF_CLK_ENABLE();
  68              		.loc 1 48 3 is_stmt 1 view .LVU11
  69 001c 596B     		ldr	r1, [r3, #52]
  70              	.LBE4:
  55:src/system/gpio.c **** 
  71              		.loc 1 55 3 is_stmt 0 view .LVU12
  72 001e ED05     		lsls	r5, r5, #23
  73              	.LBB5:
  48:src/system/gpio.c ****   __HAL_RCC_GPIOF_CLK_ENABLE();
  74              		.loc 1 48 3 view .LVU13
  75 0020 0A40     		ands	r2, r1
  76 0022 0192     		str	r2, [sp, #4]
  48:src/system/gpio.c ****   __HAL_RCC_GPIOF_CLK_ENABLE();
  77              		.loc 1 48 3 is_stmt 1 view .LVU14
  78 0024 019A     		ldr	r2, [sp, #4]
  79              	.LBE5:
  48:src/system/gpio.c ****   __HAL_RCC_GPIOF_CLK_ENABLE();
  80              		.loc 1 48 3 view .LVU15
  49:src/system/gpio.c ****   __HAL_RCC_GPIOA_CLK_ENABLE();
  81              		.loc 1 49 3 view .LVU16
  82              	.LBB6:
  49:src/system/gpio.c ****   __HAL_RCC_GPIOA_CLK_ENABLE();
  83              		.loc 1 49 3 view .LVU17
  49:src/system/gpio.c ****   __HAL_RCC_GPIOA_CLK_ENABLE();
  84              		.loc 1 49 3 view .LVU18
  85 0026 2022     		movs	r2, #32
  86 0028 596B     		ldr	r1, [r3, #52]
  87              	.LBE6:
  55:src/system/gpio.c **** 
  88              		.loc 1 55 3 is_stmt 0 view .LVU19
  89 002a 2800     		movs	r0, r5
  90              	.LBB7:
  49:src/system/gpio.c ****   __HAL_RCC_GPIOA_CLK_ENABLE();
  91              		.loc 1 49 3 view .LVU20
  92 002c 1143     		orrs	r1, r2
  93 002e 5963     		str	r1, [r3, #52]
  49:src/system/gpio.c ****   __HAL_RCC_GPIOA_CLK_ENABLE();
  94              		.loc 1 49 3 is_stmt 1 view .LVU21
  95 0030 596B     		ldr	r1, [r3, #52]
  96 0032 0A40     		ands	r2, r1
  97 0034 0292     		str	r2, [sp, #8]
  49:src/system/gpio.c ****   __HAL_RCC_GPIOA_CLK_ENABLE();
  98              		.loc 1 49 3 view .LVU22
  99 0036 029A     		ldr	r2, [sp, #8]
ARM GAS  /tmp/ccyel5bP.s 			page 4


 100              	.LBE7:
  49:src/system/gpio.c ****   __HAL_RCC_GPIOA_CLK_ENABLE();
 101              		.loc 1 49 3 view .LVU23
  50:src/system/gpio.c ****   __HAL_RCC_GPIOB_CLK_ENABLE();
 102              		.loc 1 50 3 view .LVU24
 103              	.LBB8:
  50:src/system/gpio.c ****   __HAL_RCC_GPIOB_CLK_ENABLE();
 104              		.loc 1 50 3 view .LVU25
  50:src/system/gpio.c ****   __HAL_RCC_GPIOB_CLK_ENABLE();
 105              		.loc 1 50 3 view .LVU26
 106 0038 0122     		movs	r2, #1
 107 003a 596B     		ldr	r1, [r3, #52]
 108 003c 1143     		orrs	r1, r2
 109 003e 5963     		str	r1, [r3, #52]
  50:src/system/gpio.c ****   __HAL_RCC_GPIOB_CLK_ENABLE();
 110              		.loc 1 50 3 view .LVU27
 111 0040 596B     		ldr	r1, [r3, #52]
 112 0042 0A40     		ands	r2, r1
 113 0044 0392     		str	r2, [sp, #12]
  50:src/system/gpio.c ****   __HAL_RCC_GPIOB_CLK_ENABLE();
 114              		.loc 1 50 3 view .LVU28
 115 0046 039A     		ldr	r2, [sp, #12]
 116              	.LBE8:
  50:src/system/gpio.c ****   __HAL_RCC_GPIOB_CLK_ENABLE();
 117              		.loc 1 50 3 view .LVU29
  51:src/system/gpio.c ****   __HAL_RCC_GPIOD_CLK_ENABLE();
 118              		.loc 1 51 3 view .LVU30
 119              	.LBB9:
  51:src/system/gpio.c ****   __HAL_RCC_GPIOD_CLK_ENABLE();
 120              		.loc 1 51 3 view .LVU31
  51:src/system/gpio.c ****   __HAL_RCC_GPIOD_CLK_ENABLE();
 121              		.loc 1 51 3 view .LVU32
 122 0048 0222     		movs	r2, #2
 123 004a 596B     		ldr	r1, [r3, #52]
 124 004c 1143     		orrs	r1, r2
 125 004e 5963     		str	r1, [r3, #52]
  51:src/system/gpio.c ****   __HAL_RCC_GPIOD_CLK_ENABLE();
 126              		.loc 1 51 3 view .LVU33
 127 0050 596B     		ldr	r1, [r3, #52]
 128 0052 0A40     		ands	r2, r1
 129 0054 0492     		str	r2, [sp, #16]
  51:src/system/gpio.c ****   __HAL_RCC_GPIOD_CLK_ENABLE();
 130              		.loc 1 51 3 view .LVU34
 131 0056 049A     		ldr	r2, [sp, #16]
 132              	.LBE9:
  51:src/system/gpio.c ****   __HAL_RCC_GPIOD_CLK_ENABLE();
 133              		.loc 1 51 3 view .LVU35
  52:src/system/gpio.c **** 
 134              		.loc 1 52 3 view .LVU36
 135              	.LBB10:
  52:src/system/gpio.c **** 
 136              		.loc 1 52 3 view .LVU37
  52:src/system/gpio.c **** 
 137              		.loc 1 52 3 view .LVU38
 138 0058 0822     		movs	r2, #8
 139 005a 596B     		ldr	r1, [r3, #52]
 140 005c 1143     		orrs	r1, r2
ARM GAS  /tmp/ccyel5bP.s 			page 5


 141 005e 5963     		str	r1, [r3, #52]
  52:src/system/gpio.c **** 
 142              		.loc 1 52 3 view .LVU39
 143 0060 5B6B     		ldr	r3, [r3, #52]
 144              	.LBE10:
  55:src/system/gpio.c **** 
 145              		.loc 1 55 3 is_stmt 0 view .LVU40
 146 0062 2021     		movs	r1, #32
 147              	.LBB11:
  52:src/system/gpio.c **** 
 148              		.loc 1 52 3 view .LVU41
 149 0064 1A40     		ands	r2, r3
 150 0066 0592     		str	r2, [sp, #20]
  52:src/system/gpio.c **** 
 151              		.loc 1 52 3 is_stmt 1 view .LVU42
 152              	.LBE11:
  55:src/system/gpio.c **** 
 153              		.loc 1 55 3 is_stmt 0 view .LVU43
 154 0068 0122     		movs	r2, #1
 155              	.LBB12:
  52:src/system/gpio.c **** 
 156              		.loc 1 52 3 view .LVU44
 157 006a 059B     		ldr	r3, [sp, #20]
 158              	.LBE12:
  52:src/system/gpio.c **** 
 159              		.loc 1 52 3 is_stmt 1 view .LVU45
  55:src/system/gpio.c **** 
 160              		.loc 1 55 3 view .LVU46
 161 006c FFF7FEFF 		bl	HAL_GPIO_WritePin
 162              	.LVL1:
 163              		.loc 1 58 3 view .LVU47
 164 0070 2000     		movs	r0, r4
 165 0072 0022     		movs	r2, #0
 166 0074 1049     		ldr	r1, .L3+8
 167 0076 FFF7FEFF 		bl	HAL_GPIO_WritePin
 168              	.LVL2:
  59:src/system/gpio.c **** 
  60:src/system/gpio.c ****   /*Configure GPIO pin : PtPin */
  61:src/system/gpio.c ****   GPIO_InitStruct.Pin = LEDPIN_Pin;
 169              		.loc 1 61 3 view .LVU48
  62:src/system/gpio.c ****   GPIO_InitStruct.Mode = GPIO_MODE_OUTPUT_PP;
 170              		.loc 1 62 3 view .LVU49
  63:src/system/gpio.c ****   GPIO_InitStruct.Pull = GPIO_NOPULL;
 171              		.loc 1 63 3 view .LVU50
  64:src/system/gpio.c ****   GPIO_InitStruct.Speed = GPIO_SPEED_FREQ_VERY_HIGH;
 172              		.loc 1 64 3 view .LVU51
  61:src/system/gpio.c ****   GPIO_InitStruct.Mode = GPIO_MODE_OUTPUT_PP;
 173              		.loc 1 61 23 is_stmt 0 view .LVU52
 174 007a 2022     		movs	r2, #32
 175 007c 0123     		movs	r3, #1
 176 007e 0692     		str	r2, [sp, #24]
 177 0080 0793     		str	r3, [sp, #28]
 178 0082 0022     		movs	r2, #0
 179 0084 0323     		movs	r3, #3
  65:src/system/gpio.c ****   HAL_GPIO_Init(LEDPIN_GPIO_Port, &GPIO_InitStruct);
 180              		.loc 1 65 3 view .LVU53
 181 0086 2800     		movs	r0, r5
ARM GAS  /tmp/ccyel5bP.s 			page 6


 182 0088 06A9     		add	r1, sp, #24
  61:src/system/gpio.c ****   GPIO_InitStruct.Mode = GPIO_MODE_OUTPUT_PP;
 183              		.loc 1 61 23 view .LVU54
 184 008a 0892     		str	r2, [sp, #32]
 185 008c 0993     		str	r3, [sp, #36]
 186              		.loc 1 65 3 is_stmt 1 view .LVU55
 187 008e FFF7FEFF 		bl	HAL_GPIO_Init
 188              	.LVL3:
  66:src/system/gpio.c **** 
  67:src/system/gpio.c ****   /*Configure GPIO pins : PBPin PBPin */
  68:src/system/gpio.c ****   GPIO_InitStruct.Pin = TESTPIN_Pin|BBPWM_1_Pin;
 189              		.loc 1 68 3 view .LVU56
  69:src/system/gpio.c ****   GPIO_InitStruct.Mode = GPIO_MODE_OUTPUT_PP;
 190              		.loc 1 69 3 view .LVU57
  70:src/system/gpio.c ****   GPIO_InitStruct.Pull = GPIO_NOPULL;
 191              		.loc 1 70 3 view .LVU58
  71:src/system/gpio.c ****   GPIO_InitStruct.Speed = GPIO_SPEED_FREQ_LOW;
 192              		.loc 1 71 3 view .LVU59
  68:src/system/gpio.c ****   GPIO_InitStruct.Mode = GPIO_MODE_OUTPUT_PP;
 193              		.loc 1 68 23 is_stmt 0 view .LVU60
 194 0092 0123     		movs	r3, #1
 195 0094 084A     		ldr	r2, .L3+8
  72:src/system/gpio.c ****   HAL_GPIO_Init(GPIOB, &GPIO_InitStruct);
 196              		.loc 1 72 3 view .LVU61
 197 0096 2000     		movs	r0, r4
  68:src/system/gpio.c ****   GPIO_InitStruct.Mode = GPIO_MODE_OUTPUT_PP;
 198              		.loc 1 68 23 view .LVU62
 199 0098 0692     		str	r2, [sp, #24]
 200 009a 0793     		str	r3, [sp, #28]
 201 009c 0022     		movs	r2, #0
 202 009e 0023     		movs	r3, #0
 203              		.loc 1 72 3 view .LVU63
 204 00a0 06A9     		add	r1, sp, #24
  68:src/system/gpio.c ****   GPIO_InitStruct.Mode = GPIO_MODE_OUTPUT_PP;
 205              		.loc 1 68 23 view .LVU64
 206 00a2 0892     		str	r2, [sp, #32]
 207 00a4 0993     		str	r3, [sp, #36]
 208              		.loc 1 72 3 is_stmt 1 view .LVU65
 209 00a6 FFF7FEFF 		bl	HAL_GPIO_Init
 210              	.LVL4:
  73:src/system/gpio.c **** 
  74:src/system/gpio.c **** }
 211              		.loc 1 74 1 is_stmt 0 view .LVU66
 212 00aa 0DB0     		add	sp, sp, #52
 213              		@ sp needed
 214 00ac 30BD     		pop	{r4, r5, pc}
 215              	.L4:
 216 00ae C046     		.align	2
 217              	.L3:
 218 00b0 00100240 		.word	1073876992
 219 00b4 00040050 		.word	1342178304
 220 00b8 01020000 		.word	513
 221              		.cfi_endproc
 222              	.LFE214:
 224              		.text
 225              	.Letext0:
 226              		.file 2 "/usr/lib/gcc/arm-none-eabi/12.2.1/include/stdint.h"
ARM GAS  /tmp/ccyel5bP.s 			page 7


 227              		.file 3 "external/drivers/cmsis/include/stm32c031xx.h"
 228              		.file 4 "external/drivers/stm32c0xx/include/stm32c0xx_hal_gpio.h"
 229              		.file 5 "<built-in>"
ARM GAS  /tmp/ccyel5bP.s 			page 8

