ARM GAS  /tmp/ccZ2HL5r.s 			page 1


   1              		.cpu cortex-m0plus
   2              		.arch armv6s-m
   3              		.fpu softvfp
   4              		.eabi_attribute 20, 1
   5              		.eabi_attribute 21, 1
   6              		.eabi_attribute 23, 3
   7              		.eabi_attribute 24, 1
   8              		.eabi_attribute 25, 1
   9              		.eabi_attribute 26, 1
  10              		.eabi_attribute 30, 1
  11              		.eabi_attribute 34, 0
  12              		.eabi_attribute 18, 4
  13              		.file	"main.c"
  14              		.text
  15              	.Ltext0:
  16              		.cfi_sections	.debug_frame
  17              		.file 1 "src/main.c"
  18              		.section	.rodata.main.str1.4,"aMS",%progbits,1
  19              		.align	2
  20              	.LC1:
  21 0000 68656C6C 		.ascii	"hello world\015\012\000"
  21      6F20776F 
  21      726C640D 
  21      0A00
  22              		.section	.text.main,"ax",%progbits
  23              		.align	1
  24              		.global	main
  25              		.syntax unified
  26              		.code	16
  27              		.thumb_func
  29              	main:
  30              	.LFB217:
   1:src/main.c    **** /* SYSTEM IMPORTS*/
   2:src/main.c    **** #include "low_level/type_definitions.h"
   3:src/main.c    **** 
   4:src/main.c    **** /* HAL IMPORTS*/
   5:src/main.c    **** #include "system/init.h"
   6:src/main.c    **** #include "system/gpio.h"
   7:src/main.c    **** #include "system/tim.h"
   8:src/main.c    **** #include "system/usart.h"
   9:src/main.c    **** 
  10:src/main.c    **** /* DRIVER IMPORTS*/
  11:src/main.c    **** #include "drivers/bbpwm/bbpwm.h"
  12:src/main.c    **** 
  13:src/main.c    **** /* ==================== declare up BBPWM structs ==================== */
  14:src/main.c    **** 
  15:src/main.c    **** int main(void) {
  31              		.loc 1 15 16 view -0
  32              		.cfi_startproc
  33              		@ args = 0, pretend = 0, frame = 16
  34              		@ frame_needed = 0, uses_anonymous_args = 0
  35 0000 30B5     		push	{r4, r5, lr}
  36              	.LCFI0:
  37              		.cfi_def_cfa_offset 12
  38              		.cfi_offset 4, -12
  39              		.cfi_offset 5, -8
  40              		.cfi_offset 14, -4
ARM GAS  /tmp/ccZ2HL5r.s 			page 2


  41 0002 85B0     		sub	sp, sp, #20
  42              	.LCFI1:
  43              		.cfi_def_cfa_offset 32
  16:src/main.c    ****   init();
  44              		.loc 1 16 3 view .LVU1
  45 0004 FFF7FEFF 		bl	init
  46              	.LVL0:
  17:src/main.c    **** 
  18:src/main.c    ****   // Initialize timer
  19:src/main.c    ****   HAL_TIM_Base_Start(&htim1);
  47              		.loc 1 19 3 view .LVU2
  48 0008 0E48     		ldr	r0, .L3
  49 000a FFF7FEFF 		bl	HAL_TIM_Base_Start
  50              	.LVL1:
  20:src/main.c    **** 
  21:src/main.c    ****   /* ==================== initialize up BBPWM structs ==================== */
  22:src/main.c    **** 
  23:src/main.c    ****   /* ==================== infinite while loop structs ==================== */
  24:src/main.c    ****   const char msg[] = "hello world\r\n";
  51              		.loc 1 24 3 view .LVU3
  52              		.loc 1 24 14 is_stmt 0 view .LVU4
  53 000e 6A46     		mov	r2, sp
  54 0010 0D4B     		ldr	r3, .L3+4
  55 0012 1800     		movs	r0, r3
  56 0014 38C8     		ldmia	r0!, {r3, r4, r5}
  57 0016 38C2     		stmia	r2!, {r3, r4, r5}
  58 0018 0388     		ldrh	r3, [r0]
  59 001a 1380     		strh	r3, [r2]
  60              	.L2:
  25:src/main.c    **** 
  26:src/main.c    ****   while (1) {
  61              		.loc 1 26 3 is_stmt 1 discriminator 1 view .LVU5
  62              	.LBB2:
  27:src/main.c    ****     uint16_t count = htim1.Instance->CNT;
  63              		.loc 1 27 5 discriminator 1 view .LVU6
  64              		.loc 1 27 27 is_stmt 0 discriminator 1 view .LVU7
  65 001c 094B     		ldr	r3, .L3
  66 001e 1B68     		ldr	r3, [r3]
  67              		.loc 1 27 36 discriminator 1 view .LVU8
  68 0020 5B6A     		ldr	r3, [r3, #36]
  28:src/main.c    ****     HAL_UART_Transmit(&huart2, (uint8_t *)msg, sizeof(msg) - 1, HAL_MAX_DELAY);
  69              		.loc 1 28 5 is_stmt 1 discriminator 1 view .LVU9
  70 0022 0123     		movs	r3, #1
  71 0024 0948     		ldr	r0, .L3+8
  72 0026 5B42     		rsbs	r3, r3, #0
  73 0028 0D22     		movs	r2, #13
  74 002a 6946     		mov	r1, sp
  75 002c FFF7FEFF 		bl	HAL_UART_Transmit
  76              	.LVL2:
  29:src/main.c    **** 
  30:src/main.c    ****   //  printf("hello world\r\n");
  31:src/main.c    ****   //  printf("%d\r\n", count);
  32:src/main.c    ****     HAL_GPIO_TogglePin(LEDPIN_GPIO_Port, LEDPIN_Pin);
  77              		.loc 1 32 5 discriminator 1 view .LVU10
  78 0030 A020     		movs	r0, #160
  79 0032 2021     		movs	r1, #32
  80 0034 C005     		lsls	r0, r0, #23
ARM GAS  /tmp/ccZ2HL5r.s 			page 3


  81 0036 FFF7FEFF 		bl	HAL_GPIO_TogglePin
  82              	.LVL3:
  33:src/main.c    ****     HAL_Delay(1000);
  83              		.loc 1 33 5 discriminator 1 view .LVU11
  84 003a FA20     		movs	r0, #250
  85 003c 8000     		lsls	r0, r0, #2
  86 003e FFF7FEFF 		bl	HAL_Delay
  87              	.LVL4:
  88              	.LBE2:
  26:src/main.c    ****     uint16_t count = htim1.Instance->CNT;
  89              		.loc 1 26 9 discriminator 1 view .LVU12
  90 0042 EBE7     		b	.L2
  91              	.L4:
  92              		.align	2
  93              	.L3:
  94 0044 00000000 		.word	htim1
  95 0048 00000000 		.word	.LC1
  96 004c 00000000 		.word	huart2
  97              		.cfi_endproc
  98              	.LFE217:
 100              		.text
 101              	.Letext0:
 102              		.file 2 "/usr/lib/gcc/arm-none-eabi/12.2.1/include/stdint.h"
 103              		.file 3 "external/drivers/cmsis/include/stm32c031xx.h"
 104              		.file 4 "external/drivers/stm32c0xx/include/stm32c0xx_hal_def.h"
 105              		.file 5 "external/drivers/stm32c0xx/include/stm32c0xx_hal_dma.h"
 106              		.file 6 "external/drivers/stm32c0xx/include/stm32c0xx_hal_tim.h"
 107              		.file 7 "external/drivers/stm32c0xx/include/stm32c0xx_hal_uart.h"
 108              		.file 8 "src/system/tim.h"
 109              		.file 9 "src/system/usart.h"
 110              		.file 10 "external/drivers/stm32c0xx/include/stm32c0xx_hal.h"
 111              		.file 11 "external/drivers/stm32c0xx/include/stm32c0xx_hal_gpio.h"
 112              		.file 12 "src/system/init.h"
ARM GAS  /tmp/ccZ2HL5r.s 			page 4

