ARM GAS  /tmp/ccdF5Ctr.s 			page 1


   1              		.cpu cortex-m0plus
   2              		.arch armv6s-m
   3              		.fpu softvfp
   4              		.eabi_attribute 20, 1
   5              		.eabi_attribute 21, 1
   6              		.eabi_attribute 23, 3
   7              		.eabi_attribute 24, 1
   8              		.eabi_attribute 25, 1
   9              		.eabi_attribute 26, 1
  10              		.eabi_attribute 30, 2
  11              		.eabi_attribute 34, 0
  12              		.eabi_attribute 18, 4
  13              		.file	"stm32c0xx_hal_rcc.c"
  14              		.text
  15              	.Ltext0:
  16              		.cfi_sections	.debug_frame
  17              		.file 1 "external/drivers/stm32c0xx/src/stm32c0xx_hal_rcc.c"
  18              		.section	.text.HAL_RCC_DeInit,"ax",%progbits
  19              		.align	1
  20              		.p2align 2,,3
  21              		.global	HAL_RCC_DeInit
  22              		.syntax unified
  23              		.code	16
  24              		.thumb_func
  26              	HAL_RCC_DeInit:
  27              	.LFB214:
   1:external/drivers/stm32c0xx/src/stm32c0xx_hal_rcc.c **** /**
   2:external/drivers/stm32c0xx/src/stm32c0xx_hal_rcc.c ****   ******************************************************************************
   3:external/drivers/stm32c0xx/src/stm32c0xx_hal_rcc.c ****   * @file    stm32c0xx_hal_rcc.c
   4:external/drivers/stm32c0xx/src/stm32c0xx_hal_rcc.c ****   * @author  MCD Application Team
   5:external/drivers/stm32c0xx/src/stm32c0xx_hal_rcc.c ****   * @brief   RCC HAL module driver.
   6:external/drivers/stm32c0xx/src/stm32c0xx_hal_rcc.c ****   *          This file provides firmware functions to manage the following
   7:external/drivers/stm32c0xx/src/stm32c0xx_hal_rcc.c ****   *          functionalities of the Reset and Clock Control (RCC) peripheral:
   8:external/drivers/stm32c0xx/src/stm32c0xx_hal_rcc.c ****   *           + Initialization and de-initialization functions
   9:external/drivers/stm32c0xx/src/stm32c0xx_hal_rcc.c ****   *           + Peripheral Control functions
  10:external/drivers/stm32c0xx/src/stm32c0xx_hal_rcc.c ****   *
  11:external/drivers/stm32c0xx/src/stm32c0xx_hal_rcc.c ****   ******************************************************************************
  12:external/drivers/stm32c0xx/src/stm32c0xx_hal_rcc.c ****   * @attention
  13:external/drivers/stm32c0xx/src/stm32c0xx_hal_rcc.c ****   *
  14:external/drivers/stm32c0xx/src/stm32c0xx_hal_rcc.c ****   * Copyright (c) 2022 STMicroelectronics.
  15:external/drivers/stm32c0xx/src/stm32c0xx_hal_rcc.c ****   * All rights reserved.
  16:external/drivers/stm32c0xx/src/stm32c0xx_hal_rcc.c ****   *
  17:external/drivers/stm32c0xx/src/stm32c0xx_hal_rcc.c ****   * This software is licensed under terms that can be found in the LICENSE file
  18:external/drivers/stm32c0xx/src/stm32c0xx_hal_rcc.c ****   * in the root directory of this software component.
  19:external/drivers/stm32c0xx/src/stm32c0xx_hal_rcc.c ****   * If no LICENSE file comes with this software, it is provided AS-IS.
  20:external/drivers/stm32c0xx/src/stm32c0xx_hal_rcc.c ****   *
  21:external/drivers/stm32c0xx/src/stm32c0xx_hal_rcc.c ****   ******************************************************************************
  22:external/drivers/stm32c0xx/src/stm32c0xx_hal_rcc.c ****   @verbatim
  23:external/drivers/stm32c0xx/src/stm32c0xx_hal_rcc.c ****   ==============================================================================
  24:external/drivers/stm32c0xx/src/stm32c0xx_hal_rcc.c ****                       ##### RCC specific features #####
  25:external/drivers/stm32c0xx/src/stm32c0xx_hal_rcc.c ****   ==============================================================================
  26:external/drivers/stm32c0xx/src/stm32c0xx_hal_rcc.c ****     [..]
  27:external/drivers/stm32c0xx/src/stm32c0xx_hal_rcc.c ****       After reset the device is running from High Speed Internal oscillator
  28:external/drivers/stm32c0xx/src/stm32c0xx_hal_rcc.c ****       divided by 4 that is the default system clock with Flash 0 wait state.
  29:external/drivers/stm32c0xx/src/stm32c0xx_hal_rcc.c **** 
  30:external/drivers/stm32c0xx/src/stm32c0xx_hal_rcc.c ****       (+) There is no prescaler on High speed (AHB) and Low speed (APB) busses:
  31:external/drivers/stm32c0xx/src/stm32c0xx_hal_rcc.c ****           all peripherals mapped on these busses are running at HSI speed.
ARM GAS  /tmp/ccdF5Ctr.s 			page 2


  32:external/drivers/stm32c0xx/src/stm32c0xx_hal_rcc.c ****       (+) The clock for all peripherals is switched off, except the SRAM and FLASH.
  33:external/drivers/stm32c0xx/src/stm32c0xx_hal_rcc.c ****       (+) All GPIOs are in analog mode
  34:external/drivers/stm32c0xx/src/stm32c0xx_hal_rcc.c **** 
  35:external/drivers/stm32c0xx/src/stm32c0xx_hal_rcc.c ****     [..]
  36:external/drivers/stm32c0xx/src/stm32c0xx_hal_rcc.c ****       Once the device started from reset, the user application has to:
  37:external/drivers/stm32c0xx/src/stm32c0xx_hal_rcc.c ****       (+) Configure the clock source to be used to drive the System clock
  38:external/drivers/stm32c0xx/src/stm32c0xx_hal_rcc.c ****           (if the application needs higher frequency/performance)
  39:external/drivers/stm32c0xx/src/stm32c0xx_hal_rcc.c ****       (+) Configure the System clock frequency and Flash settings
  40:external/drivers/stm32c0xx/src/stm32c0xx_hal_rcc.c ****       (+) Configure the AHB and APB busses prescalers
  41:external/drivers/stm32c0xx/src/stm32c0xx_hal_rcc.c ****       (+) Enable the clock for the peripheral(s) to be used
  42:external/drivers/stm32c0xx/src/stm32c0xx_hal_rcc.c ****       (+) Configure the clock source(s) for peripherals which clocks are not
  43:external/drivers/stm32c0xx/src/stm32c0xx_hal_rcc.c ****           derived from the System clock (RTC, ADC, USART, I2C, I2S)
  44:external/drivers/stm32c0xx/src/stm32c0xx_hal_rcc.c **** 
  45:external/drivers/stm32c0xx/src/stm32c0xx_hal_rcc.c ****   @endverbatim
  46:external/drivers/stm32c0xx/src/stm32c0xx_hal_rcc.c ****   ******************************************************************************
  47:external/drivers/stm32c0xx/src/stm32c0xx_hal_rcc.c ****   */
  48:external/drivers/stm32c0xx/src/stm32c0xx_hal_rcc.c **** 
  49:external/drivers/stm32c0xx/src/stm32c0xx_hal_rcc.c **** /* Includes ------------------------------------------------------------------*/
  50:external/drivers/stm32c0xx/src/stm32c0xx_hal_rcc.c **** #include "stm32c0xx_hal.h"
  51:external/drivers/stm32c0xx/src/stm32c0xx_hal_rcc.c **** 
  52:external/drivers/stm32c0xx/src/stm32c0xx_hal_rcc.c **** /** @addtogroup STM32C0xx_HAL_Driver
  53:external/drivers/stm32c0xx/src/stm32c0xx_hal_rcc.c ****   * @{
  54:external/drivers/stm32c0xx/src/stm32c0xx_hal_rcc.c ****   */
  55:external/drivers/stm32c0xx/src/stm32c0xx_hal_rcc.c **** 
  56:external/drivers/stm32c0xx/src/stm32c0xx_hal_rcc.c **** /** @defgroup RCC RCC
  57:external/drivers/stm32c0xx/src/stm32c0xx_hal_rcc.c ****   * @brief RCC HAL module driver
  58:external/drivers/stm32c0xx/src/stm32c0xx_hal_rcc.c ****   * @{
  59:external/drivers/stm32c0xx/src/stm32c0xx_hal_rcc.c ****   */
  60:external/drivers/stm32c0xx/src/stm32c0xx_hal_rcc.c **** 
  61:external/drivers/stm32c0xx/src/stm32c0xx_hal_rcc.c **** #ifdef HAL_RCC_MODULE_ENABLED
  62:external/drivers/stm32c0xx/src/stm32c0xx_hal_rcc.c **** 
  63:external/drivers/stm32c0xx/src/stm32c0xx_hal_rcc.c **** /* Private typedef -----------------------------------------------------------*/
  64:external/drivers/stm32c0xx/src/stm32c0xx_hal_rcc.c **** /* Private define ------------------------------------------------------------*/
  65:external/drivers/stm32c0xx/src/stm32c0xx_hal_rcc.c **** /** @defgroup RCC_Private_Constants RCC Private Constants
  66:external/drivers/stm32c0xx/src/stm32c0xx_hal_rcc.c ****   * @{
  67:external/drivers/stm32c0xx/src/stm32c0xx_hal_rcc.c ****   */
  68:external/drivers/stm32c0xx/src/stm32c0xx_hal_rcc.c **** #define RCC_HSE_TIMEOUT_VALUE          HSE_STARTUP_TIMEOUT
  69:external/drivers/stm32c0xx/src/stm32c0xx_hal_rcc.c **** #define RCC_HSI_TIMEOUT_VALUE          (2U)    /* 2 ms (minimum Tick + 1) */
  70:external/drivers/stm32c0xx/src/stm32c0xx_hal_rcc.c **** #define RCC_LSI_TIMEOUT_VALUE          (2U)    /* 2 ms (minimum Tick + 1) */
  71:external/drivers/stm32c0xx/src/stm32c0xx_hal_rcc.c **** #define RCC_CLOCKSWITCH_TIMEOUT_VALUE  (5000U) /* 5 s    */
  72:external/drivers/stm32c0xx/src/stm32c0xx_hal_rcc.c **** 
  73:external/drivers/stm32c0xx/src/stm32c0xx_hal_rcc.c **** /**
  74:external/drivers/stm32c0xx/src/stm32c0xx_hal_rcc.c ****   * @}
  75:external/drivers/stm32c0xx/src/stm32c0xx_hal_rcc.c ****   */
  76:external/drivers/stm32c0xx/src/stm32c0xx_hal_rcc.c **** 
  77:external/drivers/stm32c0xx/src/stm32c0xx_hal_rcc.c **** /* Private macro -------------------------------------------------------------*/
  78:external/drivers/stm32c0xx/src/stm32c0xx_hal_rcc.c **** /** @defgroup RCC_Private_Macros RCC Private Macros
  79:external/drivers/stm32c0xx/src/stm32c0xx_hal_rcc.c ****   * @{
  80:external/drivers/stm32c0xx/src/stm32c0xx_hal_rcc.c ****   */
  81:external/drivers/stm32c0xx/src/stm32c0xx_hal_rcc.c **** #define RCC_GET_MCO_GPIO_PIN(__RCC_MCOx__)   ((__RCC_MCOx__) & GPIO_PIN_MASK)
  82:external/drivers/stm32c0xx/src/stm32c0xx_hal_rcc.c **** 
  83:external/drivers/stm32c0xx/src/stm32c0xx_hal_rcc.c **** #define RCC_GET_MCO_GPIO_AF(__RCC_MCOx__)    (((__RCC_MCOx__) & RCC_MCO_GPIOAF_MASK) >> RCC_MCO_GPI
  84:external/drivers/stm32c0xx/src/stm32c0xx_hal_rcc.c **** 
  85:external/drivers/stm32c0xx/src/stm32c0xx_hal_rcc.c **** #define RCC_GET_MCO_GPIO_INDEX(__RCC_MCOx__) (((__RCC_MCOx__) & RCC_MCO_GPIOPORT_MASK) >> RCC_MCO_G
  86:external/drivers/stm32c0xx/src/stm32c0xx_hal_rcc.c **** 
  87:external/drivers/stm32c0xx/src/stm32c0xx_hal_rcc.c **** #define RCC_GET_MCO_GPIO_PORT(__RCC_MCOx__)  (IOPORT_BASE + ((0x00000400UL) * RCC_GET_MCO_GPIO_INDE
  88:external/drivers/stm32c0xx/src/stm32c0xx_hal_rcc.c **** 
ARM GAS  /tmp/ccdF5Ctr.s 			page 3


  89:external/drivers/stm32c0xx/src/stm32c0xx_hal_rcc.c **** /**
  90:external/drivers/stm32c0xx/src/stm32c0xx_hal_rcc.c ****   * @}
  91:external/drivers/stm32c0xx/src/stm32c0xx_hal_rcc.c ****   */
  92:external/drivers/stm32c0xx/src/stm32c0xx_hal_rcc.c **** 
  93:external/drivers/stm32c0xx/src/stm32c0xx_hal_rcc.c **** /* Private variables ---------------------------------------------------------*/
  94:external/drivers/stm32c0xx/src/stm32c0xx_hal_rcc.c **** /** @defgroup RCC_Private_Variables RCC Private Variables
  95:external/drivers/stm32c0xx/src/stm32c0xx_hal_rcc.c ****   * @{
  96:external/drivers/stm32c0xx/src/stm32c0xx_hal_rcc.c ****   */
  97:external/drivers/stm32c0xx/src/stm32c0xx_hal_rcc.c **** 
  98:external/drivers/stm32c0xx/src/stm32c0xx_hal_rcc.c **** /**
  99:external/drivers/stm32c0xx/src/stm32c0xx_hal_rcc.c ****   * @}
 100:external/drivers/stm32c0xx/src/stm32c0xx_hal_rcc.c ****   */
 101:external/drivers/stm32c0xx/src/stm32c0xx_hal_rcc.c **** 
 102:external/drivers/stm32c0xx/src/stm32c0xx_hal_rcc.c **** /* Private function prototypes -----------------------------------------------*/
 103:external/drivers/stm32c0xx/src/stm32c0xx_hal_rcc.c **** /* Exported functions --------------------------------------------------------*/
 104:external/drivers/stm32c0xx/src/stm32c0xx_hal_rcc.c **** 
 105:external/drivers/stm32c0xx/src/stm32c0xx_hal_rcc.c **** /** @defgroup RCC_Exported_Functions RCC Exported Functions
 106:external/drivers/stm32c0xx/src/stm32c0xx_hal_rcc.c ****   * @{
 107:external/drivers/stm32c0xx/src/stm32c0xx_hal_rcc.c ****   */
 108:external/drivers/stm32c0xx/src/stm32c0xx_hal_rcc.c **** 
 109:external/drivers/stm32c0xx/src/stm32c0xx_hal_rcc.c **** /** @defgroup RCC_Exported_Functions_Group1 Initialization and de-initialization functions
 110:external/drivers/stm32c0xx/src/stm32c0xx_hal_rcc.c ****   *  @brief    Initialization and Configuration functions
 111:external/drivers/stm32c0xx/src/stm32c0xx_hal_rcc.c ****   *
 112:external/drivers/stm32c0xx/src/stm32c0xx_hal_rcc.c ****   @verbatim
 113:external/drivers/stm32c0xx/src/stm32c0xx_hal_rcc.c ****  ===============================================================================
 114:external/drivers/stm32c0xx/src/stm32c0xx_hal_rcc.c ****            ##### Initialization and de-initialization functions #####
 115:external/drivers/stm32c0xx/src/stm32c0xx_hal_rcc.c ****  ===============================================================================
 116:external/drivers/stm32c0xx/src/stm32c0xx_hal_rcc.c ****     [..]
 117:external/drivers/stm32c0xx/src/stm32c0xx_hal_rcc.c ****       This section provides functions allowing to configure the internal and external oscillators
 118:external/drivers/stm32c0xx/src/stm32c0xx_hal_rcc.c ****       (HSE, HSI, LSE, LSI, CSS and MCO) and the System busses clocks (SYSCLK, AHB, APB)
 119:external/drivers/stm32c0xx/src/stm32c0xx_hal_rcc.c **** 
 120:external/drivers/stm32c0xx/src/stm32c0xx_hal_rcc.c ****     [..] Internal/external clock
 121:external/drivers/stm32c0xx/src/stm32c0xx_hal_rcc.c ****          (+) HSI (high-speed internal): 48 MHz factory-trimmed RC used directly as System clock sou
 122:external/drivers/stm32c0xx/src/stm32c0xx_hal_rcc.c **** 
 123:external/drivers/stm32c0xx/src/stm32c0xx_hal_rcc.c ****          (+) LSI (low-speed internal): 32 KHz low consumption RC used as IWDG and/or RTC
 124:external/drivers/stm32c0xx/src/stm32c0xx_hal_rcc.c ****              clock source.
 125:external/drivers/stm32c0xx/src/stm32c0xx_hal_rcc.c **** 
 126:external/drivers/stm32c0xx/src/stm32c0xx_hal_rcc.c ****          (+) HSE (high-speed external): 4 to 48 MHz crystal oscillator used directly or
 127:external/drivers/stm32c0xx/src/stm32c0xx_hal_rcc.c ****              through the PLL as System clock source. Can be used also optionally as RTC clock sourc
 128:external/drivers/stm32c0xx/src/stm32c0xx_hal_rcc.c **** 
 129:external/drivers/stm32c0xx/src/stm32c0xx_hal_rcc.c ****          (+) LSE (low-speed external): 32.768 KHz oscillator used optionally as RTC clock source.
 130:external/drivers/stm32c0xx/src/stm32c0xx_hal_rcc.c **** 
 131:external/drivers/stm32c0xx/src/stm32c0xx_hal_rcc.c ****          (+) CSS (Clock security system): once enabled, if a HSE or LSE clock failure occurs,
 132:external/drivers/stm32c0xx/src/stm32c0xx_hal_rcc.c ****              the System clock is automatically switched respectively to HSI or LSI and an interrupt
 133:external/drivers/stm32c0xx/src/stm32c0xx_hal_rcc.c ****              is generated if enabled. The interrupt is linked to the Cortex-M0+ NMI (Non-Maskable I
 134:external/drivers/stm32c0xx/src/stm32c0xx_hal_rcc.c ****              exception vector.
 135:external/drivers/stm32c0xx/src/stm32c0xx_hal_rcc.c **** 
 136:external/drivers/stm32c0xx/src/stm32c0xx_hal_rcc.c ****          (+) MCOx (microcontroller clock output): used to output LSI, HSI, LSE, HSE and SYSCLK on d
 137:external/drivers/stm32c0xx/src/stm32c0xx_hal_rcc.c **** 
 138:external/drivers/stm32c0xx/src/stm32c0xx_hal_rcc.c ****     [..] System, AHB and APB busses clocks configuration
 139:external/drivers/stm32c0xx/src/stm32c0xx_hal_rcc.c ****          (+) Several clock sources can be used to drive the System clock (SYSCLK): HSI,
 140:external/drivers/stm32c0xx/src/stm32c0xx_hal_rcc.c ****              HSE, LSI and LSE.
 141:external/drivers/stm32c0xx/src/stm32c0xx_hal_rcc.c ****              The AHB clock (HCLK) is derived from System clock through configurable
 142:external/drivers/stm32c0xx/src/stm32c0xx_hal_rcc.c ****              prescaler and used to clock the CPU, memory and peripherals mapped
 143:external/drivers/stm32c0xx/src/stm32c0xx_hal_rcc.c ****              on AHB bus (DMA, GPIO...).and APB (PCLK1) clock is derived
 144:external/drivers/stm32c0xx/src/stm32c0xx_hal_rcc.c ****              from AHB clock through configurable prescalers and used to clock
 145:external/drivers/stm32c0xx/src/stm32c0xx_hal_rcc.c ****              the peripherals mapped on these busses. You can use
ARM GAS  /tmp/ccdF5Ctr.s 			page 4


 146:external/drivers/stm32c0xx/src/stm32c0xx_hal_rcc.c ****              "@ref HAL_RCC_GetSysClockFreq()" function to retrieve the frequencies of these clocks.
 147:external/drivers/stm32c0xx/src/stm32c0xx_hal_rcc.c **** 
 148:external/drivers/stm32c0xx/src/stm32c0xx_hal_rcc.c ****          -@- All the peripheral clocks are derived from the System clock (SYSCLK) except:
 149:external/drivers/stm32c0xx/src/stm32c0xx_hal_rcc.c **** 
 150:external/drivers/stm32c0xx/src/stm32c0xx_hal_rcc.c ****             (+@) RTC: the RTC clock can be derived either from the LSI, LSE or HSE clock
 151:external/drivers/stm32c0xx/src/stm32c0xx_hal_rcc.c ****                 divided by 2 to 31.
 152:external/drivers/stm32c0xx/src/stm32c0xx_hal_rcc.c ****                 You have to use @ref __HAL_RCC_RTC_ENABLE() and @ref HAL_RCCEx_PeriphCLKConfig() fu
 153:external/drivers/stm32c0xx/src/stm32c0xx_hal_rcc.c ****                  to configure this clock.
 154:external/drivers/stm32c0xx/src/stm32c0xx_hal_rcc.c **** 
 155:external/drivers/stm32c0xx/src/stm32c0xx_hal_rcc.c ****             (+@) ADC: the ADC clock can be derived either from system clock or HSI
 156:external/drivers/stm32c0xx/src/stm32c0xx_hal_rcc.c **** 
 157:external/drivers/stm32c0xx/src/stm32c0xx_hal_rcc.c ****             (+@) USART: the USART clock can be derived either from APB clock or HSI or LSE
 158:external/drivers/stm32c0xx/src/stm32c0xx_hal_rcc.c ****             (+@) I2C: the I2C clock can be derived either from system clock or HSI
 159:external/drivers/stm32c0xx/src/stm32c0xx_hal_rcc.c **** 
 160:external/drivers/stm32c0xx/src/stm32c0xx_hal_rcc.c ****             (+@) I2S: the I2S clock can be derived either from system clock or HSI or external cloc
 161:external/drivers/stm32c0xx/src/stm32c0xx_hal_rcc.c **** 
 162:external/drivers/stm32c0xx/src/stm32c0xx_hal_rcc.c ****          (+) The maximum frequency of the SYSCLK, HCLK, PCLK is 48 MHz.
 163:external/drivers/stm32c0xx/src/stm32c0xx_hal_rcc.c **** 
 164:external/drivers/stm32c0xx/src/stm32c0xx_hal_rcc.c ****   @endverbatim
 165:external/drivers/stm32c0xx/src/stm32c0xx_hal_rcc.c **** 
 166:external/drivers/stm32c0xx/src/stm32c0xx_hal_rcc.c ****      (++)  Table 1. HCLK clock frequency.
 167:external/drivers/stm32c0xx/src/stm32c0xx_hal_rcc.c ****      (++)  +------------------------------------+
 168:external/drivers/stm32c0xx/src/stm32c0xx_hal_rcc.c ****      (++)  | Latency         |    HCLK clock    |
 169:external/drivers/stm32c0xx/src/stm32c0xx_hal_rcc.c ****      (++)  |                 |  frequency (MHz) |
 170:external/drivers/stm32c0xx/src/stm32c0xx_hal_rcc.c ****      (++)  |                 |------------------|
 171:external/drivers/stm32c0xx/src/stm32c0xx_hal_rcc.c ****      (++)  |                 | voltage range    |
 172:external/drivers/stm32c0xx/src/stm32c0xx_hal_rcc.c ****      (++)  |                 |  VDD33 2V - 3.6V |
 173:external/drivers/stm32c0xx/src/stm32c0xx_hal_rcc.c ****      (++)  |                 |  VDD12 1V - 1.32V|
 174:external/drivers/stm32c0xx/src/stm32c0xx_hal_rcc.c ****      (++)  |-----------------|------------------|
 175:external/drivers/stm32c0xx/src/stm32c0xx_hal_rcc.c ****      (++)  |0WS(1 CPU cycles)|  HCLK <= 24      |
 176:external/drivers/stm32c0xx/src/stm32c0xx_hal_rcc.c ****      (++)  |-----------------|------------------|
 177:external/drivers/stm32c0xx/src/stm32c0xx_hal_rcc.c ****      (++)  |1WS(2 CPU cycles)|  HCLK <= 48      |
 178:external/drivers/stm32c0xx/src/stm32c0xx_hal_rcc.c ****      (++)  +------------------------------------+
 179:external/drivers/stm32c0xx/src/stm32c0xx_hal_rcc.c ****      (++)
 180:external/drivers/stm32c0xx/src/stm32c0xx_hal_rcc.c ****    * @{
 181:external/drivers/stm32c0xx/src/stm32c0xx_hal_rcc.c ****   */
 182:external/drivers/stm32c0xx/src/stm32c0xx_hal_rcc.c **** 
 183:external/drivers/stm32c0xx/src/stm32c0xx_hal_rcc.c **** /**
 184:external/drivers/stm32c0xx/src/stm32c0xx_hal_rcc.c ****   * @brief  Reset the RCC clock configuration to the default reset state.
 185:external/drivers/stm32c0xx/src/stm32c0xx_hal_rcc.c ****   * @note   The default reset state of the clock configuration is given below:
 186:external/drivers/stm32c0xx/src/stm32c0xx_hal_rcc.c ****   *            - HSI ON and used as system clock source
 187:external/drivers/stm32c0xx/src/stm32c0xx_hal_rcc.c ****   *            - HSE OFF
 188:external/drivers/stm32c0xx/src/stm32c0xx_hal_rcc.c ****   *            - AHB and APB prescaler set to 1.
 189:external/drivers/stm32c0xx/src/stm32c0xx_hal_rcc.c ****   *            - CSS, MCO1, MCO2 OFF
 190:external/drivers/stm32c0xx/src/stm32c0xx_hal_rcc.c ****   *            - All interrupts disabled
 191:external/drivers/stm32c0xx/src/stm32c0xx_hal_rcc.c ****   * @note   This function does not modify the configuration of the
 192:external/drivers/stm32c0xx/src/stm32c0xx_hal_rcc.c ****   *            - Peripheral clocks
 193:external/drivers/stm32c0xx/src/stm32c0xx_hal_rcc.c ****   *            - LSI, LSE and RTC clocks
 194:external/drivers/stm32c0xx/src/stm32c0xx_hal_rcc.c ****   * @retval HAL status
 195:external/drivers/stm32c0xx/src/stm32c0xx_hal_rcc.c ****   */
 196:external/drivers/stm32c0xx/src/stm32c0xx_hal_rcc.c **** HAL_StatusTypeDef HAL_RCC_DeInit(void)
 197:external/drivers/stm32c0xx/src/stm32c0xx_hal_rcc.c **** {
  28              		.loc 1 197 1 view -0
  29              		.cfi_startproc
  30              		@ args = 0, pretend = 0, frame = 0
  31              		@ frame_needed = 0, uses_anonymous_args = 0
 198:external/drivers/stm32c0xx/src/stm32c0xx_hal_rcc.c ****   uint32_t tickstart;
ARM GAS  /tmp/ccdF5Ctr.s 			page 5


  32              		.loc 1 198 3 view .LVU1
 199:external/drivers/stm32c0xx/src/stm32c0xx_hal_rcc.c **** 
 200:external/drivers/stm32c0xx/src/stm32c0xx_hal_rcc.c ****   /* Get Start Tick*/
 201:external/drivers/stm32c0xx/src/stm32c0xx_hal_rcc.c ****   tickstart = HAL_GetTick();
  33              		.loc 1 201 3 view .LVU2
 197:external/drivers/stm32c0xx/src/stm32c0xx_hal_rcc.c ****   uint32_t tickstart;
  34              		.loc 1 197 1 is_stmt 0 view .LVU3
  35 0000 F8B5     		push	{r3, r4, r5, r6, r7, lr}
  36              	.LCFI0:
  37              		.cfi_def_cfa_offset 24
  38              		.cfi_offset 3, -24
  39              		.cfi_offset 4, -20
  40              		.cfi_offset 5, -16
  41              		.cfi_offset 6, -12
  42              		.cfi_offset 7, -8
  43              		.cfi_offset 14, -4
  44              		.loc 1 201 15 view .LVU4
  45 0002 FFF7FEFF 		bl	HAL_GetTick
  46              	.LVL0:
 202:external/drivers/stm32c0xx/src/stm32c0xx_hal_rcc.c **** 
 203:external/drivers/stm32c0xx/src/stm32c0xx_hal_rcc.c ****   /* Set HSION bit to the reset value */
 204:external/drivers/stm32c0xx/src/stm32c0xx_hal_rcc.c ****   SET_BIT(RCC->CR, RCC_CR_HSION);
  47              		.loc 1 204 3 view .LVU5
  48 0006 8023     		movs	r3, #128
 205:external/drivers/stm32c0xx/src/stm32c0xx_hal_rcc.c **** 
 206:external/drivers/stm32c0xx/src/stm32c0xx_hal_rcc.c ****   /* Wait till HSI is ready */
 207:external/drivers/stm32c0xx/src/stm32c0xx_hal_rcc.c ****   while (READ_BIT(RCC->CR, RCC_CR_HSIRDY) == 0U)
  49              		.loc 1 207 10 view .LVU6
  50 0008 8026     		movs	r6, #128
 204:external/drivers/stm32c0xx/src/stm32c0xx_hal_rcc.c **** 
  51              		.loc 1 204 3 view .LVU7
  52 000a 274C     		ldr	r4, .L12
  53 000c 5B00     		lsls	r3, r3, #1
  54 000e 2268     		ldr	r2, [r4]
 201:external/drivers/stm32c0xx/src/stm32c0xx_hal_rcc.c **** 
  55              		.loc 1 201 15 view .LVU8
  56 0010 0500     		movs	r5, r0
  57              	.LVL1:
 204:external/drivers/stm32c0xx/src/stm32c0xx_hal_rcc.c **** 
  58              		.loc 1 204 3 is_stmt 1 view .LVU9
  59 0012 1343     		orrs	r3, r2
  60 0014 2360     		str	r3, [r4]
  61              		.loc 1 207 3 view .LVU10
  62              		.loc 1 207 10 is_stmt 0 view .LVU11
  63 0016 F600     		lsls	r6, r6, #3
  64              		.loc 1 207 9 view .LVU12
  65 0018 04E0     		b	.L2
  66              	.LVL2:
  67              	.L4:
 208:external/drivers/stm32c0xx/src/stm32c0xx_hal_rcc.c ****   {
 209:external/drivers/stm32c0xx/src/stm32c0xx_hal_rcc.c ****     if ((HAL_GetTick() - tickstart) > RCC_HSI_TIMEOUT_VALUE)
  68              		.loc 1 209 5 is_stmt 1 view .LVU13
  69              		.loc 1 209 10 is_stmt 0 view .LVU14
  70 001a FFF7FEFF 		bl	HAL_GetTick
  71              	.LVL3:
  72              		.loc 1 209 24 view .LVU15
  73 001e 401B     		subs	r0, r0, r5
ARM GAS  /tmp/ccdF5Ctr.s 			page 6


  74              		.loc 1 209 8 view .LVU16
  75 0020 0228     		cmp	r0, #2
  76 0022 3ED8     		bhi	.L6
  77              	.L2:
 207:external/drivers/stm32c0xx/src/stm32c0xx_hal_rcc.c ****   {
  78              		.loc 1 207 43 is_stmt 1 view .LVU17
 207:external/drivers/stm32c0xx/src/stm32c0xx_hal_rcc.c ****   {
  79              		.loc 1 207 10 is_stmt 0 view .LVU18
  80 0024 2368     		ldr	r3, [r4]
 207:external/drivers/stm32c0xx/src/stm32c0xx_hal_rcc.c ****   {
  81              		.loc 1 207 43 view .LVU19
  82 0026 3342     		tst	r3, r6
  83 0028 F7D0     		beq	.L4
 210:external/drivers/stm32c0xx/src/stm32c0xx_hal_rcc.c ****     {
 211:external/drivers/stm32c0xx/src/stm32c0xx_hal_rcc.c ****       return HAL_TIMEOUT;
 212:external/drivers/stm32c0xx/src/stm32c0xx_hal_rcc.c ****     }
 213:external/drivers/stm32c0xx/src/stm32c0xx_hal_rcc.c ****   }
 214:external/drivers/stm32c0xx/src/stm32c0xx_hal_rcc.c **** 
 215:external/drivers/stm32c0xx/src/stm32c0xx_hal_rcc.c ****   /* Set HSITRIM[6:0] bits to the reset value */
 216:external/drivers/stm32c0xx/src/stm32c0xx_hal_rcc.c ****   RCC->ICSCR = RCC_ICSCR_HSITRIM_6;
  84              		.loc 1 216 3 is_stmt 1 view .LVU20
  85              		.loc 1 216 14 is_stmt 0 view .LVU21
  86 002a 8023     		movs	r3, #128
  87 002c DB01     		lsls	r3, r3, #7
  88 002e 6360     		str	r3, [r4, #4]
 217:external/drivers/stm32c0xx/src/stm32c0xx_hal_rcc.c **** 
 218:external/drivers/stm32c0xx/src/stm32c0xx_hal_rcc.c ****   /* Get Start Tick*/
 219:external/drivers/stm32c0xx/src/stm32c0xx_hal_rcc.c ****   tickstart = HAL_GetTick();
  89              		.loc 1 219 3 is_stmt 1 view .LVU22
  90              		.loc 1 219 15 is_stmt 0 view .LVU23
  91 0030 FFF7FEFF 		bl	HAL_GetTick
  92              	.LVL4:
 220:external/drivers/stm32c0xx/src/stm32c0xx_hal_rcc.c **** 
 221:external/drivers/stm32c0xx/src/stm32c0xx_hal_rcc.c ****   /* Reset CFGR register (HSI is selected as system clock source) */
 222:external/drivers/stm32c0xx/src/stm32c0xx_hal_rcc.c ****   RCC->CFGR = 0x00000000u;
  93              		.loc 1 222 13 view .LVU24
  94 0034 0023     		movs	r3, #0
 219:external/drivers/stm32c0xx/src/stm32c0xx_hal_rcc.c **** 
  95              		.loc 1 219 15 view .LVU25
  96 0036 0500     		movs	r5, r0
  97              	.LVL5:
  98              		.loc 1 222 3 is_stmt 1 view .LVU26
  99              		.loc 1 222 13 is_stmt 0 view .LVU27
 100 0038 A360     		str	r3, [r4, #8]
 223:external/drivers/stm32c0xx/src/stm32c0xx_hal_rcc.c **** 
 224:external/drivers/stm32c0xx/src/stm32c0xx_hal_rcc.c ****   /* Wait till HSI is ready */
 225:external/drivers/stm32c0xx/src/stm32c0xx_hal_rcc.c ****   while (READ_BIT(RCC->CFGR, RCC_CFGR_SWS) != 0U)
 101              		.loc 1 225 3 is_stmt 1 view .LVU28
 102              		.loc 1 225 10 is_stmt 0 view .LVU29
 103 003a 3826     		movs	r6, #56
 104 003c 1A4C     		ldr	r4, .L12
 226:external/drivers/stm32c0xx/src/stm32c0xx_hal_rcc.c ****   {
 227:external/drivers/stm32c0xx/src/stm32c0xx_hal_rcc.c ****     if ((HAL_GetTick() - tickstart) > RCC_CLOCKSWITCH_TIMEOUT_VALUE)
 105              		.loc 1 227 8 view .LVU30
 106 003e 1B4F     		ldr	r7, .L12+4
 225:external/drivers/stm32c0xx/src/stm32c0xx_hal_rcc.c ****   {
 107              		.loc 1 225 9 view .LVU31
ARM GAS  /tmp/ccdF5Ctr.s 			page 7


 108 0040 04E0     		b	.L5
 109              	.LVL6:
 110              	.L7:
 111              		.loc 1 227 5 is_stmt 1 view .LVU32
 112              		.loc 1 227 10 is_stmt 0 view .LVU33
 113 0042 FFF7FEFF 		bl	HAL_GetTick
 114              	.LVL7:
 115              		.loc 1 227 24 view .LVU34
 116 0046 401B     		subs	r0, r0, r5
 117              		.loc 1 227 8 view .LVU35
 118 0048 B842     		cmp	r0, r7
 119 004a 2AD8     		bhi	.L6
 120              	.L5:
 225:external/drivers/stm32c0xx/src/stm32c0xx_hal_rcc.c ****   {
 121              		.loc 1 225 44 is_stmt 1 view .LVU36
 225:external/drivers/stm32c0xx/src/stm32c0xx_hal_rcc.c ****   {
 122              		.loc 1 225 10 is_stmt 0 view .LVU37
 123 004c A368     		ldr	r3, [r4, #8]
 225:external/drivers/stm32c0xx/src/stm32c0xx_hal_rcc.c ****   {
 124              		.loc 1 225 44 view .LVU38
 125 004e 1E42     		tst	r6, r3
 126 0050 F7D1     		bne	.L7
 228:external/drivers/stm32c0xx/src/stm32c0xx_hal_rcc.c ****     {
 229:external/drivers/stm32c0xx/src/stm32c0xx_hal_rcc.c ****       return HAL_TIMEOUT;
 230:external/drivers/stm32c0xx/src/stm32c0xx_hal_rcc.c ****     }
 231:external/drivers/stm32c0xx/src/stm32c0xx_hal_rcc.c ****   }
 232:external/drivers/stm32c0xx/src/stm32c0xx_hal_rcc.c **** 
 233:external/drivers/stm32c0xx/src/stm32c0xx_hal_rcc.c ****   /* Get Start Tick*/
 234:external/drivers/stm32c0xx/src/stm32c0xx_hal_rcc.c ****   tickstart = HAL_GetTick();
 127              		.loc 1 234 3 is_stmt 1 view .LVU39
 128              		.loc 1 234 15 is_stmt 0 view .LVU40
 129 0052 FFF7FEFF 		bl	HAL_GetTick
 130              	.LVL8:
 235:external/drivers/stm32c0xx/src/stm32c0xx_hal_rcc.c **** 
 236:external/drivers/stm32c0xx/src/stm32c0xx_hal_rcc.c ****   /* Clear CR register in 2 steps: first to clear HSEON in case bypass was enabled */
 237:external/drivers/stm32c0xx/src/stm32c0xx_hal_rcc.c ****   RCC->CR &= ~RCC_CR_HSEON;
 131              		.loc 1 237 6 view .LVU41
 132 0056 2368     		ldr	r3, [r4]
 133              		.loc 1 237 11 view .LVU42
 134 0058 154A     		ldr	r2, .L12+8
 234:external/drivers/stm32c0xx/src/stm32c0xx_hal_rcc.c **** 
 135              		.loc 1 234 15 view .LVU43
 136 005a 0600     		movs	r6, r0
 137              	.LVL9:
 138              		.loc 1 237 3 is_stmt 1 view .LVU44
 139              		.loc 1 237 11 is_stmt 0 view .LVU45
 140 005c 1340     		ands	r3, r2
 141 005e 2360     		str	r3, [r4]
 238:external/drivers/stm32c0xx/src/stm32c0xx_hal_rcc.c **** 
 239:external/drivers/stm32c0xx/src/stm32c0xx_hal_rcc.c ****   /* Wait till HSEON is disabled */
 240:external/drivers/stm32c0xx/src/stm32c0xx_hal_rcc.c ****   while (READ_BIT(RCC->CR, RCC_CR_HSERDY) != 0U)
 142              		.loc 1 240 3 is_stmt 1 view .LVU46
 143              		.loc 1 240 10 is_stmt 0 view .LVU47
 144 0060 8024     		movs	r4, #128
 145 0062 114D     		ldr	r5, .L12
 146 0064 A402     		lsls	r4, r4, #10
 147              		.loc 1 240 9 view .LVU48
ARM GAS  /tmp/ccdF5Ctr.s 			page 8


 148 0066 04E0     		b	.L8
 149              	.LVL10:
 150              	.L9:
 241:external/drivers/stm32c0xx/src/stm32c0xx_hal_rcc.c ****   {
 242:external/drivers/stm32c0xx/src/stm32c0xx_hal_rcc.c ****     if ((HAL_GetTick() - tickstart) > RCC_HSE_TIMEOUT_VALUE)
 151              		.loc 1 242 5 is_stmt 1 view .LVU49
 152              		.loc 1 242 10 is_stmt 0 view .LVU50
 153 0068 FFF7FEFF 		bl	HAL_GetTick
 154              	.LVL11:
 155              		.loc 1 242 24 view .LVU51
 156 006c 801B     		subs	r0, r0, r6
 157              		.loc 1 242 8 view .LVU52
 158 006e 6428     		cmp	r0, #100
 159 0070 17D8     		bhi	.L6
 160              	.L8:
 240:external/drivers/stm32c0xx/src/stm32c0xx_hal_rcc.c ****   {
 161              		.loc 1 240 43 is_stmt 1 view .LVU53
 240:external/drivers/stm32c0xx/src/stm32c0xx_hal_rcc.c ****   {
 162              		.loc 1 240 10 is_stmt 0 view .LVU54
 163 0072 2B68     		ldr	r3, [r5]
 164 0074 1A00     		movs	r2, r3
 165 0076 2240     		ands	r2, r4
 240:external/drivers/stm32c0xx/src/stm32c0xx_hal_rcc.c ****   {
 166              		.loc 1 240 43 view .LVU55
 167 0078 2342     		tst	r3, r4
 168 007a F5D1     		bne	.L9
 243:external/drivers/stm32c0xx/src/stm32c0xx_hal_rcc.c ****     {
 244:external/drivers/stm32c0xx/src/stm32c0xx_hal_rcc.c ****       return HAL_TIMEOUT;
 245:external/drivers/stm32c0xx/src/stm32c0xx_hal_rcc.c ****     }
 246:external/drivers/stm32c0xx/src/stm32c0xx_hal_rcc.c ****   }
 247:external/drivers/stm32c0xx/src/stm32c0xx_hal_rcc.c **** 
 248:external/drivers/stm32c0xx/src/stm32c0xx_hal_rcc.c ****   /* Then again to HSEBYP in case bypass was enabled */
 249:external/drivers/stm32c0xx/src/stm32c0xx_hal_rcc.c ****   RCC->CR &= ~RCC_CR_HSEBYP;
 169              		.loc 1 249 3 is_stmt 1 view .LVU56
 170              		.loc 1 249 6 is_stmt 0 view .LVU57
 171 007c 2B68     		ldr	r3, [r5]
 172              		.loc 1 249 11 view .LVU58
 173 007e 0D49     		ldr	r1, .L12+12
 174 0080 0B40     		ands	r3, r1
 175 0082 2B60     		str	r3, [r5]
 250:external/drivers/stm32c0xx/src/stm32c0xx_hal_rcc.c **** 
 251:external/drivers/stm32c0xx/src/stm32c0xx_hal_rcc.c ****   /* Disable all interrupts */
 252:external/drivers/stm32c0xx/src/stm32c0xx_hal_rcc.c ****   RCC->CIER = 0x00000000u;
 176              		.loc 1 252 3 is_stmt 1 view .LVU59
 253:external/drivers/stm32c0xx/src/stm32c0xx_hal_rcc.c **** 
 254:external/drivers/stm32c0xx/src/stm32c0xx_hal_rcc.c ****   /* Clear all flags */
 255:external/drivers/stm32c0xx/src/stm32c0xx_hal_rcc.c ****   RCC->CICR = 0xFFFFFFFFu;
 177              		.loc 1 255 13 is_stmt 0 view .LVU60
 178 0084 0123     		movs	r3, #1
 179 0086 5B42     		rsbs	r3, r3, #0
 252:external/drivers/stm32c0xx/src/stm32c0xx_hal_rcc.c **** 
 180              		.loc 1 252 13 view .LVU61
 181 0088 AA61     		str	r2, [r5, #24]
 182              		.loc 1 255 3 is_stmt 1 view .LVU62
 183              		.loc 1 255 13 is_stmt 0 view .LVU63
 184 008a 2B62     		str	r3, [r5, #32]
 256:external/drivers/stm32c0xx/src/stm32c0xx_hal_rcc.c **** 
ARM GAS  /tmp/ccdF5Ctr.s 			page 9


 257:external/drivers/stm32c0xx/src/stm32c0xx_hal_rcc.c ****   /* Update the SystemCoreClock global variable */
 258:external/drivers/stm32c0xx/src/stm32c0xx_hal_rcc.c ****   SystemCoreClock = HSI_VALUE;
 185              		.loc 1 258 3 is_stmt 1 view .LVU64
 186              		.loc 1 258 19 is_stmt 0 view .LVU65
 187 008c 0A4A     		ldr	r2, .L12+16
 188 008e 0B4B     		ldr	r3, .L12+20
 189 0090 1A60     		str	r2, [r3]
 259:external/drivers/stm32c0xx/src/stm32c0xx_hal_rcc.c **** 
 260:external/drivers/stm32c0xx/src/stm32c0xx_hal_rcc.c ****   /* Adapt Systick interrupt period */
 261:external/drivers/stm32c0xx/src/stm32c0xx_hal_rcc.c ****   if (HAL_InitTick(uwTickPrio) != HAL_OK)
 190              		.loc 1 261 3 is_stmt 1 view .LVU66
 191              		.loc 1 261 7 is_stmt 0 view .LVU67
 192 0092 0B4B     		ldr	r3, .L12+24
 193 0094 1868     		ldr	r0, [r3]
 194 0096 FFF7FEFF 		bl	HAL_InitTick
 195              	.LVL12:
 196              		.loc 1 261 6 view .LVU68
 197 009a 431E     		subs	r3, r0, #1
 198 009c 9841     		sbcs	r0, r0, r3
 199 009e C0B2     		uxtb	r0, r0
 200 00a0 00E0     		b	.L3
 201              	.LVL13:
 202              	.L6:
 211:external/drivers/stm32c0xx/src/stm32c0xx_hal_rcc.c ****     }
 203              		.loc 1 211 14 view .LVU69
 204 00a2 0320     		movs	r0, #3
 205              	.L3:
 262:external/drivers/stm32c0xx/src/stm32c0xx_hal_rcc.c ****   {
 263:external/drivers/stm32c0xx/src/stm32c0xx_hal_rcc.c ****     return HAL_ERROR;
 264:external/drivers/stm32c0xx/src/stm32c0xx_hal_rcc.c ****   }
 265:external/drivers/stm32c0xx/src/stm32c0xx_hal_rcc.c ****   else
 266:external/drivers/stm32c0xx/src/stm32c0xx_hal_rcc.c ****   {
 267:external/drivers/stm32c0xx/src/stm32c0xx_hal_rcc.c ****     return HAL_OK;
 268:external/drivers/stm32c0xx/src/stm32c0xx_hal_rcc.c ****   }
 269:external/drivers/stm32c0xx/src/stm32c0xx_hal_rcc.c **** }
 206              		.loc 1 269 1 view .LVU70
 207              		@ sp needed
 208 00a4 F8BD     		pop	{r3, r4, r5, r6, r7, pc}
 209              	.L13:
 210 00a6 C046     		.align	2
 211              	.L12:
 212 00a8 00100240 		.word	1073876992
 213 00ac 88130000 		.word	5000
 214 00b0 FFFFFEFF 		.word	-65537
 215 00b4 FFFFFBFF 		.word	-262145
 216 00b8 006CDC02 		.word	48000000
 217 00bc 00000000 		.word	SystemCoreClock
 218 00c0 00000000 		.word	uwTickPrio
 219              		.cfi_endproc
 220              	.LFE214:
 222              		.section	.text.HAL_RCC_OscConfig,"ax",%progbits
 223              		.align	1
 224              		.p2align 2,,3
 225              		.global	HAL_RCC_OscConfig
 226              		.syntax unified
 227              		.code	16
 228              		.thumb_func
ARM GAS  /tmp/ccdF5Ctr.s 			page 10


 230              	HAL_RCC_OscConfig:
 231              	.LVL14:
 232              	.LFB215:
 270:external/drivers/stm32c0xx/src/stm32c0xx_hal_rcc.c **** 
 271:external/drivers/stm32c0xx/src/stm32c0xx_hal_rcc.c **** /**
 272:external/drivers/stm32c0xx/src/stm32c0xx_hal_rcc.c ****   * @brief  Initialize the RCC Oscillators according to the specified parameters in the
 273:external/drivers/stm32c0xx/src/stm32c0xx_hal_rcc.c ****   *         @ref RCC_OscInitTypeDef.
 274:external/drivers/stm32c0xx/src/stm32c0xx_hal_rcc.c ****   * @param  RCC_OscInitStruct pointer to a @ref RCC_OscInitTypeDef structure that
 275:external/drivers/stm32c0xx/src/stm32c0xx_hal_rcc.c ****   *         contains the configuration information for the RCC Oscillators.
 276:external/drivers/stm32c0xx/src/stm32c0xx_hal_rcc.c ****   * @note   Transition HSE Bypass to HSE On and HSE On to HSE Bypass are not
 277:external/drivers/stm32c0xx/src/stm32c0xx_hal_rcc.c ****   *         supported by this function. User should request a transition to HSE Off
 278:external/drivers/stm32c0xx/src/stm32c0xx_hal_rcc.c ****   *         first and then to HSE On or HSE Bypass.
 279:external/drivers/stm32c0xx/src/stm32c0xx_hal_rcc.c ****   * @note   Transition LSE Bypass to LSE On and LSE On to LSE Bypass are not
 280:external/drivers/stm32c0xx/src/stm32c0xx_hal_rcc.c ****   *         supported by this function. User should request a transition to LSE Off
 281:external/drivers/stm32c0xx/src/stm32c0xx_hal_rcc.c ****   *         first and then to LSE On or LSE Bypass.
 282:external/drivers/stm32c0xx/src/stm32c0xx_hal_rcc.c ****   * @retval HAL status
 283:external/drivers/stm32c0xx/src/stm32c0xx_hal_rcc.c ****   */
 284:external/drivers/stm32c0xx/src/stm32c0xx_hal_rcc.c **** HAL_StatusTypeDef HAL_RCC_OscConfig(const RCC_OscInitTypeDef  *RCC_OscInitStruct)
 285:external/drivers/stm32c0xx/src/stm32c0xx_hal_rcc.c **** {
 233              		.loc 1 285 1 is_stmt 1 view -0
 234              		.cfi_startproc
 235              		@ args = 0, pretend = 0, frame = 0
 236              		@ frame_needed = 0, uses_anonymous_args = 0
 286:external/drivers/stm32c0xx/src/stm32c0xx_hal_rcc.c ****   uint32_t tickstart;
 237              		.loc 1 286 3 view .LVU72
 287:external/drivers/stm32c0xx/src/stm32c0xx_hal_rcc.c ****   uint32_t temp_sysclksrc;
 238              		.loc 1 287 3 view .LVU73
 288:external/drivers/stm32c0xx/src/stm32c0xx_hal_rcc.c **** 
 289:external/drivers/stm32c0xx/src/stm32c0xx_hal_rcc.c ****   /* Check Null pointer */
 290:external/drivers/stm32c0xx/src/stm32c0xx_hal_rcc.c ****   if (RCC_OscInitStruct == NULL)
 239              		.loc 1 290 3 view .LVU74
 285:external/drivers/stm32c0xx/src/stm32c0xx_hal_rcc.c ****   uint32_t tickstart;
 240              		.loc 1 285 1 is_stmt 0 view .LVU75
 241 0000 F8B5     		push	{r3, r4, r5, r6, r7, lr}
 242              	.LCFI1:
 243              		.cfi_def_cfa_offset 24
 244              		.cfi_offset 3, -24
 245              		.cfi_offset 4, -20
 246              		.cfi_offset 5, -16
 247              		.cfi_offset 6, -12
 248              		.cfi_offset 7, -8
 249              		.cfi_offset 14, -4
 285:external/drivers/stm32c0xx/src/stm32c0xx_hal_rcc.c ****   uint32_t tickstart;
 250              		.loc 1 285 1 view .LVU76
 251 0002 041E     		subs	r4, r0, #0
 252              		.loc 1 290 6 view .LVU77
 253 0004 00D1     		bne	.LCB183
 254 0006 ABE0     		b	.L19	@long jump
 255              	.LCB183:
 291:external/drivers/stm32c0xx/src/stm32c0xx_hal_rcc.c ****   {
 292:external/drivers/stm32c0xx/src/stm32c0xx_hal_rcc.c ****     return HAL_ERROR;
 293:external/drivers/stm32c0xx/src/stm32c0xx_hal_rcc.c ****   }
 294:external/drivers/stm32c0xx/src/stm32c0xx_hal_rcc.c **** 
 295:external/drivers/stm32c0xx/src/stm32c0xx_hal_rcc.c ****   /* Check the parameters */
 296:external/drivers/stm32c0xx/src/stm32c0xx_hal_rcc.c ****   assert_param(IS_RCC_OSCILLATORTYPE(RCC_OscInitStruct->OscillatorType));
 256              		.loc 1 296 3 is_stmt 1 view .LVU78
 297:external/drivers/stm32c0xx/src/stm32c0xx_hal_rcc.c **** 
ARM GAS  /tmp/ccdF5Ctr.s 			page 11


 298:external/drivers/stm32c0xx/src/stm32c0xx_hal_rcc.c ****   /*------------------------------- HSE Configuration ------------------------*/
 299:external/drivers/stm32c0xx/src/stm32c0xx_hal_rcc.c ****   if (((RCC_OscInitStruct->OscillatorType) & RCC_OSCILLATORTYPE_HSE) == RCC_OSCILLATORTYPE_HSE)
 257              		.loc 1 299 3 view .LVU79
 258              		.loc 1 299 26 is_stmt 0 view .LVU80
 259 0008 0368     		ldr	r3, [r0]
 260              		.loc 1 299 6 view .LVU81
 261 000a DA07     		lsls	r2, r3, #31
 262 000c 2CD5     		bpl	.L17
 300:external/drivers/stm32c0xx/src/stm32c0xx_hal_rcc.c ****   {
 301:external/drivers/stm32c0xx/src/stm32c0xx_hal_rcc.c ****     /* Check the parameters */
 302:external/drivers/stm32c0xx/src/stm32c0xx_hal_rcc.c ****     assert_param(IS_RCC_HSE(RCC_OscInitStruct->HSEState));
 263              		.loc 1 302 5 is_stmt 1 view .LVU82
 303:external/drivers/stm32c0xx/src/stm32c0xx_hal_rcc.c **** 
 304:external/drivers/stm32c0xx/src/stm32c0xx_hal_rcc.c ****     temp_sysclksrc = __HAL_RCC_GET_SYSCLK_SOURCE();
 264              		.loc 1 304 5 view .LVU83
 265              		.loc 1 304 20 is_stmt 0 view .LVU84
 266 000e 3822     		movs	r2, #56
 267              		.loc 1 304 22 view .LVU85
 268 0010 9A4D     		ldr	r5, .L88
 269 0012 A968     		ldr	r1, [r5, #8]
 270              	.LVL15:
 305:external/drivers/stm32c0xx/src/stm32c0xx_hal_rcc.c **** 
 306:external/drivers/stm32c0xx/src/stm32c0xx_hal_rcc.c ****     /* When the HSE is used as system clock in these cases it is not allowed to be disabled */
 307:external/drivers/stm32c0xx/src/stm32c0xx_hal_rcc.c ****     if (temp_sysclksrc == RCC_CFGR_SWS_HSE)
 271              		.loc 1 307 5 is_stmt 1 view .LVU86
 304:external/drivers/stm32c0xx/src/stm32c0xx_hal_rcc.c **** 
 272              		.loc 1 304 20 is_stmt 0 view .LVU87
 273 0014 0A40     		ands	r2, r1
 274              	.LVL16:
 275              		.loc 1 307 8 view .LVU88
 276 0016 082A     		cmp	r2, #8
 277 0018 00D1     		bne	.LCB201
 278 001a 9EE0     		b	.L79	@long jump
 279              	.LCB201:
 308:external/drivers/stm32c0xx/src/stm32c0xx_hal_rcc.c ****     {
 309:external/drivers/stm32c0xx/src/stm32c0xx_hal_rcc.c ****       if (RCC_OscInitStruct->HSEState == RCC_HSE_OFF)
 310:external/drivers/stm32c0xx/src/stm32c0xx_hal_rcc.c ****       {
 311:external/drivers/stm32c0xx/src/stm32c0xx_hal_rcc.c ****         return HAL_ERROR;
 312:external/drivers/stm32c0xx/src/stm32c0xx_hal_rcc.c ****       }
 313:external/drivers/stm32c0xx/src/stm32c0xx_hal_rcc.c ****     }
 314:external/drivers/stm32c0xx/src/stm32c0xx_hal_rcc.c ****     else
 315:external/drivers/stm32c0xx/src/stm32c0xx_hal_rcc.c ****     {
 316:external/drivers/stm32c0xx/src/stm32c0xx_hal_rcc.c ****       /* Set the new HSE configuration ---------------------------------------*/
 317:external/drivers/stm32c0xx/src/stm32c0xx_hal_rcc.c ****       __HAL_RCC_HSE_CONFIG(RCC_OscInitStruct->HSEState);
 280              		.loc 1 317 7 is_stmt 1 view .LVU89
 281              		.loc 1 317 7 view .LVU90
 282 001c 8022     		movs	r2, #128
 283              	.LVL17:
 284              		.loc 1 317 7 is_stmt 0 view .LVU91
 285 001e 4368     		ldr	r3, [r0, #4]
 286 0020 5202     		lsls	r2, r2, #9
 287 0022 9342     		cmp	r3, r2
 288 0024 00D1     		bne	.LCB209
 289 0026 BCE0     		b	.L80	@long jump
 290              	.LCB209:
 291              		.loc 1 317 7 is_stmt 1 discriminator 2 view .LVU92
 292 0028 A021     		movs	r1, #160
ARM GAS  /tmp/ccdF5Ctr.s 			page 12


 293              	.LVL18:
 294              		.loc 1 317 7 is_stmt 0 discriminator 2 view .LVU93
 295 002a C902     		lsls	r1, r1, #11
 296 002c 8B42     		cmp	r3, r1
 297 002e 00D1     		bne	.LCB215
 298 0030 0DE1     		b	.L81	@long jump
 299              	.LCB215:
 300              		.loc 1 317 7 is_stmt 1 discriminator 5 view .LVU94
 301 0032 2A68     		ldr	r2, [r5]
 302 0034 9249     		ldr	r1, .L88+4
 303 0036 0A40     		ands	r2, r1
 304 0038 2A60     		str	r2, [r5]
 305              		.loc 1 317 7 discriminator 5 view .LVU95
 306 003a 2A68     		ldr	r2, [r5]
 307 003c 9149     		ldr	r1, .L88+8
 308 003e 0A40     		ands	r2, r1
 309 0040 2A60     		str	r2, [r5]
 310              		.loc 1 317 7 discriminator 5 view .LVU96
 318:external/drivers/stm32c0xx/src/stm32c0xx_hal_rcc.c **** 
 319:external/drivers/stm32c0xx/src/stm32c0xx_hal_rcc.c ****       /* Check the HSE State */
 320:external/drivers/stm32c0xx/src/stm32c0xx_hal_rcc.c ****       if (RCC_OscInitStruct->HSEState != RCC_HSE_OFF)
 311              		.loc 1 320 7 discriminator 5 view .LVU97
 312              		.loc 1 320 10 is_stmt 0 discriminator 5 view .LVU98
 313 0042 002B     		cmp	r3, #0
 314 0044 00D0     		beq	.LCB229
 315 0046 AFE0     		b	.L21	@long jump
 316              	.LCB229:
 321:external/drivers/stm32c0xx/src/stm32c0xx_hal_rcc.c ****       {
 322:external/drivers/stm32c0xx/src/stm32c0xx_hal_rcc.c ****         /* Get Start Tick*/
 323:external/drivers/stm32c0xx/src/stm32c0xx_hal_rcc.c ****         tickstart = HAL_GetTick();
 324:external/drivers/stm32c0xx/src/stm32c0xx_hal_rcc.c **** 
 325:external/drivers/stm32c0xx/src/stm32c0xx_hal_rcc.c ****         /* Wait till HSE is ready */
 326:external/drivers/stm32c0xx/src/stm32c0xx_hal_rcc.c ****         while (READ_BIT(RCC->CR, RCC_CR_HSERDY) == 0U)
 327:external/drivers/stm32c0xx/src/stm32c0xx_hal_rcc.c ****         {
 328:external/drivers/stm32c0xx/src/stm32c0xx_hal_rcc.c ****           if ((HAL_GetTick() - tickstart) > RCC_HSE_TIMEOUT_VALUE)
 329:external/drivers/stm32c0xx/src/stm32c0xx_hal_rcc.c ****           {
 330:external/drivers/stm32c0xx/src/stm32c0xx_hal_rcc.c ****             return HAL_TIMEOUT;
 331:external/drivers/stm32c0xx/src/stm32c0xx_hal_rcc.c ****           }
 332:external/drivers/stm32c0xx/src/stm32c0xx_hal_rcc.c ****         }
 333:external/drivers/stm32c0xx/src/stm32c0xx_hal_rcc.c ****       }
 334:external/drivers/stm32c0xx/src/stm32c0xx_hal_rcc.c ****       else
 335:external/drivers/stm32c0xx/src/stm32c0xx_hal_rcc.c ****       {
 336:external/drivers/stm32c0xx/src/stm32c0xx_hal_rcc.c ****         /* Get Start Tick*/
 337:external/drivers/stm32c0xx/src/stm32c0xx_hal_rcc.c ****         tickstart = HAL_GetTick();
 317              		.loc 1 337 9 is_stmt 1 view .LVU99
 318              		.loc 1 337 21 is_stmt 0 view .LVU100
 319 0048 FFF7FEFF 		bl	HAL_GetTick
 320              	.LVL19:
 338:external/drivers/stm32c0xx/src/stm32c0xx_hal_rcc.c **** 
 339:external/drivers/stm32c0xx/src/stm32c0xx_hal_rcc.c ****         /* Wait till HSE is disabled */
 340:external/drivers/stm32c0xx/src/stm32c0xx_hal_rcc.c ****         while (READ_BIT(RCC->CR, RCC_CR_HSERDY) != 0U)
 321              		.loc 1 340 16 view .LVU101
 322 004c 8027     		movs	r7, #128
 337:external/drivers/stm32c0xx/src/stm32c0xx_hal_rcc.c **** 
 323              		.loc 1 337 21 view .LVU102
 324 004e 0600     		movs	r6, r0
 325              	.LVL20:
ARM GAS  /tmp/ccdF5Ctr.s 			page 13


 326              		.loc 1 340 9 is_stmt 1 view .LVU103
 327              		.loc 1 340 16 is_stmt 0 view .LVU104
 328 0050 BF02     		lsls	r7, r7, #10
 329              		.loc 1 340 15 view .LVU105
 330 0052 05E0     		b	.L26
 331              	.LVL21:
 332              	.L28:
 341:external/drivers/stm32c0xx/src/stm32c0xx_hal_rcc.c ****         {
 342:external/drivers/stm32c0xx/src/stm32c0xx_hal_rcc.c ****           if ((HAL_GetTick() - tickstart) > RCC_HSE_TIMEOUT_VALUE)
 333              		.loc 1 342 11 is_stmt 1 view .LVU106
 334              		.loc 1 342 16 is_stmt 0 view .LVU107
 335 0054 FFF7FEFF 		bl	HAL_GetTick
 336              	.LVL22:
 337              		.loc 1 342 30 view .LVU108
 338 0058 801B     		subs	r0, r0, r6
 339              		.loc 1 342 14 view .LVU109
 340 005a 6428     		cmp	r0, #100
 341 005c 00D9     		bls	.LCB248
 342 005e CDE0     		b	.L27	@long jump
 343              	.LCB248:
 344              	.L26:
 340:external/drivers/stm32c0xx/src/stm32c0xx_hal_rcc.c ****         {
 345              		.loc 1 340 49 is_stmt 1 view .LVU110
 340:external/drivers/stm32c0xx/src/stm32c0xx_hal_rcc.c ****         {
 346              		.loc 1 340 16 is_stmt 0 view .LVU111
 347 0060 2B68     		ldr	r3, [r5]
 340:external/drivers/stm32c0xx/src/stm32c0xx_hal_rcc.c ****         {
 348              		.loc 1 340 49 view .LVU112
 349 0062 3B42     		tst	r3, r7
 350 0064 F6D1     		bne	.L28
 343:external/drivers/stm32c0xx/src/stm32c0xx_hal_rcc.c ****           {
 344:external/drivers/stm32c0xx/src/stm32c0xx_hal_rcc.c ****             return HAL_TIMEOUT;
 345:external/drivers/stm32c0xx/src/stm32c0xx_hal_rcc.c ****           }
 346:external/drivers/stm32c0xx/src/stm32c0xx_hal_rcc.c ****         }
 347:external/drivers/stm32c0xx/src/stm32c0xx_hal_rcc.c ****       }
 348:external/drivers/stm32c0xx/src/stm32c0xx_hal_rcc.c ****     }
 349:external/drivers/stm32c0xx/src/stm32c0xx_hal_rcc.c ****   }
 350:external/drivers/stm32c0xx/src/stm32c0xx_hal_rcc.c ****   /*----------------------------- HSI Configuration --------------------------*/
 351:external/drivers/stm32c0xx/src/stm32c0xx_hal_rcc.c ****   if (((RCC_OscInitStruct->OscillatorType) & RCC_OSCILLATORTYPE_HSI) == RCC_OSCILLATORTYPE_HSI)
 351              		.loc 1 351 26 view .LVU113
 352 0066 2368     		ldr	r3, [r4]
 353              	.LVL23:
 354              	.L17:
 355              		.loc 1 351 3 is_stmt 1 view .LVU114
 356              		.loc 1 351 6 is_stmt 0 view .LVU115
 357 0068 9A07     		lsls	r2, r3, #30
 358 006a 4BD4     		bmi	.L82
 359              	.L29:
 352:external/drivers/stm32c0xx/src/stm32c0xx_hal_rcc.c ****   {
 353:external/drivers/stm32c0xx/src/stm32c0xx_hal_rcc.c ****     /* Check the parameters */
 354:external/drivers/stm32c0xx/src/stm32c0xx_hal_rcc.c ****     assert_param(IS_RCC_HSI(RCC_OscInitStruct->HSIState));
 355:external/drivers/stm32c0xx/src/stm32c0xx_hal_rcc.c ****     assert_param(IS_RCC_HSI_CALIBRATION_VALUE(RCC_OscInitStruct->HSICalibrationValue));
 356:external/drivers/stm32c0xx/src/stm32c0xx_hal_rcc.c ****     assert_param(IS_RCC_HSIDIV(RCC_OscInitStruct->HSIDiv));
 357:external/drivers/stm32c0xx/src/stm32c0xx_hal_rcc.c **** 
 358:external/drivers/stm32c0xx/src/stm32c0xx_hal_rcc.c ****     /* Check if HSI48 is used as system clock  */
 359:external/drivers/stm32c0xx/src/stm32c0xx_hal_rcc.c ****     temp_sysclksrc = __HAL_RCC_GET_SYSCLK_SOURCE();
 360:external/drivers/stm32c0xx/src/stm32c0xx_hal_rcc.c **** 
ARM GAS  /tmp/ccdF5Ctr.s 			page 14


 361:external/drivers/stm32c0xx/src/stm32c0xx_hal_rcc.c ****     if (temp_sysclksrc == RCC_CFGR_SWS_HSI)
 362:external/drivers/stm32c0xx/src/stm32c0xx_hal_rcc.c ****     {
 363:external/drivers/stm32c0xx/src/stm32c0xx_hal_rcc.c ****       /* When HSI is used as system clock it can not be disabled */
 364:external/drivers/stm32c0xx/src/stm32c0xx_hal_rcc.c ****       if (RCC_OscInitStruct->HSIState == RCC_HSI_OFF)
 365:external/drivers/stm32c0xx/src/stm32c0xx_hal_rcc.c ****       {
 366:external/drivers/stm32c0xx/src/stm32c0xx_hal_rcc.c ****         return HAL_ERROR;
 367:external/drivers/stm32c0xx/src/stm32c0xx_hal_rcc.c ****       }
 368:external/drivers/stm32c0xx/src/stm32c0xx_hal_rcc.c ****       /* Otherwise, just the calibration is allowed */
 369:external/drivers/stm32c0xx/src/stm32c0xx_hal_rcc.c ****       else
 370:external/drivers/stm32c0xx/src/stm32c0xx_hal_rcc.c ****       {
 371:external/drivers/stm32c0xx/src/stm32c0xx_hal_rcc.c ****         /* Adjusts the Internal High Speed oscillator (HSI) calibration value.*/
 372:external/drivers/stm32c0xx/src/stm32c0xx_hal_rcc.c ****         __HAL_RCC_HSI_CALIBRATIONVALUE_ADJUST(RCC_OscInitStruct->HSICalibrationValue);
 373:external/drivers/stm32c0xx/src/stm32c0xx_hal_rcc.c **** 
 374:external/drivers/stm32c0xx/src/stm32c0xx_hal_rcc.c ****         if (temp_sysclksrc == RCC_CFGR_SWS_HSI)
 375:external/drivers/stm32c0xx/src/stm32c0xx_hal_rcc.c ****         {
 376:external/drivers/stm32c0xx/src/stm32c0xx_hal_rcc.c ****           /* Adjust the HSI48 division factor */
 377:external/drivers/stm32c0xx/src/stm32c0xx_hal_rcc.c ****           __HAL_RCC_HSI_CONFIG(RCC_OscInitStruct->HSIDiv);
 378:external/drivers/stm32c0xx/src/stm32c0xx_hal_rcc.c **** 
 379:external/drivers/stm32c0xx/src/stm32c0xx_hal_rcc.c ****           /* Update the SystemCoreClock global variable with HSISYS value  */
 380:external/drivers/stm32c0xx/src/stm32c0xx_hal_rcc.c ****           SystemCoreClock = (HSI_VALUE / (1UL << ((READ_BIT(RCC->CR, RCC_CR_HSIDIV)) >> RCC_CR_HSID
 381:external/drivers/stm32c0xx/src/stm32c0xx_hal_rcc.c ****         }
 382:external/drivers/stm32c0xx/src/stm32c0xx_hal_rcc.c **** 
 383:external/drivers/stm32c0xx/src/stm32c0xx_hal_rcc.c ****         /* Adapt Systick interrupt period */
 384:external/drivers/stm32c0xx/src/stm32c0xx_hal_rcc.c ****         if (HAL_InitTick(uwTickPrio) != HAL_OK)
 385:external/drivers/stm32c0xx/src/stm32c0xx_hal_rcc.c ****         {
 386:external/drivers/stm32c0xx/src/stm32c0xx_hal_rcc.c ****           return HAL_ERROR;
 387:external/drivers/stm32c0xx/src/stm32c0xx_hal_rcc.c ****         }
 388:external/drivers/stm32c0xx/src/stm32c0xx_hal_rcc.c ****       }
 389:external/drivers/stm32c0xx/src/stm32c0xx_hal_rcc.c ****     }
 390:external/drivers/stm32c0xx/src/stm32c0xx_hal_rcc.c ****     else
 391:external/drivers/stm32c0xx/src/stm32c0xx_hal_rcc.c ****     {
 392:external/drivers/stm32c0xx/src/stm32c0xx_hal_rcc.c ****       /* Check the HSI State */
 393:external/drivers/stm32c0xx/src/stm32c0xx_hal_rcc.c ****       if (RCC_OscInitStruct->HSIState != RCC_HSI_OFF)
 394:external/drivers/stm32c0xx/src/stm32c0xx_hal_rcc.c ****       {
 395:external/drivers/stm32c0xx/src/stm32c0xx_hal_rcc.c ****         /* Configure the HSI48 division factor */
 396:external/drivers/stm32c0xx/src/stm32c0xx_hal_rcc.c ****         __HAL_RCC_HSI_CONFIG(RCC_OscInitStruct->HSIDiv);
 397:external/drivers/stm32c0xx/src/stm32c0xx_hal_rcc.c **** 
 398:external/drivers/stm32c0xx/src/stm32c0xx_hal_rcc.c ****         /* Enable the Internal High Speed oscillator (HSI48). */
 399:external/drivers/stm32c0xx/src/stm32c0xx_hal_rcc.c ****         __HAL_RCC_HSI_ENABLE();
 400:external/drivers/stm32c0xx/src/stm32c0xx_hal_rcc.c **** 
 401:external/drivers/stm32c0xx/src/stm32c0xx_hal_rcc.c ****         /* Get Start Tick*/
 402:external/drivers/stm32c0xx/src/stm32c0xx_hal_rcc.c ****         tickstart = HAL_GetTick();
 403:external/drivers/stm32c0xx/src/stm32c0xx_hal_rcc.c **** 
 404:external/drivers/stm32c0xx/src/stm32c0xx_hal_rcc.c ****         /* Wait till HSI is ready */
 405:external/drivers/stm32c0xx/src/stm32c0xx_hal_rcc.c ****         while (READ_BIT(RCC->CR, RCC_CR_HSIRDY) == 0U)
 406:external/drivers/stm32c0xx/src/stm32c0xx_hal_rcc.c ****         {
 407:external/drivers/stm32c0xx/src/stm32c0xx_hal_rcc.c ****           if ((HAL_GetTick() - tickstart) > RCC_HSI_TIMEOUT_VALUE)
 408:external/drivers/stm32c0xx/src/stm32c0xx_hal_rcc.c ****           {
 409:external/drivers/stm32c0xx/src/stm32c0xx_hal_rcc.c ****             return HAL_TIMEOUT;
 410:external/drivers/stm32c0xx/src/stm32c0xx_hal_rcc.c ****           }
 411:external/drivers/stm32c0xx/src/stm32c0xx_hal_rcc.c ****         }
 412:external/drivers/stm32c0xx/src/stm32c0xx_hal_rcc.c **** 
 413:external/drivers/stm32c0xx/src/stm32c0xx_hal_rcc.c ****         /* Adjusts the Internal High Speed oscillator (HSI) calibration value.*/
 414:external/drivers/stm32c0xx/src/stm32c0xx_hal_rcc.c ****         __HAL_RCC_HSI_CALIBRATIONVALUE_ADJUST(RCC_OscInitStruct->HSICalibrationValue);
 415:external/drivers/stm32c0xx/src/stm32c0xx_hal_rcc.c ****       }
 416:external/drivers/stm32c0xx/src/stm32c0xx_hal_rcc.c ****       else
 417:external/drivers/stm32c0xx/src/stm32c0xx_hal_rcc.c ****       {
ARM GAS  /tmp/ccdF5Ctr.s 			page 15


 418:external/drivers/stm32c0xx/src/stm32c0xx_hal_rcc.c ****         /* Disable the Internal High Speed oscillator (HSI48). */
 419:external/drivers/stm32c0xx/src/stm32c0xx_hal_rcc.c ****         __HAL_RCC_HSI_DISABLE();
 420:external/drivers/stm32c0xx/src/stm32c0xx_hal_rcc.c **** 
 421:external/drivers/stm32c0xx/src/stm32c0xx_hal_rcc.c ****         /* Get Start Tick*/
 422:external/drivers/stm32c0xx/src/stm32c0xx_hal_rcc.c ****         tickstart = HAL_GetTick();
 423:external/drivers/stm32c0xx/src/stm32c0xx_hal_rcc.c **** 
 424:external/drivers/stm32c0xx/src/stm32c0xx_hal_rcc.c ****         /* Wait till HSI is disabled */
 425:external/drivers/stm32c0xx/src/stm32c0xx_hal_rcc.c ****         while (READ_BIT(RCC->CR, RCC_CR_HSIRDY) != 0U)
 426:external/drivers/stm32c0xx/src/stm32c0xx_hal_rcc.c ****         {
 427:external/drivers/stm32c0xx/src/stm32c0xx_hal_rcc.c ****           if ((HAL_GetTick() - tickstart) > RCC_HSI_TIMEOUT_VALUE)
 428:external/drivers/stm32c0xx/src/stm32c0xx_hal_rcc.c ****           {
 429:external/drivers/stm32c0xx/src/stm32c0xx_hal_rcc.c ****             return HAL_TIMEOUT;
 430:external/drivers/stm32c0xx/src/stm32c0xx_hal_rcc.c ****           }
 431:external/drivers/stm32c0xx/src/stm32c0xx_hal_rcc.c ****         }
 432:external/drivers/stm32c0xx/src/stm32c0xx_hal_rcc.c ****       }
 433:external/drivers/stm32c0xx/src/stm32c0xx_hal_rcc.c ****     }
 434:external/drivers/stm32c0xx/src/stm32c0xx_hal_rcc.c ****   }
 435:external/drivers/stm32c0xx/src/stm32c0xx_hal_rcc.c ****   /*------------------------------ LSI Configuration -------------------------*/
 436:external/drivers/stm32c0xx/src/stm32c0xx_hal_rcc.c ****   if (((RCC_OscInitStruct->OscillatorType) & RCC_OSCILLATORTYPE_LSI) == RCC_OSCILLATORTYPE_LSI)
 360              		.loc 1 436 3 is_stmt 1 view .LVU116
 361              		.loc 1 436 6 is_stmt 0 view .LVU117
 362 006c 1A07     		lsls	r2, r3, #28
 363 006e 1DD5     		bpl	.L36
 437:external/drivers/stm32c0xx/src/stm32c0xx_hal_rcc.c ****   {
 438:external/drivers/stm32c0xx/src/stm32c0xx_hal_rcc.c ****     /* Check the parameters */
 439:external/drivers/stm32c0xx/src/stm32c0xx_hal_rcc.c ****     assert_param(IS_RCC_LSI(RCC_OscInitStruct->LSIState));
 364              		.loc 1 439 5 is_stmt 1 view .LVU118
 440:external/drivers/stm32c0xx/src/stm32c0xx_hal_rcc.c **** 
 441:external/drivers/stm32c0xx/src/stm32c0xx_hal_rcc.c ****     /* Check if LSI is used as system clock */
 442:external/drivers/stm32c0xx/src/stm32c0xx_hal_rcc.c ****     if (__HAL_RCC_GET_SYSCLK_SOURCE() == RCC_CFGR_SWS_LSI)
 365              		.loc 1 442 5 view .LVU119
 366              		.loc 1 442 9 is_stmt 0 view .LVU120
 367 0070 3822     		movs	r2, #56
 368 0072 824D     		ldr	r5, .L88
 369 0074 A968     		ldr	r1, [r5, #8]
 370 0076 0A40     		ands	r2, r1
 371              		.loc 1 442 8 view .LVU121
 372 0078 182A     		cmp	r2, #24
 373 007a 00D1     		bne	.LCB280
 374 007c A5E0     		b	.L83	@long jump
 375              	.LCB280:
 443:external/drivers/stm32c0xx/src/stm32c0xx_hal_rcc.c ****     {
 444:external/drivers/stm32c0xx/src/stm32c0xx_hal_rcc.c ****       /* When LSI is used as system clock it will not be disabled */
 445:external/drivers/stm32c0xx/src/stm32c0xx_hal_rcc.c ****       if (RCC_OscInitStruct->LSIState == RCC_LSI_OFF)
 446:external/drivers/stm32c0xx/src/stm32c0xx_hal_rcc.c ****       {
 447:external/drivers/stm32c0xx/src/stm32c0xx_hal_rcc.c ****         return HAL_ERROR;
 448:external/drivers/stm32c0xx/src/stm32c0xx_hal_rcc.c ****       }
 449:external/drivers/stm32c0xx/src/stm32c0xx_hal_rcc.c ****     }
 450:external/drivers/stm32c0xx/src/stm32c0xx_hal_rcc.c ****     else
 451:external/drivers/stm32c0xx/src/stm32c0xx_hal_rcc.c ****     {
 452:external/drivers/stm32c0xx/src/stm32c0xx_hal_rcc.c ****       /* Check the LSI State */
 453:external/drivers/stm32c0xx/src/stm32c0xx_hal_rcc.c ****       if (RCC_OscInitStruct->LSIState != RCC_LSI_OFF)
 376              		.loc 1 453 7 is_stmt 1 view .LVU122
 377              		.loc 1 453 10 is_stmt 0 view .LVU123
 378 007e A369     		ldr	r3, [r4, #24]
 379 0080 002B     		cmp	r3, #0
 380 0082 00D1     		bne	.LCB284
ARM GAS  /tmp/ccdF5Ctr.s 			page 16


 381 0084 D0E0     		b	.L38	@long jump
 382              	.LCB284:
 454:external/drivers/stm32c0xx/src/stm32c0xx_hal_rcc.c ****       {
 455:external/drivers/stm32c0xx/src/stm32c0xx_hal_rcc.c ****         /* Enable the Internal Low Speed oscillator (LSI). */
 456:external/drivers/stm32c0xx/src/stm32c0xx_hal_rcc.c ****         __HAL_RCC_LSI_ENABLE();
 383              		.loc 1 456 9 is_stmt 1 view .LVU124
 384 0086 0122     		movs	r2, #1
 385 0088 2B6E     		ldr	r3, [r5, #96]
 457:external/drivers/stm32c0xx/src/stm32c0xx_hal_rcc.c **** 
 458:external/drivers/stm32c0xx/src/stm32c0xx_hal_rcc.c ****         /* Get Start Tick*/
 459:external/drivers/stm32c0xx/src/stm32c0xx_hal_rcc.c ****         tickstart = HAL_GetTick();
 460:external/drivers/stm32c0xx/src/stm32c0xx_hal_rcc.c **** 
 461:external/drivers/stm32c0xx/src/stm32c0xx_hal_rcc.c ****         /* Wait till LSI is ready */
 462:external/drivers/stm32c0xx/src/stm32c0xx_hal_rcc.c ****         while (READ_BIT(RCC->CSR2, RCC_CSR2_LSIRDY) == 0U)
 386              		.loc 1 462 16 is_stmt 0 view .LVU125
 387 008a 0227     		movs	r7, #2
 456:external/drivers/stm32c0xx/src/stm32c0xx_hal_rcc.c **** 
 388              		.loc 1 456 9 view .LVU126
 389 008c 1343     		orrs	r3, r2
 390 008e 2B66     		str	r3, [r5, #96]
 459:external/drivers/stm32c0xx/src/stm32c0xx_hal_rcc.c **** 
 391              		.loc 1 459 9 is_stmt 1 view .LVU127
 459:external/drivers/stm32c0xx/src/stm32c0xx_hal_rcc.c **** 
 392              		.loc 1 459 21 is_stmt 0 view .LVU128
 393 0090 FFF7FEFF 		bl	HAL_GetTick
 394              	.LVL24:
 395 0094 0600     		movs	r6, r0
 396              	.LVL25:
 397              		.loc 1 462 9 is_stmt 1 view .LVU129
 398              		.loc 1 462 15 is_stmt 0 view .LVU130
 399 0096 05E0     		b	.L39
 400              	.LVL26:
 401              	.L40:
 463:external/drivers/stm32c0xx/src/stm32c0xx_hal_rcc.c ****         {
 464:external/drivers/stm32c0xx/src/stm32c0xx_hal_rcc.c ****           if ((HAL_GetTick() - tickstart) > RCC_LSI_TIMEOUT_VALUE)
 402              		.loc 1 464 11 is_stmt 1 view .LVU131
 403              		.loc 1 464 16 is_stmt 0 view .LVU132
 404 0098 FFF7FEFF 		bl	HAL_GetTick
 405              	.LVL27:
 406              		.loc 1 464 30 view .LVU133
 407 009c 801B     		subs	r0, r0, r6
 408              		.loc 1 464 14 view .LVU134
 409 009e 0228     		cmp	r0, #2
 410 00a0 00D9     		bls	.LCB306
 411 00a2 ABE0     		b	.L27	@long jump
 412              	.LCB306:
 413              	.L39:
 462:external/drivers/stm32c0xx/src/stm32c0xx_hal_rcc.c ****         {
 414              		.loc 1 462 53 is_stmt 1 view .LVU135
 462:external/drivers/stm32c0xx/src/stm32c0xx_hal_rcc.c ****         {
 415              		.loc 1 462 16 is_stmt 0 view .LVU136
 416 00a4 2B6E     		ldr	r3, [r5, #96]
 462:external/drivers/stm32c0xx/src/stm32c0xx_hal_rcc.c ****         {
 417              		.loc 1 462 53 view .LVU137
 418 00a6 1F42     		tst	r7, r3
 419 00a8 F6D0     		beq	.L40
 465:external/drivers/stm32c0xx/src/stm32c0xx_hal_rcc.c ****           {
ARM GAS  /tmp/ccdF5Ctr.s 			page 17


 466:external/drivers/stm32c0xx/src/stm32c0xx_hal_rcc.c ****             return HAL_TIMEOUT;
 467:external/drivers/stm32c0xx/src/stm32c0xx_hal_rcc.c ****           }
 468:external/drivers/stm32c0xx/src/stm32c0xx_hal_rcc.c ****         }
 469:external/drivers/stm32c0xx/src/stm32c0xx_hal_rcc.c ****       }
 470:external/drivers/stm32c0xx/src/stm32c0xx_hal_rcc.c ****       else
 471:external/drivers/stm32c0xx/src/stm32c0xx_hal_rcc.c ****       {
 472:external/drivers/stm32c0xx/src/stm32c0xx_hal_rcc.c ****         /* Disable the Internal Low Speed oscillator (LSI). */
 473:external/drivers/stm32c0xx/src/stm32c0xx_hal_rcc.c ****         __HAL_RCC_LSI_DISABLE();
 474:external/drivers/stm32c0xx/src/stm32c0xx_hal_rcc.c **** 
 475:external/drivers/stm32c0xx/src/stm32c0xx_hal_rcc.c ****         /* Get Start Tick*/
 476:external/drivers/stm32c0xx/src/stm32c0xx_hal_rcc.c ****         tickstart = HAL_GetTick();
 477:external/drivers/stm32c0xx/src/stm32c0xx_hal_rcc.c **** 
 478:external/drivers/stm32c0xx/src/stm32c0xx_hal_rcc.c ****         /* Wait till LSI is disabled */
 479:external/drivers/stm32c0xx/src/stm32c0xx_hal_rcc.c ****         while (READ_BIT(RCC->CSR2, RCC_CSR2_LSIRDY) != 0U)
 480:external/drivers/stm32c0xx/src/stm32c0xx_hal_rcc.c ****         {
 481:external/drivers/stm32c0xx/src/stm32c0xx_hal_rcc.c ****           if ((HAL_GetTick() - tickstart) > RCC_LSI_TIMEOUT_VALUE)
 482:external/drivers/stm32c0xx/src/stm32c0xx_hal_rcc.c ****           {
 483:external/drivers/stm32c0xx/src/stm32c0xx_hal_rcc.c ****             return HAL_TIMEOUT;
 484:external/drivers/stm32c0xx/src/stm32c0xx_hal_rcc.c ****           }
 485:external/drivers/stm32c0xx/src/stm32c0xx_hal_rcc.c ****         }
 486:external/drivers/stm32c0xx/src/stm32c0xx_hal_rcc.c ****       }
 487:external/drivers/stm32c0xx/src/stm32c0xx_hal_rcc.c ****     }
 488:external/drivers/stm32c0xx/src/stm32c0xx_hal_rcc.c ****   }
 489:external/drivers/stm32c0xx/src/stm32c0xx_hal_rcc.c ****   /*------------------------------ LSE Configuration -------------------------*/
 490:external/drivers/stm32c0xx/src/stm32c0xx_hal_rcc.c ****   if (((RCC_OscInitStruct->OscillatorType) & RCC_OSCILLATORTYPE_LSE) == RCC_OSCILLATORTYPE_LSE)
 420              		.loc 1 490 26 view .LVU138
 421 00aa 2368     		ldr	r3, [r4]
 422              	.LVL28:
 423              	.L36:
 424              		.loc 1 490 3 is_stmt 1 view .LVU139
 425              		.loc 1 490 44 is_stmt 0 view .LVU140
 426 00ac 0422     		movs	r2, #4
 427              		.loc 1 490 6 view .LVU141
 428 00ae 1A42     		tst	r2, r3
 429 00b0 26D0     		beq	.L51
 430              	.LBB8:
 491:external/drivers/stm32c0xx/src/stm32c0xx_hal_rcc.c ****   {
 492:external/drivers/stm32c0xx/src/stm32c0xx_hal_rcc.c ****     FlagStatus       pwrclkchanged = RESET;
 431              		.loc 1 492 5 is_stmt 1 view .LVU142
 432              	.LVL29:
 493:external/drivers/stm32c0xx/src/stm32c0xx_hal_rcc.c **** 
 494:external/drivers/stm32c0xx/src/stm32c0xx_hal_rcc.c ****     /* Check the parameters */
 495:external/drivers/stm32c0xx/src/stm32c0xx_hal_rcc.c ****     assert_param(IS_RCC_LSE(RCC_OscInitStruct->LSEState));
 433              		.loc 1 495 5 view .LVU143
 496:external/drivers/stm32c0xx/src/stm32c0xx_hal_rcc.c **** 
 497:external/drivers/stm32c0xx/src/stm32c0xx_hal_rcc.c ****     /* When the LSE is used as system clock, it is not allowed disable it */
 498:external/drivers/stm32c0xx/src/stm32c0xx_hal_rcc.c ****     if (__HAL_RCC_GET_SYSCLK_SOURCE() == RCC_CFGR_SWS_LSE)
 434              		.loc 1 498 5 view .LVU144
 435              		.loc 1 498 9 is_stmt 0 view .LVU145
 436 00b2 3823     		movs	r3, #56
 437 00b4 714D     		ldr	r5, .L88
 438 00b6 A968     		ldr	r1, [r5, #8]
 439 00b8 0B40     		ands	r3, r1
 440              		.loc 1 498 8 view .LVU146
 441 00ba 202B     		cmp	r3, #32
 442 00bc 00D1     		bne	.LCB334
 443 00be CFE0     		b	.L84	@long jump
ARM GAS  /tmp/ccdF5Ctr.s 			page 18


 444              	.LCB334:
 499:external/drivers/stm32c0xx/src/stm32c0xx_hal_rcc.c ****     {
 500:external/drivers/stm32c0xx/src/stm32c0xx_hal_rcc.c ****       if (RCC_OscInitStruct->LSEState == RCC_LSE_OFF)
 501:external/drivers/stm32c0xx/src/stm32c0xx_hal_rcc.c ****       {
 502:external/drivers/stm32c0xx/src/stm32c0xx_hal_rcc.c ****         return HAL_ERROR;
 503:external/drivers/stm32c0xx/src/stm32c0xx_hal_rcc.c ****       }
 504:external/drivers/stm32c0xx/src/stm32c0xx_hal_rcc.c ****     }
 505:external/drivers/stm32c0xx/src/stm32c0xx_hal_rcc.c ****     else
 506:external/drivers/stm32c0xx/src/stm32c0xx_hal_rcc.c ****     {
 507:external/drivers/stm32c0xx/src/stm32c0xx_hal_rcc.c ****       /* Update LSE configuration in RTC Domain control register    */
 508:external/drivers/stm32c0xx/src/stm32c0xx_hal_rcc.c ****       /* Set the new LSE configuration -----------------------------------------*/
 509:external/drivers/stm32c0xx/src/stm32c0xx_hal_rcc.c ****       __HAL_RCC_LSE_CONFIG(RCC_OscInitStruct->LSEState);
 445              		.loc 1 509 7 is_stmt 1 view .LVU147
 446              		.loc 1 509 7 view .LVU148
 447 00c0 A368     		ldr	r3, [r4, #8]
 448 00c2 012B     		cmp	r3, #1
 449 00c4 00D1     		bne	.LCB339
 450 00c6 85E0     		b	.L85	@long jump
 451              	.LCB339:
 452              		.loc 1 509 7 discriminator 2 view .LVU149
 453 00c8 052B     		cmp	r3, #5
 454 00ca 00D1     		bne	.LCB342
 455 00cc CDE0     		b	.L86	@long jump
 456              	.LCB342:
 457              		.loc 1 509 7 discriminator 5 view .LVU150
 458 00ce 0120     		movs	r0, #1
 459 00d0 E96D     		ldr	r1, [r5, #92]
 460 00d2 8143     		bics	r1, r0
 461 00d4 E965     		str	r1, [r5, #92]
 462              		.loc 1 509 7 discriminator 5 view .LVU151
 463 00d6 E96D     		ldr	r1, [r5, #92]
 464 00d8 9143     		bics	r1, r2
 465 00da E965     		str	r1, [r5, #92]
 466              		.loc 1 509 7 discriminator 5 view .LVU152
 510:external/drivers/stm32c0xx/src/stm32c0xx_hal_rcc.c **** 
 511:external/drivers/stm32c0xx/src/stm32c0xx_hal_rcc.c ****       /* Check the LSE State */
 512:external/drivers/stm32c0xx/src/stm32c0xx_hal_rcc.c ****       if (RCC_OscInitStruct->LSEState != RCC_LSE_OFF)
 467              		.loc 1 512 7 discriminator 5 view .LVU153
 468              		.loc 1 512 10 is_stmt 0 discriminator 5 view .LVU154
 469 00dc 002B     		cmp	r3, #0
 470 00de 00D0     		beq	.LCB355
 471 00e0 7BE0     		b	.L46	@long jump
 472              	.LCB355:
 513:external/drivers/stm32c0xx/src/stm32c0xx_hal_rcc.c ****       {
 514:external/drivers/stm32c0xx/src/stm32c0xx_hal_rcc.c ****         /* Get Start Tick*/
 515:external/drivers/stm32c0xx/src/stm32c0xx_hal_rcc.c ****         tickstart = HAL_GetTick();
 516:external/drivers/stm32c0xx/src/stm32c0xx_hal_rcc.c **** 
 517:external/drivers/stm32c0xx/src/stm32c0xx_hal_rcc.c ****         /* Wait till LSE is ready */
 518:external/drivers/stm32c0xx/src/stm32c0xx_hal_rcc.c ****         while (READ_BIT(RCC->CSR1, RCC_CSR1_LSERDY) == 0U)
 519:external/drivers/stm32c0xx/src/stm32c0xx_hal_rcc.c ****         {
 520:external/drivers/stm32c0xx/src/stm32c0xx_hal_rcc.c ****           if ((HAL_GetTick() - tickstart) > RCC_LSE_TIMEOUT_VALUE)
 521:external/drivers/stm32c0xx/src/stm32c0xx_hal_rcc.c ****           {
 522:external/drivers/stm32c0xx/src/stm32c0xx_hal_rcc.c ****             return HAL_TIMEOUT;
 523:external/drivers/stm32c0xx/src/stm32c0xx_hal_rcc.c ****           }
 524:external/drivers/stm32c0xx/src/stm32c0xx_hal_rcc.c ****         }
 525:external/drivers/stm32c0xx/src/stm32c0xx_hal_rcc.c ****       }
 526:external/drivers/stm32c0xx/src/stm32c0xx_hal_rcc.c ****       else
ARM GAS  /tmp/ccdF5Ctr.s 			page 19


 527:external/drivers/stm32c0xx/src/stm32c0xx_hal_rcc.c ****       {
 528:external/drivers/stm32c0xx/src/stm32c0xx_hal_rcc.c ****         /* Get Start Tick*/
 529:external/drivers/stm32c0xx/src/stm32c0xx_hal_rcc.c ****         tickstart = HAL_GetTick();
 473              		.loc 1 529 9 is_stmt 1 view .LVU155
 474              		.loc 1 529 21 is_stmt 0 view .LVU156
 475 00e2 FFF7FEFF 		bl	HAL_GetTick
 476              	.LVL30:
 530:external/drivers/stm32c0xx/src/stm32c0xx_hal_rcc.c **** 
 531:external/drivers/stm32c0xx/src/stm32c0xx_hal_rcc.c ****         /* Wait till LSE is disabled */
 532:external/drivers/stm32c0xx/src/stm32c0xx_hal_rcc.c ****         while (READ_BIT(RCC->CSR1, RCC_CSR1_LSERDY) != 0U)
 477              		.loc 1 532 16 view .LVU157
 478 00e6 0226     		movs	r6, #2
 529:external/drivers/stm32c0xx/src/stm32c0xx_hal_rcc.c **** 
 479              		.loc 1 529 21 view .LVU158
 480 00e8 0400     		movs	r4, r0
 481              	.LVL31:
 482              		.loc 1 532 9 is_stmt 1 view .LVU159
 533:external/drivers/stm32c0xx/src/stm32c0xx_hal_rcc.c ****         {
 534:external/drivers/stm32c0xx/src/stm32c0xx_hal_rcc.c ****           if ((HAL_GetTick() - tickstart) > RCC_LSE_TIMEOUT_VALUE)
 483              		.loc 1 534 14 is_stmt 0 view .LVU160
 484 00ea 674F     		ldr	r7, .L88+12
 532:external/drivers/stm32c0xx/src/stm32c0xx_hal_rcc.c ****         {
 485              		.loc 1 532 15 view .LVU161
 486 00ec 05E0     		b	.L52
 487              	.LVL32:
 488              	.L53:
 489              		.loc 1 534 11 is_stmt 1 view .LVU162
 490              		.loc 1 534 16 is_stmt 0 view .LVU163
 491 00ee FFF7FEFF 		bl	HAL_GetTick
 492              	.LVL33:
 493              		.loc 1 534 30 view .LVU164
 494 00f2 001B     		subs	r0, r0, r4
 495              		.loc 1 534 14 view .LVU165
 496 00f4 B842     		cmp	r0, r7
 497 00f6 00D9     		bls	.LCB374
 498 00f8 80E0     		b	.L27	@long jump
 499              	.LCB374:
 500              	.L52:
 532:external/drivers/stm32c0xx/src/stm32c0xx_hal_rcc.c ****         {
 501              		.loc 1 532 53 is_stmt 1 view .LVU166
 532:external/drivers/stm32c0xx/src/stm32c0xx_hal_rcc.c ****         {
 502              		.loc 1 532 16 is_stmt 0 view .LVU167
 503 00fa EB6D     		ldr	r3, [r5, #92]
 532:external/drivers/stm32c0xx/src/stm32c0xx_hal_rcc.c ****         {
 504              		.loc 1 532 53 view .LVU168
 505 00fc 1E42     		tst	r6, r3
 506 00fe F6D1     		bne	.L53
 507              	.LVL34:
 508              	.L51:
 532:external/drivers/stm32c0xx/src/stm32c0xx_hal_rcc.c ****         {
 509              		.loc 1 532 53 view .LVU169
 510              	.LBE8:
 535:external/drivers/stm32c0xx/src/stm32c0xx_hal_rcc.c ****           {
 536:external/drivers/stm32c0xx/src/stm32c0xx_hal_rcc.c ****             return HAL_TIMEOUT;
 537:external/drivers/stm32c0xx/src/stm32c0xx_hal_rcc.c ****           }
 538:external/drivers/stm32c0xx/src/stm32c0xx_hal_rcc.c ****         }
 539:external/drivers/stm32c0xx/src/stm32c0xx_hal_rcc.c ****       }
ARM GAS  /tmp/ccdF5Ctr.s 			page 20


 540:external/drivers/stm32c0xx/src/stm32c0xx_hal_rcc.c **** 
 541:external/drivers/stm32c0xx/src/stm32c0xx_hal_rcc.c ****       /* Restore clock configuration if changed */
 542:external/drivers/stm32c0xx/src/stm32c0xx_hal_rcc.c ****       if (pwrclkchanged == SET)
 543:external/drivers/stm32c0xx/src/stm32c0xx_hal_rcc.c ****       {
 544:external/drivers/stm32c0xx/src/stm32c0xx_hal_rcc.c ****         __HAL_RCC_PWR_CLK_DISABLE();
 545:external/drivers/stm32c0xx/src/stm32c0xx_hal_rcc.c ****       }
 546:external/drivers/stm32c0xx/src/stm32c0xx_hal_rcc.c ****     }
 547:external/drivers/stm32c0xx/src/stm32c0xx_hal_rcc.c ****   }
 548:external/drivers/stm32c0xx/src/stm32c0xx_hal_rcc.c ****   return HAL_OK;
 511              		.loc 1 548 10 view .LVU170
 512 0100 0020     		movs	r0, #0
 513 0102 2EE0     		b	.L16
 514              	.LVL35:
 515              	.L82:
 354:external/drivers/stm32c0xx/src/stm32c0xx_hal_rcc.c ****     assert_param(IS_RCC_HSI_CALIBRATION_VALUE(RCC_OscInitStruct->HSICalibrationValue));
 516              		.loc 1 354 5 is_stmt 1 view .LVU171
 355:external/drivers/stm32c0xx/src/stm32c0xx_hal_rcc.c ****     assert_param(IS_RCC_HSIDIV(RCC_OscInitStruct->HSIDiv));
 517              		.loc 1 355 5 view .LVU172
 356:external/drivers/stm32c0xx/src/stm32c0xx_hal_rcc.c **** 
 518              		.loc 1 356 5 view .LVU173
 359:external/drivers/stm32c0xx/src/stm32c0xx_hal_rcc.c **** 
 519              		.loc 1 359 5 view .LVU174
 359:external/drivers/stm32c0xx/src/stm32c0xx_hal_rcc.c **** 
 520              		.loc 1 359 20 is_stmt 0 view .LVU175
 521 0104 3822     		movs	r2, #56
 359:external/drivers/stm32c0xx/src/stm32c0xx_hal_rcc.c **** 
 522              		.loc 1 359 22 view .LVU176
 523 0106 5D4D     		ldr	r5, .L88
 524 0108 AB68     		ldr	r3, [r5, #8]
 525              	.LVL36:
 361:external/drivers/stm32c0xx/src/stm32c0xx_hal_rcc.c ****     {
 526              		.loc 1 361 5 is_stmt 1 view .LVU177
 361:external/drivers/stm32c0xx/src/stm32c0xx_hal_rcc.c ****     {
 527              		.loc 1 361 8 is_stmt 0 view .LVU178
 528 010a 1A42     		tst	r2, r3
 529 010c 2AD0     		beq	.L87
 393:external/drivers/stm32c0xx/src/stm32c0xx_hal_rcc.c ****       {
 530              		.loc 1 393 7 is_stmt 1 view .LVU179
 393:external/drivers/stm32c0xx/src/stm32c0xx_hal_rcc.c ****       {
 531              		.loc 1 393 10 is_stmt 0 view .LVU180
 532 010e E368     		ldr	r3, [r4, #12]
 533              	.LVL37:
 393:external/drivers/stm32c0xx/src/stm32c0xx_hal_rcc.c ****       {
 534              		.loc 1 393 10 view .LVU181
 535 0110 002B     		cmp	r3, #0
 536 0112 00D1     		bne	.LCB409
 537 0114 74E0     		b	.L31	@long jump
 538              	.LCB409:
 396:external/drivers/stm32c0xx/src/stm32c0xx_hal_rcc.c **** 
 539              		.loc 1 396 9 is_stmt 1 view .LVU182
 540 0116 2B68     		ldr	r3, [r5]
 541 0118 5C4A     		ldr	r2, .L88+16
 405:external/drivers/stm32c0xx/src/stm32c0xx_hal_rcc.c ****         {
 542              		.loc 1 405 16 is_stmt 0 view .LVU183
 543 011a 8027     		movs	r7, #128
 396:external/drivers/stm32c0xx/src/stm32c0xx_hal_rcc.c **** 
 544              		.loc 1 396 9 view .LVU184
ARM GAS  /tmp/ccdF5Ctr.s 			page 21


 545 011c 1340     		ands	r3, r2
 546 011e 2269     		ldr	r2, [r4, #16]
 405:external/drivers/stm32c0xx/src/stm32c0xx_hal_rcc.c ****         {
 547              		.loc 1 405 16 view .LVU185
 548 0120 FF00     		lsls	r7, r7, #3
 396:external/drivers/stm32c0xx/src/stm32c0xx_hal_rcc.c **** 
 549              		.loc 1 396 9 view .LVU186
 550 0122 1343     		orrs	r3, r2
 551 0124 2B60     		str	r3, [r5]
 399:external/drivers/stm32c0xx/src/stm32c0xx_hal_rcc.c **** 
 552              		.loc 1 399 9 is_stmt 1 view .LVU187
 553 0126 8023     		movs	r3, #128
 554 0128 2A68     		ldr	r2, [r5]
 555 012a 5B00     		lsls	r3, r3, #1
 556 012c 1343     		orrs	r3, r2
 557 012e 2B60     		str	r3, [r5]
 402:external/drivers/stm32c0xx/src/stm32c0xx_hal_rcc.c **** 
 558              		.loc 1 402 9 view .LVU188
 402:external/drivers/stm32c0xx/src/stm32c0xx_hal_rcc.c **** 
 559              		.loc 1 402 21 is_stmt 0 view .LVU189
 560 0130 FFF7FEFF 		bl	HAL_GetTick
 561              	.LVL38:
 562 0134 0600     		movs	r6, r0
 563              	.LVL39:
 405:external/drivers/stm32c0xx/src/stm32c0xx_hal_rcc.c ****         {
 564              		.loc 1 405 9 is_stmt 1 view .LVU190
 405:external/drivers/stm32c0xx/src/stm32c0xx_hal_rcc.c ****         {
 565              		.loc 1 405 15 is_stmt 0 view .LVU191
 566 0136 04E0     		b	.L32
 567              	.LVL40:
 568              	.L33:
 407:external/drivers/stm32c0xx/src/stm32c0xx_hal_rcc.c ****           {
 569              		.loc 1 407 11 is_stmt 1 view .LVU192
 407:external/drivers/stm32c0xx/src/stm32c0xx_hal_rcc.c ****           {
 570              		.loc 1 407 16 is_stmt 0 view .LVU193
 571 0138 FFF7FEFF 		bl	HAL_GetTick
 572              	.LVL41:
 407:external/drivers/stm32c0xx/src/stm32c0xx_hal_rcc.c ****           {
 573              		.loc 1 407 30 view .LVU194
 574 013c 801B     		subs	r0, r0, r6
 407:external/drivers/stm32c0xx/src/stm32c0xx_hal_rcc.c ****           {
 575              		.loc 1 407 14 view .LVU195
 576 013e 0228     		cmp	r0, #2
 577 0140 5CD8     		bhi	.L27
 578              	.L32:
 405:external/drivers/stm32c0xx/src/stm32c0xx_hal_rcc.c ****         {
 579              		.loc 1 405 49 is_stmt 1 view .LVU196
 405:external/drivers/stm32c0xx/src/stm32c0xx_hal_rcc.c ****         {
 580              		.loc 1 405 16 is_stmt 0 view .LVU197
 581 0142 2B68     		ldr	r3, [r5]
 405:external/drivers/stm32c0xx/src/stm32c0xx_hal_rcc.c ****         {
 582              		.loc 1 405 49 view .LVU198
 583 0144 3B42     		tst	r3, r7
 584 0146 F7D0     		beq	.L33
 414:external/drivers/stm32c0xx/src/stm32c0xx_hal_rcc.c ****       }
 585              		.loc 1 414 9 is_stmt 1 view .LVU199
 586 0148 6A68     		ldr	r2, [r5, #4]
ARM GAS  /tmp/ccdF5Ctr.s 			page 22


 587 014a 6369     		ldr	r3, [r4, #20]
 588 014c 5049     		ldr	r1, .L88+20
 589 014e 1B02     		lsls	r3, r3, #8
 590 0150 0A40     		ands	r2, r1
 591 0152 1343     		orrs	r3, r2
 592 0154 6B60     		str	r3, [r5, #4]
 436:external/drivers/stm32c0xx/src/stm32c0xx_hal_rcc.c ****   {
 593              		.loc 1 436 26 is_stmt 0 view .LVU200
 594 0156 2368     		ldr	r3, [r4]
 595 0158 88E7     		b	.L29
 596              	.LVL42:
 597              	.L79:
 309:external/drivers/stm32c0xx/src/stm32c0xx_hal_rcc.c ****       {
 598              		.loc 1 309 7 is_stmt 1 view .LVU201
 309:external/drivers/stm32c0xx/src/stm32c0xx_hal_rcc.c ****       {
 599              		.loc 1 309 10 is_stmt 0 view .LVU202
 600 015a 4268     		ldr	r2, [r0, #4]
 601              	.LVL43:
 309:external/drivers/stm32c0xx/src/stm32c0xx_hal_rcc.c ****       {
 602              		.loc 1 309 10 view .LVU203
 603 015c 002A     		cmp	r2, #0
 604 015e 83D1     		bne	.L17
 605              	.LVL44:
 606              	.L19:
 292:external/drivers/stm32c0xx/src/stm32c0xx_hal_rcc.c ****   }
 607              		.loc 1 292 12 view .LVU204
 608 0160 0120     		movs	r0, #1
 609              	.LVL45:
 610              	.L16:
 549:external/drivers/stm32c0xx/src/stm32c0xx_hal_rcc.c **** }
 611              		.loc 1 549 1 view .LVU205
 612              		@ sp needed
 613 0162 F8BD     		pop	{r3, r4, r5, r6, r7, pc}
 614              	.LVL46:
 615              	.L87:
 364:external/drivers/stm32c0xx/src/stm32c0xx_hal_rcc.c ****       {
 616              		.loc 1 364 7 is_stmt 1 view .LVU206
 364:external/drivers/stm32c0xx/src/stm32c0xx_hal_rcc.c ****       {
 617              		.loc 1 364 10 is_stmt 0 view .LVU207
 618 0164 E368     		ldr	r3, [r4, #12]
 619              	.LVL47:
 364:external/drivers/stm32c0xx/src/stm32c0xx_hal_rcc.c ****       {
 620              		.loc 1 364 10 view .LVU208
 621 0166 002B     		cmp	r3, #0
 622 0168 FAD0     		beq	.L19
 372:external/drivers/stm32c0xx/src/stm32c0xx_hal_rcc.c **** 
 623              		.loc 1 372 9 is_stmt 1 view .LVU209
 624 016a 6A68     		ldr	r2, [r5, #4]
 625 016c 6369     		ldr	r3, [r4, #20]
 626 016e 4849     		ldr	r1, .L88+20
 627 0170 1B02     		lsls	r3, r3, #8
 628 0172 0A40     		ands	r2, r1
 629 0174 1343     		orrs	r3, r2
 630 0176 6B60     		str	r3, [r5, #4]
 374:external/drivers/stm32c0xx/src/stm32c0xx_hal_rcc.c ****         {
 631              		.loc 1 374 9 view .LVU210
 377:external/drivers/stm32c0xx/src/stm32c0xx_hal_rcc.c **** 
ARM GAS  /tmp/ccdF5Ctr.s 			page 23


 632              		.loc 1 377 11 view .LVU211
 633 0178 2B68     		ldr	r3, [r5]
 634 017a 444A     		ldr	r2, .L88+16
 380:external/drivers/stm32c0xx/src/stm32c0xx_hal_rcc.c ****         }
 635              		.loc 1 380 27 is_stmt 0 view .LVU212
 636 017c 4549     		ldr	r1, .L88+24
 377:external/drivers/stm32c0xx/src/stm32c0xx_hal_rcc.c **** 
 637              		.loc 1 377 11 view .LVU213
 638 017e 1340     		ands	r3, r2
 639 0180 2269     		ldr	r2, [r4, #16]
 640 0182 1343     		orrs	r3, r2
 641 0184 2B60     		str	r3, [r5]
 380:external/drivers/stm32c0xx/src/stm32c0xx_hal_rcc.c ****         }
 642              		.loc 1 380 11 is_stmt 1 view .LVU214
 380:external/drivers/stm32c0xx/src/stm32c0xx_hal_rcc.c ****         }
 643              		.loc 1 380 52 is_stmt 0 view .LVU215
 644 0186 2B68     		ldr	r3, [r5]
 380:external/drivers/stm32c0xx/src/stm32c0xx_hal_rcc.c ****         }
 645              		.loc 1 380 40 view .LVU216
 646 0188 434A     		ldr	r2, .L88+28
 380:external/drivers/stm32c0xx/src/stm32c0xx_hal_rcc.c ****         }
 647              		.loc 1 380 86 view .LVU217
 648 018a 9B04     		lsls	r3, r3, #18
 649 018c 5B0F     		lsrs	r3, r3, #29
 380:external/drivers/stm32c0xx/src/stm32c0xx_hal_rcc.c ****         }
 650              		.loc 1 380 40 view .LVU218
 651 018e DA40     		lsrs	r2, r2, r3
 384:external/drivers/stm32c0xx/src/stm32c0xx_hal_rcc.c ****         {
 652              		.loc 1 384 13 view .LVU219
 653 0190 424B     		ldr	r3, .L88+32
 380:external/drivers/stm32c0xx/src/stm32c0xx_hal_rcc.c ****         }
 654              		.loc 1 380 27 view .LVU220
 655 0192 0A60     		str	r2, [r1]
 384:external/drivers/stm32c0xx/src/stm32c0xx_hal_rcc.c ****         {
 656              		.loc 1 384 9 is_stmt 1 view .LVU221
 384:external/drivers/stm32c0xx/src/stm32c0xx_hal_rcc.c ****         {
 657              		.loc 1 384 13 is_stmt 0 view .LVU222
 658 0194 1868     		ldr	r0, [r3]
 659 0196 FFF7FEFF 		bl	HAL_InitTick
 660              	.LVL48:
 384:external/drivers/stm32c0xx/src/stm32c0xx_hal_rcc.c ****         {
 661              		.loc 1 384 12 view .LVU223
 662 019a 0028     		cmp	r0, #0
 663 019c E0D1     		bne	.L19
 436:external/drivers/stm32c0xx/src/stm32c0xx_hal_rcc.c ****   {
 664              		.loc 1 436 26 view .LVU224
 665 019e 2368     		ldr	r3, [r4]
 666 01a0 64E7     		b	.L29
 667              	.LVL49:
 668              	.L80:
 317:external/drivers/stm32c0xx/src/stm32c0xx_hal_rcc.c **** 
 669              		.loc 1 317 7 is_stmt 1 discriminator 1 view .LVU225
 670 01a2 2A68     		ldr	r2, [r5]
 671 01a4 1343     		orrs	r3, r2
 672 01a6 2B60     		str	r3, [r5]
 317:external/drivers/stm32c0xx/src/stm32c0xx_hal_rcc.c **** 
 673              		.loc 1 317 7 discriminator 1 view .LVU226
ARM GAS  /tmp/ccdF5Ctr.s 			page 24


 320:external/drivers/stm32c0xx/src/stm32c0xx_hal_rcc.c ****       {
 674              		.loc 1 320 7 discriminator 1 view .LVU227
 675              	.LVL50:
 676              	.L21:
 323:external/drivers/stm32c0xx/src/stm32c0xx_hal_rcc.c **** 
 677              		.loc 1 323 9 view .LVU228
 323:external/drivers/stm32c0xx/src/stm32c0xx_hal_rcc.c **** 
 678              		.loc 1 323 21 is_stmt 0 view .LVU229
 679 01a8 FFF7FEFF 		bl	HAL_GetTick
 680              	.LVL51:
 326:external/drivers/stm32c0xx/src/stm32c0xx_hal_rcc.c ****         {
 681              		.loc 1 326 16 view .LVU230
 682 01ac 8026     		movs	r6, #128
 323:external/drivers/stm32c0xx/src/stm32c0xx_hal_rcc.c **** 
 683              		.loc 1 323 21 view .LVU231
 684 01ae 0500     		movs	r5, r0
 685              	.LVL52:
 326:external/drivers/stm32c0xx/src/stm32c0xx_hal_rcc.c ****         {
 686              		.loc 1 326 9 is_stmt 1 view .LVU232
 326:external/drivers/stm32c0xx/src/stm32c0xx_hal_rcc.c ****         {
 687              		.loc 1 326 16 is_stmt 0 view .LVU233
 688 01b0 324F     		ldr	r7, .L88
 689 01b2 B602     		lsls	r6, r6, #10
 326:external/drivers/stm32c0xx/src/stm32c0xx_hal_rcc.c ****         {
 690              		.loc 1 326 15 view .LVU234
 691 01b4 04E0     		b	.L24
 692              	.LVL53:
 693              	.L25:
 328:external/drivers/stm32c0xx/src/stm32c0xx_hal_rcc.c ****           {
 694              		.loc 1 328 11 is_stmt 1 view .LVU235
 328:external/drivers/stm32c0xx/src/stm32c0xx_hal_rcc.c ****           {
 695              		.loc 1 328 16 is_stmt 0 view .LVU236
 696 01b6 FFF7FEFF 		bl	HAL_GetTick
 697              	.LVL54:
 328:external/drivers/stm32c0xx/src/stm32c0xx_hal_rcc.c ****           {
 698              		.loc 1 328 30 view .LVU237
 699 01ba 401B     		subs	r0, r0, r5
 328:external/drivers/stm32c0xx/src/stm32c0xx_hal_rcc.c ****           {
 700              		.loc 1 328 14 view .LVU238
 701 01bc 6428     		cmp	r0, #100
 702 01be 1DD8     		bhi	.L27
 703              	.L24:
 326:external/drivers/stm32c0xx/src/stm32c0xx_hal_rcc.c ****         {
 704              		.loc 1 326 49 is_stmt 1 view .LVU239
 326:external/drivers/stm32c0xx/src/stm32c0xx_hal_rcc.c ****         {
 705              		.loc 1 326 16 is_stmt 0 view .LVU240
 706 01c0 3B68     		ldr	r3, [r7]
 326:external/drivers/stm32c0xx/src/stm32c0xx_hal_rcc.c ****         {
 707              		.loc 1 326 49 view .LVU241
 708 01c2 3342     		tst	r3, r6
 709 01c4 F7D0     		beq	.L25
 351:external/drivers/stm32c0xx/src/stm32c0xx_hal_rcc.c ****   {
 710              		.loc 1 351 26 view .LVU242
 711 01c6 2368     		ldr	r3, [r4]
 712 01c8 4EE7     		b	.L17
 713              	.LVL55:
 714              	.L83:
ARM GAS  /tmp/ccdF5Ctr.s 			page 25


 445:external/drivers/stm32c0xx/src/stm32c0xx_hal_rcc.c ****       {
 715              		.loc 1 445 7 is_stmt 1 view .LVU243
 445:external/drivers/stm32c0xx/src/stm32c0xx_hal_rcc.c ****       {
 716              		.loc 1 445 10 is_stmt 0 view .LVU244
 717 01ca A269     		ldr	r2, [r4, #24]
 718 01cc 002A     		cmp	r2, #0
 719 01ce 00D0     		beq	.LCB580
 720 01d0 6CE7     		b	.L36	@long jump
 721              	.LCB580:
 722 01d2 C5E7     		b	.L19
 723              	.LVL56:
 724              	.L85:
 725              	.LBB9:
 509:external/drivers/stm32c0xx/src/stm32c0xx_hal_rcc.c **** 
 726              		.loc 1 509 7 is_stmt 1 discriminator 1 view .LVU245
 727 01d4 EA6D     		ldr	r2, [r5, #92]
 728 01d6 1343     		orrs	r3, r2
 729 01d8 EB65     		str	r3, [r5, #92]
 509:external/drivers/stm32c0xx/src/stm32c0xx_hal_rcc.c **** 
 730              		.loc 1 509 7 discriminator 1 view .LVU246
 512:external/drivers/stm32c0xx/src/stm32c0xx_hal_rcc.c ****       {
 731              		.loc 1 512 7 discriminator 1 view .LVU247
 732              	.L46:
 515:external/drivers/stm32c0xx/src/stm32c0xx_hal_rcc.c **** 
 733              		.loc 1 515 9 view .LVU248
 515:external/drivers/stm32c0xx/src/stm32c0xx_hal_rcc.c **** 
 734              		.loc 1 515 21 is_stmt 0 view .LVU249
 735 01da FFF7FEFF 		bl	HAL_GetTick
 736              	.LVL57:
 518:external/drivers/stm32c0xx/src/stm32c0xx_hal_rcc.c ****         {
 737              		.loc 1 518 16 view .LVU250
 738 01de 0225     		movs	r5, #2
 515:external/drivers/stm32c0xx/src/stm32c0xx_hal_rcc.c **** 
 739              		.loc 1 515 21 view .LVU251
 740 01e0 0400     		movs	r4, r0
 741              	.LVL58:
 518:external/drivers/stm32c0xx/src/stm32c0xx_hal_rcc.c ****         {
 742              		.loc 1 518 9 is_stmt 1 view .LVU252
 518:external/drivers/stm32c0xx/src/stm32c0xx_hal_rcc.c ****         {
 743              		.loc 1 518 16 is_stmt 0 view .LVU253
 744 01e2 264E     		ldr	r6, .L88
 520:external/drivers/stm32c0xx/src/stm32c0xx_hal_rcc.c ****           {
 745              		.loc 1 520 14 view .LVU254
 746 01e4 284F     		ldr	r7, .L88+12
 518:external/drivers/stm32c0xx/src/stm32c0xx_hal_rcc.c ****         {
 747              		.loc 1 518 15 view .LVU255
 748 01e6 04E0     		b	.L49
 749              	.LVL59:
 750              	.L50:
 520:external/drivers/stm32c0xx/src/stm32c0xx_hal_rcc.c ****           {
 751              		.loc 1 520 11 is_stmt 1 view .LVU256
 520:external/drivers/stm32c0xx/src/stm32c0xx_hal_rcc.c ****           {
 752              		.loc 1 520 16 is_stmt 0 view .LVU257
 753 01e8 FFF7FEFF 		bl	HAL_GetTick
 754              	.LVL60:
 520:external/drivers/stm32c0xx/src/stm32c0xx_hal_rcc.c ****           {
 755              		.loc 1 520 30 view .LVU258
ARM GAS  /tmp/ccdF5Ctr.s 			page 26


 756 01ec 001B     		subs	r0, r0, r4
 520:external/drivers/stm32c0xx/src/stm32c0xx_hal_rcc.c ****           {
 757              		.loc 1 520 14 view .LVU259
 758 01ee B842     		cmp	r0, r7
 759 01f0 04D8     		bhi	.L27
 760              	.L49:
 518:external/drivers/stm32c0xx/src/stm32c0xx_hal_rcc.c ****         {
 761              		.loc 1 518 53 is_stmt 1 view .LVU260
 518:external/drivers/stm32c0xx/src/stm32c0xx_hal_rcc.c ****         {
 762              		.loc 1 518 16 is_stmt 0 view .LVU261
 763 01f2 F36D     		ldr	r3, [r6, #92]
 518:external/drivers/stm32c0xx/src/stm32c0xx_hal_rcc.c ****         {
 764              		.loc 1 518 53 view .LVU262
 765 01f4 1D42     		tst	r5, r3
 766 01f6 F7D0     		beq	.L50
 767              	.LBE9:
 548:external/drivers/stm32c0xx/src/stm32c0xx_hal_rcc.c **** }
 768              		.loc 1 548 10 view .LVU263
 769 01f8 0020     		movs	r0, #0
 770 01fa B2E7     		b	.L16
 771              	.LVL61:
 772              	.L27:
 330:external/drivers/stm32c0xx/src/stm32c0xx_hal_rcc.c ****           }
 773              		.loc 1 330 20 view .LVU264
 774 01fc 0320     		movs	r0, #3
 775 01fe B0E7     		b	.L16
 776              	.LVL62:
 777              	.L31:
 419:external/drivers/stm32c0xx/src/stm32c0xx_hal_rcc.c **** 
 778              		.loc 1 419 9 is_stmt 1 view .LVU265
 779 0200 2B68     		ldr	r3, [r5]
 780 0202 274A     		ldr	r2, .L88+36
 425:external/drivers/stm32c0xx/src/stm32c0xx_hal_rcc.c ****         {
 781              		.loc 1 425 16 is_stmt 0 view .LVU266
 782 0204 8027     		movs	r7, #128
 419:external/drivers/stm32c0xx/src/stm32c0xx_hal_rcc.c **** 
 783              		.loc 1 419 9 view .LVU267
 784 0206 1340     		ands	r3, r2
 785 0208 2B60     		str	r3, [r5]
 422:external/drivers/stm32c0xx/src/stm32c0xx_hal_rcc.c **** 
 786              		.loc 1 422 9 is_stmt 1 view .LVU268
 422:external/drivers/stm32c0xx/src/stm32c0xx_hal_rcc.c **** 
 787              		.loc 1 422 21 is_stmt 0 view .LVU269
 788 020a FFF7FEFF 		bl	HAL_GetTick
 789              	.LVL63:
 425:external/drivers/stm32c0xx/src/stm32c0xx_hal_rcc.c ****         {
 790              		.loc 1 425 16 view .LVU270
 791 020e FF00     		lsls	r7, r7, #3
 422:external/drivers/stm32c0xx/src/stm32c0xx_hal_rcc.c **** 
 792              		.loc 1 422 21 view .LVU271
 793 0210 0600     		movs	r6, r0
 794              	.LVL64:
 425:external/drivers/stm32c0xx/src/stm32c0xx_hal_rcc.c ****         {
 795              		.loc 1 425 9 is_stmt 1 view .LVU272
 425:external/drivers/stm32c0xx/src/stm32c0xx_hal_rcc.c ****         {
 796              		.loc 1 425 15 is_stmt 0 view .LVU273
 797 0212 04E0     		b	.L34
ARM GAS  /tmp/ccdF5Ctr.s 			page 27


 798              	.LVL65:
 799              	.L35:
 427:external/drivers/stm32c0xx/src/stm32c0xx_hal_rcc.c ****           {
 800              		.loc 1 427 11 is_stmt 1 view .LVU274
 427:external/drivers/stm32c0xx/src/stm32c0xx_hal_rcc.c ****           {
 801              		.loc 1 427 16 is_stmt 0 view .LVU275
 802 0214 FFF7FEFF 		bl	HAL_GetTick
 803              	.LVL66:
 427:external/drivers/stm32c0xx/src/stm32c0xx_hal_rcc.c ****           {
 804              		.loc 1 427 30 view .LVU276
 805 0218 801B     		subs	r0, r0, r6
 427:external/drivers/stm32c0xx/src/stm32c0xx_hal_rcc.c ****           {
 806              		.loc 1 427 14 view .LVU277
 807 021a 0228     		cmp	r0, #2
 808 021c EED8     		bhi	.L27
 809              	.L34:
 425:external/drivers/stm32c0xx/src/stm32c0xx_hal_rcc.c ****         {
 810              		.loc 1 425 49 is_stmt 1 view .LVU278
 425:external/drivers/stm32c0xx/src/stm32c0xx_hal_rcc.c ****         {
 811              		.loc 1 425 16 is_stmt 0 view .LVU279
 812 021e 2B68     		ldr	r3, [r5]
 425:external/drivers/stm32c0xx/src/stm32c0xx_hal_rcc.c ****         {
 813              		.loc 1 425 49 view .LVU280
 814 0220 3B42     		tst	r3, r7
 815 0222 F7D1     		bne	.L35
 436:external/drivers/stm32c0xx/src/stm32c0xx_hal_rcc.c ****   {
 816              		.loc 1 436 26 view .LVU281
 817 0224 2368     		ldr	r3, [r4]
 818 0226 21E7     		b	.L29
 819              	.LVL67:
 820              	.L38:
 473:external/drivers/stm32c0xx/src/stm32c0xx_hal_rcc.c **** 
 821              		.loc 1 473 9 is_stmt 1 view .LVU282
 822 0228 0122     		movs	r2, #1
 823 022a 2B6E     		ldr	r3, [r5, #96]
 479:external/drivers/stm32c0xx/src/stm32c0xx_hal_rcc.c ****         {
 824              		.loc 1 479 16 is_stmt 0 view .LVU283
 825 022c 0227     		movs	r7, #2
 473:external/drivers/stm32c0xx/src/stm32c0xx_hal_rcc.c **** 
 826              		.loc 1 473 9 view .LVU284
 827 022e 9343     		bics	r3, r2
 828 0230 2B66     		str	r3, [r5, #96]
 476:external/drivers/stm32c0xx/src/stm32c0xx_hal_rcc.c **** 
 829              		.loc 1 476 9 is_stmt 1 view .LVU285
 476:external/drivers/stm32c0xx/src/stm32c0xx_hal_rcc.c **** 
 830              		.loc 1 476 21 is_stmt 0 view .LVU286
 831 0232 FFF7FEFF 		bl	HAL_GetTick
 832              	.LVL68:
 833 0236 0600     		movs	r6, r0
 834              	.LVL69:
 479:external/drivers/stm32c0xx/src/stm32c0xx_hal_rcc.c ****         {
 835              		.loc 1 479 9 is_stmt 1 view .LVU287
 479:external/drivers/stm32c0xx/src/stm32c0xx_hal_rcc.c ****         {
 836              		.loc 1 479 15 is_stmt 0 view .LVU288
 837 0238 04E0     		b	.L41
 838              	.LVL70:
 839              	.L42:
ARM GAS  /tmp/ccdF5Ctr.s 			page 28


 481:external/drivers/stm32c0xx/src/stm32c0xx_hal_rcc.c ****           {
 840              		.loc 1 481 11 is_stmt 1 view .LVU289
 481:external/drivers/stm32c0xx/src/stm32c0xx_hal_rcc.c ****           {
 841              		.loc 1 481 16 is_stmt 0 view .LVU290
 842 023a FFF7FEFF 		bl	HAL_GetTick
 843              	.LVL71:
 481:external/drivers/stm32c0xx/src/stm32c0xx_hal_rcc.c ****           {
 844              		.loc 1 481 30 view .LVU291
 845 023e 801B     		subs	r0, r0, r6
 481:external/drivers/stm32c0xx/src/stm32c0xx_hal_rcc.c ****           {
 846              		.loc 1 481 14 view .LVU292
 847 0240 0228     		cmp	r0, #2
 848 0242 DBD8     		bhi	.L27
 849              	.L41:
 479:external/drivers/stm32c0xx/src/stm32c0xx_hal_rcc.c ****         {
 850              		.loc 1 479 53 is_stmt 1 view .LVU293
 479:external/drivers/stm32c0xx/src/stm32c0xx_hal_rcc.c ****         {
 851              		.loc 1 479 16 is_stmt 0 view .LVU294
 852 0244 2B6E     		ldr	r3, [r5, #96]
 479:external/drivers/stm32c0xx/src/stm32c0xx_hal_rcc.c ****         {
 853              		.loc 1 479 53 view .LVU295
 854 0246 1F42     		tst	r7, r3
 855 0248 F7D1     		bne	.L42
 490:external/drivers/stm32c0xx/src/stm32c0xx_hal_rcc.c ****   {
 856              		.loc 1 490 26 view .LVU296
 857 024a 2368     		ldr	r3, [r4]
 858 024c 2EE7     		b	.L36
 859              	.LVL72:
 860              	.L81:
 317:external/drivers/stm32c0xx/src/stm32c0xx_hal_rcc.c **** 
 861              		.loc 1 317 7 is_stmt 1 discriminator 4 view .LVU297
 862 024e 8023     		movs	r3, #128
 863 0250 2968     		ldr	r1, [r5]
 864 0252 DB02     		lsls	r3, r3, #11
 865 0254 0B43     		orrs	r3, r1
 866 0256 2B60     		str	r3, [r5]
 317:external/drivers/stm32c0xx/src/stm32c0xx_hal_rcc.c **** 
 867              		.loc 1 317 7 discriminator 4 view .LVU298
 868 0258 2B68     		ldr	r3, [r5]
 869 025a 1A43     		orrs	r2, r3
 870 025c 2A60     		str	r2, [r5]
 317:external/drivers/stm32c0xx/src/stm32c0xx_hal_rcc.c **** 
 871              		.loc 1 317 7 discriminator 4 view .LVU299
 320:external/drivers/stm32c0xx/src/stm32c0xx_hal_rcc.c ****       {
 872              		.loc 1 320 7 discriminator 4 view .LVU300
 873 025e A3E7     		b	.L21
 874              	.LVL73:
 875              	.L84:
 876              	.LBB10:
 500:external/drivers/stm32c0xx/src/stm32c0xx_hal_rcc.c ****       {
 877              		.loc 1 500 7 view .LVU301
 500:external/drivers/stm32c0xx/src/stm32c0xx_hal_rcc.c ****       {
 878              		.loc 1 500 10 is_stmt 0 view .LVU302
 879 0260 A068     		ldr	r0, [r4, #8]
 880 0262 4342     		rsbs	r3, r0, #0
 881 0264 5841     		adcs	r0, r0, r3
 882 0266 C0B2     		uxtb	r0, r0
ARM GAS  /tmp/ccdF5Ctr.s 			page 29


 883 0268 7BE7     		b	.L16
 884              	.L86:
 509:external/drivers/stm32c0xx/src/stm32c0xx_hal_rcc.c **** 
 885              		.loc 1 509 7 is_stmt 1 discriminator 4 view .LVU303
 886 026a EB6D     		ldr	r3, [r5, #92]
 887 026c 1343     		orrs	r3, r2
 888 026e 0122     		movs	r2, #1
 889 0270 EB65     		str	r3, [r5, #92]
 509:external/drivers/stm32c0xx/src/stm32c0xx_hal_rcc.c **** 
 890              		.loc 1 509 7 discriminator 4 view .LVU304
 891 0272 EB6D     		ldr	r3, [r5, #92]
 892 0274 1343     		orrs	r3, r2
 893 0276 EB65     		str	r3, [r5, #92]
 509:external/drivers/stm32c0xx/src/stm32c0xx_hal_rcc.c **** 
 894              		.loc 1 509 7 discriminator 4 view .LVU305
 512:external/drivers/stm32c0xx/src/stm32c0xx_hal_rcc.c ****       {
 895              		.loc 1 512 7 discriminator 4 view .LVU306
 896 0278 AFE7     		b	.L46
 897              	.L89:
 898 027a C046     		.align	2
 899              	.L88:
 900 027c 00100240 		.word	1073876992
 901 0280 FFFFFEFF 		.word	-65537
 902 0284 FFFFFBFF 		.word	-262145
 903 0288 88130000 		.word	5000
 904 028c FFC7FFFF 		.word	-14337
 905 0290 FF80FFFF 		.word	-32513
 906 0294 00000000 		.word	SystemCoreClock
 907 0298 006CDC02 		.word	48000000
 908 029c 00000000 		.word	uwTickPrio
 909 02a0 FFFEFFFF 		.word	-257
 910              	.LBE10:
 911              		.cfi_endproc
 912              	.LFE215:
 914              		.section	.text.HAL_RCC_ClockConfig,"ax",%progbits
 915              		.align	1
 916              		.p2align 2,,3
 917              		.global	HAL_RCC_ClockConfig
 918              		.syntax unified
 919              		.code	16
 920              		.thumb_func
 922              	HAL_RCC_ClockConfig:
 923              	.LVL74:
 924              	.LFB216:
 550:external/drivers/stm32c0xx/src/stm32c0xx_hal_rcc.c **** 
 551:external/drivers/stm32c0xx/src/stm32c0xx_hal_rcc.c **** /**
 552:external/drivers/stm32c0xx/src/stm32c0xx_hal_rcc.c ****   * @brief  Initialize the CPU, AHB and APB busses clocks according to the specified
 553:external/drivers/stm32c0xx/src/stm32c0xx_hal_rcc.c ****   *         parameters in the RCC_ClkInitStruct.
 554:external/drivers/stm32c0xx/src/stm32c0xx_hal_rcc.c ****   * @param  RCC_ClkInitStruct  pointer to a @ref RCC_ClkInitTypeDef structure that
 555:external/drivers/stm32c0xx/src/stm32c0xx_hal_rcc.c ****   *         contains the configuration information for the RCC peripheral.
 556:external/drivers/stm32c0xx/src/stm32c0xx_hal_rcc.c ****   * @param  FLatency  FLASH Latency
 557:external/drivers/stm32c0xx/src/stm32c0xx_hal_rcc.c ****   *          This parameter can be one of the following values:
 558:external/drivers/stm32c0xx/src/stm32c0xx_hal_rcc.c ****   *            @arg FLASH_LATENCY_0   FLASH 0 Latency cycle
 559:external/drivers/stm32c0xx/src/stm32c0xx_hal_rcc.c ****   *            @arg FLASH_LATENCY_1   FLASH 1 Latency cycle
 560:external/drivers/stm32c0xx/src/stm32c0xx_hal_rcc.c ****   *
 561:external/drivers/stm32c0xx/src/stm32c0xx_hal_rcc.c ****   * @note   The SystemCoreClock CMSIS variable is used to store System Clock Frequency
 562:external/drivers/stm32c0xx/src/stm32c0xx_hal_rcc.c ****   *         and updated by @ref HAL_RCC_GetHCLKFreq() function called within this function
ARM GAS  /tmp/ccdF5Ctr.s 			page 30


 563:external/drivers/stm32c0xx/src/stm32c0xx_hal_rcc.c ****   *
 564:external/drivers/stm32c0xx/src/stm32c0xx_hal_rcc.c ****   * @note   The HSI is used by default as system clock source after
 565:external/drivers/stm32c0xx/src/stm32c0xx_hal_rcc.c ****   *         startup from Reset, wake-up from STANDBY mode. After restart from Reset,
 566:external/drivers/stm32c0xx/src/stm32c0xx_hal_rcc.c ****   *         the HSI frequency is set to 12 Mhz, as HSI divider is set to 4.
 567:external/drivers/stm32c0xx/src/stm32c0xx_hal_rcc.c ****   *
 568:external/drivers/stm32c0xx/src/stm32c0xx_hal_rcc.c ****   * @note   The HSI can be selected as system clock source after
 569:external/drivers/stm32c0xx/src/stm32c0xx_hal_rcc.c ****   *         from STOP modes or in case of failure of the HSE used directly or indirectly
 570:external/drivers/stm32c0xx/src/stm32c0xx_hal_rcc.c ****   *         as system clock (if the Clock Security System CSS is enabled).
 571:external/drivers/stm32c0xx/src/stm32c0xx_hal_rcc.c ****   *
 572:external/drivers/stm32c0xx/src/stm32c0xx_hal_rcc.c ****   * @note   The LSI can be selected as system clock source after
 573:external/drivers/stm32c0xx/src/stm32c0xx_hal_rcc.c ****   *         in case of failure of the LSE used directly or indirectly
 574:external/drivers/stm32c0xx/src/stm32c0xx_hal_rcc.c ****   *         as system clock (if the Clock Security System LSECSS is enabled).
 575:external/drivers/stm32c0xx/src/stm32c0xx_hal_rcc.c ****   *
 576:external/drivers/stm32c0xx/src/stm32c0xx_hal_rcc.c ****   * @note   A switch from one clock source to another occurs only if the target
 577:external/drivers/stm32c0xx/src/stm32c0xx_hal_rcc.c ****   *         clock source is ready (clock stable after startup delay).
 578:external/drivers/stm32c0xx/src/stm32c0xx_hal_rcc.c ****   *         If a clock source which is not yet ready is selected, the switch will
 579:external/drivers/stm32c0xx/src/stm32c0xx_hal_rcc.c ****   *         occur when the clock source is ready.
 580:external/drivers/stm32c0xx/src/stm32c0xx_hal_rcc.c ****   *
 581:external/drivers/stm32c0xx/src/stm32c0xx_hal_rcc.c ****   * @note   You can use @ref HAL_RCC_GetClockConfig() function to know which clock is
 582:external/drivers/stm32c0xx/src/stm32c0xx_hal_rcc.c ****   *         currently used as system clock source.
 583:external/drivers/stm32c0xx/src/stm32c0xx_hal_rcc.c ****   *
 584:external/drivers/stm32c0xx/src/stm32c0xx_hal_rcc.c ****   * @note   Depending on the device voltage range, the software has to set correctly
 585:external/drivers/stm32c0xx/src/stm32c0xx_hal_rcc.c ****   *         HPRE[3:0] bits to ensure that HCLK not exceed the maximum allowed frequency
 586:external/drivers/stm32c0xx/src/stm32c0xx_hal_rcc.c ****   *         (for more details refer to section above "Initialization/de-initialization functions")
 587:external/drivers/stm32c0xx/src/stm32c0xx_hal_rcc.c ****   * @retval None
 588:external/drivers/stm32c0xx/src/stm32c0xx_hal_rcc.c ****   */
 589:external/drivers/stm32c0xx/src/stm32c0xx_hal_rcc.c **** HAL_StatusTypeDef HAL_RCC_ClockConfig(const RCC_ClkInitTypeDef  *RCC_ClkInitStruct, uint32_t FLaten
 590:external/drivers/stm32c0xx/src/stm32c0xx_hal_rcc.c **** {
 925              		.loc 1 590 1 view -0
 926              		.cfi_startproc
 927              		@ args = 0, pretend = 0, frame = 0
 928              		@ frame_needed = 0, uses_anonymous_args = 0
 591:external/drivers/stm32c0xx/src/stm32c0xx_hal_rcc.c ****   uint32_t tickstart;
 929              		.loc 1 591 3 view .LVU308
 592:external/drivers/stm32c0xx/src/stm32c0xx_hal_rcc.c **** 
 593:external/drivers/stm32c0xx/src/stm32c0xx_hal_rcc.c ****   /* Check Null pointer */
 594:external/drivers/stm32c0xx/src/stm32c0xx_hal_rcc.c ****   if (RCC_ClkInitStruct == NULL)
 930              		.loc 1 594 3 view .LVU309
 590:external/drivers/stm32c0xx/src/stm32c0xx_hal_rcc.c ****   uint32_t tickstart;
 931              		.loc 1 590 1 is_stmt 0 view .LVU310
 932 0000 F8B5     		push	{r3, r4, r5, r6, r7, lr}
 933              	.LCFI2:
 934              		.cfi_def_cfa_offset 24
 935              		.cfi_offset 3, -24
 936              		.cfi_offset 4, -20
 937              		.cfi_offset 5, -16
 938              		.cfi_offset 6, -12
 939              		.cfi_offset 7, -8
 940              		.cfi_offset 14, -4
 941 0002 CE46     		mov	lr, r9
 942 0004 4746     		mov	r7, r8
 943 0006 0500     		movs	r5, r0
 944 0008 0C00     		movs	r4, r1
 945 000a 80B5     		push	{r7, lr}
 946              	.LCFI3:
 947              		.cfi_def_cfa_offset 32
 948              		.cfi_offset 8, -32
ARM GAS  /tmp/ccdF5Ctr.s 			page 31


 949              		.cfi_offset 9, -28
 950              		.loc 1 594 6 view .LVU311
 951 000c 0028     		cmp	r0, #0
 952 000e 00D1     		bne	.LCB800
 953 0010 83E0     		b	.L104	@long jump
 954              	.LCB800:
 595:external/drivers/stm32c0xx/src/stm32c0xx_hal_rcc.c ****   {
 596:external/drivers/stm32c0xx/src/stm32c0xx_hal_rcc.c ****     return HAL_ERROR;
 597:external/drivers/stm32c0xx/src/stm32c0xx_hal_rcc.c ****   }
 598:external/drivers/stm32c0xx/src/stm32c0xx_hal_rcc.c **** 
 599:external/drivers/stm32c0xx/src/stm32c0xx_hal_rcc.c ****   /* Check the parameters */
 600:external/drivers/stm32c0xx/src/stm32c0xx_hal_rcc.c ****   assert_param(IS_RCC_CLOCKTYPE(RCC_ClkInitStruct->ClockType));
 955              		.loc 1 600 3 is_stmt 1 view .LVU312
 601:external/drivers/stm32c0xx/src/stm32c0xx_hal_rcc.c ****   assert_param(IS_FLASH_LATENCY(FLatency));
 956              		.loc 1 601 3 view .LVU313
 602:external/drivers/stm32c0xx/src/stm32c0xx_hal_rcc.c **** 
 603:external/drivers/stm32c0xx/src/stm32c0xx_hal_rcc.c ****   /* To correctly read data from FLASH memory, the number of wait states (LATENCY)
 604:external/drivers/stm32c0xx/src/stm32c0xx_hal_rcc.c ****     must be correctly programmed according to the frequency of the FLASH clock
 605:external/drivers/stm32c0xx/src/stm32c0xx_hal_rcc.c ****     (HCLK) and the supply voltage of the device. */
 606:external/drivers/stm32c0xx/src/stm32c0xx_hal_rcc.c **** 
 607:external/drivers/stm32c0xx/src/stm32c0xx_hal_rcc.c ****   /* Increasing the number of wait states because of higher CPU frequency */
 608:external/drivers/stm32c0xx/src/stm32c0xx_hal_rcc.c ****   if (FLatency > __HAL_FLASH_GET_LATENCY())
 957              		.loc 1 608 3 view .LVU314
 958              		.loc 1 608 18 is_stmt 0 view .LVU315
 959 0012 0722     		movs	r2, #7
 960 0014 674E     		ldr	r6, .L147
 961 0016 3368     		ldr	r3, [r6]
 962 0018 1340     		ands	r3, r2
 963              		.loc 1 608 6 view .LVU316
 964 001a 8B42     		cmp	r3, r1
 965 001c 00D2     		bcs	.LCB809
 966 001e 81E0     		b	.L93	@long jump
 967              	.LCB809:
 968              	.LVL75:
 969              	.L98:
 609:external/drivers/stm32c0xx/src/stm32c0xx_hal_rcc.c ****   {
 610:external/drivers/stm32c0xx/src/stm32c0xx_hal_rcc.c ****     /* Program the new number of wait states to the LATENCY bits in the FLASH_ACR register */
 611:external/drivers/stm32c0xx/src/stm32c0xx_hal_rcc.c ****     __HAL_FLASH_SET_LATENCY(FLatency);
 612:external/drivers/stm32c0xx/src/stm32c0xx_hal_rcc.c **** 
 613:external/drivers/stm32c0xx/src/stm32c0xx_hal_rcc.c ****     /* Check that the new number of wait states is taken into account to access the Flash
 614:external/drivers/stm32c0xx/src/stm32c0xx_hal_rcc.c ****     memory by polling the FLASH_ACR register */
 615:external/drivers/stm32c0xx/src/stm32c0xx_hal_rcc.c ****     tickstart = HAL_GetTick();
 616:external/drivers/stm32c0xx/src/stm32c0xx_hal_rcc.c **** 
 617:external/drivers/stm32c0xx/src/stm32c0xx_hal_rcc.c ****     while ((FLASH->ACR & FLASH_ACR_LATENCY) != FLatency)
 618:external/drivers/stm32c0xx/src/stm32c0xx_hal_rcc.c ****     {
 619:external/drivers/stm32c0xx/src/stm32c0xx_hal_rcc.c ****       if ((HAL_GetTick() - tickstart) > RCC_CLOCKSWITCH_TIMEOUT_VALUE)
 620:external/drivers/stm32c0xx/src/stm32c0xx_hal_rcc.c ****       {
 621:external/drivers/stm32c0xx/src/stm32c0xx_hal_rcc.c ****         return HAL_TIMEOUT;
 622:external/drivers/stm32c0xx/src/stm32c0xx_hal_rcc.c ****       }
 623:external/drivers/stm32c0xx/src/stm32c0xx_hal_rcc.c ****     }
 624:external/drivers/stm32c0xx/src/stm32c0xx_hal_rcc.c ****   }
 625:external/drivers/stm32c0xx/src/stm32c0xx_hal_rcc.c **** 
 626:external/drivers/stm32c0xx/src/stm32c0xx_hal_rcc.c ****   /*-------------------------- HCLK Configuration --------------------------*/
 627:external/drivers/stm32c0xx/src/stm32c0xx_hal_rcc.c ****   if (((RCC_ClkInitStruct->ClockType) & RCC_CLOCKTYPE_HCLK) == RCC_CLOCKTYPE_HCLK)
 970              		.loc 1 627 3 is_stmt 1 view .LVU317
 971              		.loc 1 627 26 is_stmt 0 view .LVU318
 972 0020 2B68     		ldr	r3, [r5]
ARM GAS  /tmp/ccdF5Ctr.s 			page 32


 973              		.loc 1 627 6 view .LVU319
 974 0022 9A07     		lsls	r2, r3, #30
 975 0024 10D5     		bpl	.L95
 628:external/drivers/stm32c0xx/src/stm32c0xx_hal_rcc.c ****   {
 629:external/drivers/stm32c0xx/src/stm32c0xx_hal_rcc.c ****     /* Set the highest APB divider in order to ensure that we do not go through
 630:external/drivers/stm32c0xx/src/stm32c0xx_hal_rcc.c ****        a non-spec phase whatever we decrease or increase HCLK. */
 631:external/drivers/stm32c0xx/src/stm32c0xx_hal_rcc.c ****     if (((RCC_ClkInitStruct->ClockType) & RCC_CLOCKTYPE_PCLK1) == RCC_CLOCKTYPE_PCLK1)
 976              		.loc 1 631 5 is_stmt 1 view .LVU320
 977              		.loc 1 631 8 is_stmt 0 view .LVU321
 978 0026 5A07     		lsls	r2, r3, #29
 979 0028 07D5     		bpl	.L99
 632:external/drivers/stm32c0xx/src/stm32c0xx_hal_rcc.c ****     {
 633:external/drivers/stm32c0xx/src/stm32c0xx_hal_rcc.c ****       MODIFY_REG(RCC->CFGR, RCC_CFGR_PPRE, RCC_HCLK_DIV16);
 980              		.loc 1 633 7 is_stmt 1 view .LVU322
 981 002a 6348     		ldr	r0, .L147+4
 982 002c 634A     		ldr	r2, .L147+8
 983 002e 8168     		ldr	r1, [r0, #8]
 984 0030 1140     		ands	r1, r2
 985 0032 B022     		movs	r2, #176
 986 0034 1201     		lsls	r2, r2, #4
 987 0036 0A43     		orrs	r2, r1
 988 0038 8260     		str	r2, [r0, #8]
 989              	.L99:
 634:external/drivers/stm32c0xx/src/stm32c0xx_hal_rcc.c ****     }
 635:external/drivers/stm32c0xx/src/stm32c0xx_hal_rcc.c **** 
 636:external/drivers/stm32c0xx/src/stm32c0xx_hal_rcc.c ****     /* Set the new HCLK clock divider */
 637:external/drivers/stm32c0xx/src/stm32c0xx_hal_rcc.c ****     assert_param(IS_RCC_HCLK(RCC_ClkInitStruct->AHBCLKDivider));
 990              		.loc 1 637 5 view .LVU323
 638:external/drivers/stm32c0xx/src/stm32c0xx_hal_rcc.c ****     MODIFY_REG(RCC->CFGR, RCC_CFGR_HPRE, RCC_ClkInitStruct->AHBCLKDivider);
 991              		.loc 1 638 5 view .LVU324
 992 003a 5F49     		ldr	r1, .L147+4
 993 003c 6048     		ldr	r0, .L147+12
 994 003e 8A68     		ldr	r2, [r1, #8]
 995 0040 0240     		ands	r2, r0
 996 0042 E868     		ldr	r0, [r5, #12]
 997 0044 0243     		orrs	r2, r0
 998 0046 8A60     		str	r2, [r1, #8]
 999              	.L95:
 639:external/drivers/stm32c0xx/src/stm32c0xx_hal_rcc.c ****   }
 640:external/drivers/stm32c0xx/src/stm32c0xx_hal_rcc.c **** 
 641:external/drivers/stm32c0xx/src/stm32c0xx_hal_rcc.c ****   /*------------------------- SYSCLK Configuration ---------------------------*/
 642:external/drivers/stm32c0xx/src/stm32c0xx_hal_rcc.c ****   if (((RCC_ClkInitStruct->ClockType) & RCC_CLOCKTYPE_SYSCLK) == RCC_CLOCKTYPE_SYSCLK)
 1000              		.loc 1 642 3 view .LVU325
 1001              		.loc 1 642 6 is_stmt 0 view .LVU326
 1002 0048 DB07     		lsls	r3, r3, #31
 1003 004a 29D5     		bpl	.L111
 643:external/drivers/stm32c0xx/src/stm32c0xx_hal_rcc.c ****   {
 644:external/drivers/stm32c0xx/src/stm32c0xx_hal_rcc.c ****     assert_param(IS_RCC_SYSCLK(RCC_ClkInitStruct->SYSCLKDivider));
 1004              		.loc 1 644 5 is_stmt 1 view .LVU327
 645:external/drivers/stm32c0xx/src/stm32c0xx_hal_rcc.c ****     assert_param(IS_RCC_SYSCLKSOURCE(RCC_ClkInitStruct->SYSCLKSource));
 1005              		.loc 1 645 5 view .LVU328
 646:external/drivers/stm32c0xx/src/stm32c0xx_hal_rcc.c ****     MODIFY_REG(RCC->CR, RCC_CR_SYSDIV, RCC_ClkInitStruct->SYSCLKDivider);
 1006              		.loc 1 646 5 view .LVU329
 1007 004c 1C21     		movs	r1, #28
 1008 004e 5A4A     		ldr	r2, .L147+4
 1009 0050 1368     		ldr	r3, [r2]
 1010 0052 8B43     		bics	r3, r1
ARM GAS  /tmp/ccdF5Ctr.s 			page 33


 1011 0054 A968     		ldr	r1, [r5, #8]
 1012 0056 0B43     		orrs	r3, r1
 1013 0058 1360     		str	r3, [r2]
 647:external/drivers/stm32c0xx/src/stm32c0xx_hal_rcc.c **** 
 648:external/drivers/stm32c0xx/src/stm32c0xx_hal_rcc.c ****     /* HSE is selected as System Clock Source */
 649:external/drivers/stm32c0xx/src/stm32c0xx_hal_rcc.c ****     if (RCC_ClkInitStruct->SYSCLKSource == RCC_SYSCLKSOURCE_HSE)
 1014              		.loc 1 649 5 view .LVU330
 1015              		.loc 1 649 26 is_stmt 0 view .LVU331
 1016 005a 6968     		ldr	r1, [r5, #4]
 1017              		.loc 1 649 8 view .LVU332
 1018 005c 0129     		cmp	r1, #1
 1019 005e 59D0     		beq	.L143
 650:external/drivers/stm32c0xx/src/stm32c0xx_hal_rcc.c ****     {
 651:external/drivers/stm32c0xx/src/stm32c0xx_hal_rcc.c ****       /* Check the HSE ready flag */
 652:external/drivers/stm32c0xx/src/stm32c0xx_hal_rcc.c ****       if (READ_BIT(RCC->CR, RCC_CR_HSERDY) == 0U)
 653:external/drivers/stm32c0xx/src/stm32c0xx_hal_rcc.c ****       {
 654:external/drivers/stm32c0xx/src/stm32c0xx_hal_rcc.c ****         return HAL_ERROR;
 655:external/drivers/stm32c0xx/src/stm32c0xx_hal_rcc.c ****       }
 656:external/drivers/stm32c0xx/src/stm32c0xx_hal_rcc.c ****     }
 657:external/drivers/stm32c0xx/src/stm32c0xx_hal_rcc.c ****     /* HSI is selected as System Clock Source */
 658:external/drivers/stm32c0xx/src/stm32c0xx_hal_rcc.c ****     else if (RCC_ClkInitStruct->SYSCLKSource == RCC_SYSCLKSOURCE_HSI)
 1020              		.loc 1 658 10 is_stmt 1 view .LVU333
 1021              		.loc 1 658 13 is_stmt 0 view .LVU334
 1022 0060 0029     		cmp	r1, #0
 1023 0062 00D0     		beq	.LCB868
 1024 0064 7CE0     		b	.L106	@long jump
 1025              	.LCB868:
 659:external/drivers/stm32c0xx/src/stm32c0xx_hal_rcc.c ****     {
 660:external/drivers/stm32c0xx/src/stm32c0xx_hal_rcc.c ****       /* Check the HSI ready flag */
 661:external/drivers/stm32c0xx/src/stm32c0xx_hal_rcc.c ****       if (READ_BIT(RCC->CR, RCC_CR_HSIRDY) == 0U)
 1026              		.loc 1 661 7 is_stmt 1 view .LVU335
 1027              		.loc 1 661 11 is_stmt 0 view .LVU336
 1028 0066 1368     		ldr	r3, [r2]
 1029              		.loc 1 661 10 view .LVU337
 1030 0068 5B05     		lsls	r3, r3, #21
 1031 006a 56D5     		bpl	.L104
 1032              	.L105:
 662:external/drivers/stm32c0xx/src/stm32c0xx_hal_rcc.c ****       {
 663:external/drivers/stm32c0xx/src/stm32c0xx_hal_rcc.c ****         return HAL_ERROR;
 664:external/drivers/stm32c0xx/src/stm32c0xx_hal_rcc.c ****       }
 665:external/drivers/stm32c0xx/src/stm32c0xx_hal_rcc.c ****     }
 666:external/drivers/stm32c0xx/src/stm32c0xx_hal_rcc.c ****     /* LSI is selected as System Clock Source */
 667:external/drivers/stm32c0xx/src/stm32c0xx_hal_rcc.c ****     else if (RCC_ClkInitStruct->SYSCLKSource == RCC_SYSCLKSOURCE_LSI)
 668:external/drivers/stm32c0xx/src/stm32c0xx_hal_rcc.c ****     {
 669:external/drivers/stm32c0xx/src/stm32c0xx_hal_rcc.c ****       /* Check the LSI ready flag */
 670:external/drivers/stm32c0xx/src/stm32c0xx_hal_rcc.c ****       if (READ_BIT(RCC->CSR2, RCC_CSR2_LSIRDY) == 0U)
 671:external/drivers/stm32c0xx/src/stm32c0xx_hal_rcc.c ****       {
 672:external/drivers/stm32c0xx/src/stm32c0xx_hal_rcc.c ****         return HAL_ERROR;
 673:external/drivers/stm32c0xx/src/stm32c0xx_hal_rcc.c ****       }
 674:external/drivers/stm32c0xx/src/stm32c0xx_hal_rcc.c ****     }
 675:external/drivers/stm32c0xx/src/stm32c0xx_hal_rcc.c ****     /* LSE is selected as System Clock Source */
 676:external/drivers/stm32c0xx/src/stm32c0xx_hal_rcc.c ****     else
 677:external/drivers/stm32c0xx/src/stm32c0xx_hal_rcc.c ****     {
 678:external/drivers/stm32c0xx/src/stm32c0xx_hal_rcc.c ****       /* Check the LSE ready flag */
 679:external/drivers/stm32c0xx/src/stm32c0xx_hal_rcc.c ****       if (READ_BIT(RCC->CSR1, RCC_CSR1_LSERDY) == 0U)
 680:external/drivers/stm32c0xx/src/stm32c0xx_hal_rcc.c ****       {
 681:external/drivers/stm32c0xx/src/stm32c0xx_hal_rcc.c ****         return HAL_ERROR;
ARM GAS  /tmp/ccdF5Ctr.s 			page 34


 682:external/drivers/stm32c0xx/src/stm32c0xx_hal_rcc.c ****       }
 683:external/drivers/stm32c0xx/src/stm32c0xx_hal_rcc.c ****     }
 684:external/drivers/stm32c0xx/src/stm32c0xx_hal_rcc.c ****     MODIFY_REG(RCC->CFGR, RCC_CFGR_SW, RCC_ClkInitStruct->SYSCLKSource);
 1033              		.loc 1 684 5 is_stmt 1 view .LVU338
 1034 006c 0722     		movs	r2, #7
 1035 006e 524E     		ldr	r6, .L147+4
 1036 0070 B368     		ldr	r3, [r6, #8]
 1037 0072 9343     		bics	r3, r2
 1038 0074 0B43     		orrs	r3, r1
 1039 0076 B360     		str	r3, [r6, #8]
 685:external/drivers/stm32c0xx/src/stm32c0xx_hal_rcc.c **** 
 686:external/drivers/stm32c0xx/src/stm32c0xx_hal_rcc.c ****     /* Get Start Tick*/
 687:external/drivers/stm32c0xx/src/stm32c0xx_hal_rcc.c ****     tickstart = HAL_GetTick();
 1040              		.loc 1 687 5 view .LVU339
 1041              		.loc 1 687 17 is_stmt 0 view .LVU340
 1042 0078 FFF7FEFF 		bl	HAL_GetTick
 1043              	.LVL76:
 688:external/drivers/stm32c0xx/src/stm32c0xx_hal_rcc.c **** 
 689:external/drivers/stm32c0xx/src/stm32c0xx_hal_rcc.c ****     while (__HAL_RCC_GET_SYSCLK_SOURCE() != (RCC_ClkInitStruct->SYSCLKSource << RCC_CFGR_SWS_Pos))
 1044              		.loc 1 689 12 view .LVU341
 1045 007c 3823     		movs	r3, #56
 1046 007e 9846     		mov	r8, r3
 690:external/drivers/stm32c0xx/src/stm32c0xx_hal_rcc.c ****     {
 691:external/drivers/stm32c0xx/src/stm32c0xx_hal_rcc.c ****       if ((HAL_GetTick() - tickstart) > RCC_CLOCKSWITCH_TIMEOUT_VALUE)
 1047              		.loc 1 691 10 view .LVU342
 1048 0080 504B     		ldr	r3, .L147+16
 687:external/drivers/stm32c0xx/src/stm32c0xx_hal_rcc.c **** 
 1049              		.loc 1 687 17 view .LVU343
 1050 0082 0700     		movs	r7, r0
 1051              	.LVL77:
 689:external/drivers/stm32c0xx/src/stm32c0xx_hal_rcc.c ****     {
 1052              		.loc 1 689 5 is_stmt 1 view .LVU344
 1053              		.loc 1 691 10 is_stmt 0 view .LVU345
 1054 0084 9946     		mov	r9, r3
 689:external/drivers/stm32c0xx/src/stm32c0xx_hal_rcc.c ****     {
 1055              		.loc 1 689 11 view .LVU346
 1056 0086 04E0     		b	.L108
 1057              	.LVL78:
 1058              	.L110:
 1059              		.loc 1 691 7 is_stmt 1 view .LVU347
 1060              		.loc 1 691 12 is_stmt 0 view .LVU348
 1061 0088 FFF7FEFF 		bl	HAL_GetTick
 1062              	.LVL79:
 1063              		.loc 1 691 26 view .LVU349
 1064 008c C01B     		subs	r0, r0, r7
 1065              		.loc 1 691 10 view .LVU350
 1066 008e 4845     		cmp	r0, r9
 1067 0090 5ED8     		bhi	.L109
 1068              	.L108:
 689:external/drivers/stm32c0xx/src/stm32c0xx_hal_rcc.c ****     {
 1069              		.loc 1 689 42 is_stmt 1 view .LVU351
 689:external/drivers/stm32c0xx/src/stm32c0xx_hal_rcc.c ****     {
 1070              		.loc 1 689 12 is_stmt 0 view .LVU352
 1071 0092 4346     		mov	r3, r8
 1072 0094 B268     		ldr	r2, [r6, #8]
 1073 0096 1A40     		ands	r2, r3
 689:external/drivers/stm32c0xx/src/stm32c0xx_hal_rcc.c ****     {
ARM GAS  /tmp/ccdF5Ctr.s 			page 35


 1074              		.loc 1 689 78 view .LVU353
 1075 0098 6B68     		ldr	r3, [r5, #4]
 1076 009a DB00     		lsls	r3, r3, #3
 689:external/drivers/stm32c0xx/src/stm32c0xx_hal_rcc.c ****     {
 1077              		.loc 1 689 42 view .LVU354
 1078 009c 9A42     		cmp	r2, r3
 1079 009e F3D1     		bne	.L110
 1080              	.LVL80:
 1081              	.L111:
 692:external/drivers/stm32c0xx/src/stm32c0xx_hal_rcc.c ****       {
 693:external/drivers/stm32c0xx/src/stm32c0xx_hal_rcc.c ****         return HAL_TIMEOUT;
 694:external/drivers/stm32c0xx/src/stm32c0xx_hal_rcc.c ****       }
 695:external/drivers/stm32c0xx/src/stm32c0xx_hal_rcc.c ****     }
 696:external/drivers/stm32c0xx/src/stm32c0xx_hal_rcc.c ****   }
 697:external/drivers/stm32c0xx/src/stm32c0xx_hal_rcc.c **** 
 698:external/drivers/stm32c0xx/src/stm32c0xx_hal_rcc.c ****   /* Decreasing the number of wait states because of lower CPU frequency */
 699:external/drivers/stm32c0xx/src/stm32c0xx_hal_rcc.c ****   if (FLatency < __HAL_FLASH_GET_LATENCY())
 1082              		.loc 1 699 3 is_stmt 1 view .LVU355
 1083              		.loc 1 699 18 is_stmt 0 view .LVU356
 1084 00a0 0722     		movs	r2, #7
 1085 00a2 444E     		ldr	r6, .L147
 1086 00a4 3368     		ldr	r3, [r6]
 1087 00a6 1340     		ands	r3, r2
 1088              		.loc 1 699 6 view .LVU357
 1089 00a8 A342     		cmp	r3, r4
 1090 00aa 60D8     		bhi	.L144
 1091              	.L102:
 700:external/drivers/stm32c0xx/src/stm32c0xx_hal_rcc.c ****   {
 701:external/drivers/stm32c0xx/src/stm32c0xx_hal_rcc.c ****     /* Program the new number of wait states to the LATENCY bits in the FLASH_ACR register */
 702:external/drivers/stm32c0xx/src/stm32c0xx_hal_rcc.c ****     __HAL_FLASH_SET_LATENCY(FLatency);
 703:external/drivers/stm32c0xx/src/stm32c0xx_hal_rcc.c **** 
 704:external/drivers/stm32c0xx/src/stm32c0xx_hal_rcc.c ****     /* Check that the new number of wait states is taken into account to access the Flash
 705:external/drivers/stm32c0xx/src/stm32c0xx_hal_rcc.c ****     memory by polling the FLASH_ACR register */
 706:external/drivers/stm32c0xx/src/stm32c0xx_hal_rcc.c ****     tickstart = HAL_GetTick();
 707:external/drivers/stm32c0xx/src/stm32c0xx_hal_rcc.c **** 
 708:external/drivers/stm32c0xx/src/stm32c0xx_hal_rcc.c ****     while ((FLASH->ACR & FLASH_ACR_LATENCY) != FLatency)
 709:external/drivers/stm32c0xx/src/stm32c0xx_hal_rcc.c ****     {
 710:external/drivers/stm32c0xx/src/stm32c0xx_hal_rcc.c ****       if ((HAL_GetTick() - tickstart) > RCC_CLOCKSWITCH_TIMEOUT_VALUE)
 711:external/drivers/stm32c0xx/src/stm32c0xx_hal_rcc.c ****       {
 712:external/drivers/stm32c0xx/src/stm32c0xx_hal_rcc.c ****         return HAL_TIMEOUT;
 713:external/drivers/stm32c0xx/src/stm32c0xx_hal_rcc.c ****       }
 714:external/drivers/stm32c0xx/src/stm32c0xx_hal_rcc.c ****     }
 715:external/drivers/stm32c0xx/src/stm32c0xx_hal_rcc.c ****   }
 716:external/drivers/stm32c0xx/src/stm32c0xx_hal_rcc.c **** 
 717:external/drivers/stm32c0xx/src/stm32c0xx_hal_rcc.c ****   /*-------------------------- PCLK1 Configuration ---------------------------*/
 718:external/drivers/stm32c0xx/src/stm32c0xx_hal_rcc.c ****   if (((RCC_ClkInitStruct->ClockType) & RCC_CLOCKTYPE_PCLK1) == RCC_CLOCKTYPE_PCLK1)
 1092              		.loc 1 718 3 is_stmt 1 view .LVU358
 1093              		.loc 1 718 39 is_stmt 0 view .LVU359
 1094 00ac 2B68     		ldr	r3, [r5]
 1095              		.loc 1 718 6 view .LVU360
 1096 00ae 5B07     		lsls	r3, r3, #29
 1097 00b0 06D5     		bpl	.L113
 719:external/drivers/stm32c0xx/src/stm32c0xx_hal_rcc.c ****   {
 720:external/drivers/stm32c0xx/src/stm32c0xx_hal_rcc.c ****     assert_param(IS_RCC_PCLK(RCC_ClkInitStruct->APB1CLKDivider));
 1098              		.loc 1 720 5 is_stmt 1 view .LVU361
 721:external/drivers/stm32c0xx/src/stm32c0xx_hal_rcc.c ****     MODIFY_REG(RCC->CFGR, RCC_CFGR_PPRE, RCC_ClkInitStruct->APB1CLKDivider);
 1099              		.loc 1 721 5 view .LVU362
ARM GAS  /tmp/ccdF5Ctr.s 			page 36


 1100 00b2 414A     		ldr	r2, .L147+4
 1101 00b4 4449     		ldr	r1, .L147+20
 1102 00b6 9368     		ldr	r3, [r2, #8]
 1103 00b8 0B40     		ands	r3, r1
 1104 00ba 2969     		ldr	r1, [r5, #16]
 1105 00bc 0B43     		orrs	r3, r1
 1106 00be 9360     		str	r3, [r2, #8]
 1107              	.L113:
 722:external/drivers/stm32c0xx/src/stm32c0xx_hal_rcc.c ****   }
 723:external/drivers/stm32c0xx/src/stm32c0xx_hal_rcc.c **** 
 724:external/drivers/stm32c0xx/src/stm32c0xx_hal_rcc.c ****   /* Update the SystemCoreClock global variable */
 725:external/drivers/stm32c0xx/src/stm32c0xx_hal_rcc.c ****   SystemCoreClock = (HAL_RCC_GetSysClockFreq() >> ((AHBPrescTable[(RCC->CFGR & RCC_CFGR_HPRE) >> RC
 1108              		.loc 1 725 3 view .LVU363
 1109              	.LBB15:
 1110              	.LBI15:
 726:external/drivers/stm32c0xx/src/stm32c0xx_hal_rcc.c **** 
 727:external/drivers/stm32c0xx/src/stm32c0xx_hal_rcc.c ****   /* Configure the source of time base considering new system clocks settings*/
 728:external/drivers/stm32c0xx/src/stm32c0xx_hal_rcc.c ****   return HAL_InitTick(uwTickPrio);
 729:external/drivers/stm32c0xx/src/stm32c0xx_hal_rcc.c **** }
 730:external/drivers/stm32c0xx/src/stm32c0xx_hal_rcc.c **** 
 731:external/drivers/stm32c0xx/src/stm32c0xx_hal_rcc.c **** /**
 732:external/drivers/stm32c0xx/src/stm32c0xx_hal_rcc.c ****   * @}
 733:external/drivers/stm32c0xx/src/stm32c0xx_hal_rcc.c ****   */
 734:external/drivers/stm32c0xx/src/stm32c0xx_hal_rcc.c **** 
 735:external/drivers/stm32c0xx/src/stm32c0xx_hal_rcc.c **** /** @defgroup RCC_Exported_Functions_Group2 Peripheral Control functions
 736:external/drivers/stm32c0xx/src/stm32c0xx_hal_rcc.c ****   *  @brief   RCC clocks control functions
 737:external/drivers/stm32c0xx/src/stm32c0xx_hal_rcc.c ****   *
 738:external/drivers/stm32c0xx/src/stm32c0xx_hal_rcc.c **** @verbatim
 739:external/drivers/stm32c0xx/src/stm32c0xx_hal_rcc.c ****  ===============================================================================
 740:external/drivers/stm32c0xx/src/stm32c0xx_hal_rcc.c ****                       ##### Peripheral Control functions #####
 741:external/drivers/stm32c0xx/src/stm32c0xx_hal_rcc.c ****  ===============================================================================
 742:external/drivers/stm32c0xx/src/stm32c0xx_hal_rcc.c ****     [..]
 743:external/drivers/stm32c0xx/src/stm32c0xx_hal_rcc.c ****     This subsection provides a set of functions allowing to:
 744:external/drivers/stm32c0xx/src/stm32c0xx_hal_rcc.c **** 
 745:external/drivers/stm32c0xx/src/stm32c0xx_hal_rcc.c ****     (+) output clock to MCO pin.
 746:external/drivers/stm32c0xx/src/stm32c0xx_hal_rcc.c ****     (+) Retrieve current clock frequencies.
 747:external/drivers/stm32c0xx/src/stm32c0xx_hal_rcc.c ****     (+) Enable the Clock Security System.
 748:external/drivers/stm32c0xx/src/stm32c0xx_hal_rcc.c **** 
 749:external/drivers/stm32c0xx/src/stm32c0xx_hal_rcc.c **** @endverbatim
 750:external/drivers/stm32c0xx/src/stm32c0xx_hal_rcc.c ****   * @{
 751:external/drivers/stm32c0xx/src/stm32c0xx_hal_rcc.c ****   */
 752:external/drivers/stm32c0xx/src/stm32c0xx_hal_rcc.c **** 
 753:external/drivers/stm32c0xx/src/stm32c0xx_hal_rcc.c **** /**
 754:external/drivers/stm32c0xx/src/stm32c0xx_hal_rcc.c ****   * @brief  Select the clock source to output on MCOx pin.
 755:external/drivers/stm32c0xx/src/stm32c0xx_hal_rcc.c ****   * @note   PA8 for MCO1 and PB2 for MCO2 should be configured in alternate function mode.
 756:external/drivers/stm32c0xx/src/stm32c0xx_hal_rcc.c ****   * @param  RCC_MCOx  specifies the output direction for the clock source.
 757:external/drivers/stm32c0xx/src/stm32c0xx_hal_rcc.c ****   *            @arg @ref RCC_MCO1  Clock source to output on MCO1 pins.
 758:external/drivers/stm32c0xx/src/stm32c0xx_hal_rcc.c ****   *            @arg @ref RCC_MCO2  Clock source to output on MCO2 pins.
 759:external/drivers/stm32c0xx/src/stm32c0xx_hal_rcc.c ****   * @param  RCC_MCOSource  specifies the clock source to output.
 760:external/drivers/stm32c0xx/src/stm32c0xx_hal_rcc.c ****   *          This parameter can be one of the following values:
 761:external/drivers/stm32c0xx/src/stm32c0xx_hal_rcc.c ****   *            @arg @ref RCC_MCO1SOURCE_NOCLOCK  MCO1 output disabled, no clock on MCO1
 762:external/drivers/stm32c0xx/src/stm32c0xx_hal_rcc.c ****   *            @arg @ref RCC_MCO1SOURCE_SYSCLK  system  clock selected as MCO1 source
 763:external/drivers/stm32c0xx/src/stm32c0xx_hal_rcc.c ****   *            @arg @ref RCC_MCO1SOURCE_HSI  HSI clock selected as MCO1 source
 764:external/drivers/stm32c0xx/src/stm32c0xx_hal_rcc.c ****   *            @arg @ref RCC_MCO1SOURCE_HSE  HSE clock selected as MCO1 source
 765:external/drivers/stm32c0xx/src/stm32c0xx_hal_rcc.c ****   *            @arg @ref RCC_MCO1SOURCE_LSI  LSI clock selected as MCO1 source
 766:external/drivers/stm32c0xx/src/stm32c0xx_hal_rcc.c ****   *            @arg @ref RCC_MCO1SOURCE_LSE  LSE clock selected as MCO1 source
 767:external/drivers/stm32c0xx/src/stm32c0xx_hal_rcc.c ****   *            @arg @ref RCC_MCO2SOURCE_NOCLOCK  MCO2 output disabled, no clock on MCO2
ARM GAS  /tmp/ccdF5Ctr.s 			page 37


 768:external/drivers/stm32c0xx/src/stm32c0xx_hal_rcc.c ****   *            @arg @ref RCC_MCO2SOURCE_SYSCLK  system  clock selected as MCO2 source
 769:external/drivers/stm32c0xx/src/stm32c0xx_hal_rcc.c ****   *            @arg @ref RCC_MCO2SOURCE_HSI  HSI clock selected as MCO2 source
 770:external/drivers/stm32c0xx/src/stm32c0xx_hal_rcc.c ****   *            @arg @ref RCC_MCO2SOURCE_HSE  HSE clock selected as MCO2 source
 771:external/drivers/stm32c0xx/src/stm32c0xx_hal_rcc.c ****   *            @arg @ref RCC_MCO2SOURCE_LSI  LSI clock selected as MCO2 source
 772:external/drivers/stm32c0xx/src/stm32c0xx_hal_rcc.c ****   *            @arg @ref RCC_MCO2SOURCE_LSE  LSE clock selected as MCO2 source
 773:external/drivers/stm32c0xx/src/stm32c0xx_hal_rcc.c ****   * @param  RCC_MCODiv  specifies the MCO prescaler.
 774:external/drivers/stm32c0xx/src/stm32c0xx_hal_rcc.c ****   *          This parameter can be one of the following values:
 775:external/drivers/stm32c0xx/src/stm32c0xx_hal_rcc.c ****   *            @arg @ref RCC_MCODIV_1  no division applied to MCO clock
 776:external/drivers/stm32c0xx/src/stm32c0xx_hal_rcc.c ****   *            @arg @ref RCC_MCODIV_2  division by 2 applied to MCO clock
 777:external/drivers/stm32c0xx/src/stm32c0xx_hal_rcc.c ****   *            @arg @ref RCC_MCODIV_4  division by 4 applied to MCO clock
 778:external/drivers/stm32c0xx/src/stm32c0xx_hal_rcc.c ****   *            @arg @ref RCC_MCODIV_8  division by 8 applied to MCO clock
 779:external/drivers/stm32c0xx/src/stm32c0xx_hal_rcc.c ****   *            @arg @ref RCC_MCODIV_16  division by 16 applied to MCO clock
 780:external/drivers/stm32c0xx/src/stm32c0xx_hal_rcc.c ****   *            @arg @ref RCC_MCODIV_32  division by 32 applied to MCO clock
 781:external/drivers/stm32c0xx/src/stm32c0xx_hal_rcc.c ****   *            @arg @ref RCC_MCODIV_64  division by 64 applied to MCO clock
 782:external/drivers/stm32c0xx/src/stm32c0xx_hal_rcc.c ****   *            @arg @ref RCC_MCODIV_128  division by 128 applied to MCO clock
 783:external/drivers/stm32c0xx/src/stm32c0xx_hal_rcc.c ****   * @retval None
 784:external/drivers/stm32c0xx/src/stm32c0xx_hal_rcc.c ****   */
 785:external/drivers/stm32c0xx/src/stm32c0xx_hal_rcc.c **** void HAL_RCC_MCOConfig(uint32_t RCC_MCOx, uint32_t RCC_MCOSource, uint32_t RCC_MCODiv)
 786:external/drivers/stm32c0xx/src/stm32c0xx_hal_rcc.c **** {
 787:external/drivers/stm32c0xx/src/stm32c0xx_hal_rcc.c ****   GPIO_InitTypeDef gpio_initstruct;
 788:external/drivers/stm32c0xx/src/stm32c0xx_hal_rcc.c ****   uint32_t mcoindex;
 789:external/drivers/stm32c0xx/src/stm32c0xx_hal_rcc.c ****   uint32_t mco_gpio_index;
 790:external/drivers/stm32c0xx/src/stm32c0xx_hal_rcc.c ****   GPIO_TypeDef *mco_gpio_port;
 791:external/drivers/stm32c0xx/src/stm32c0xx_hal_rcc.c **** 
 792:external/drivers/stm32c0xx/src/stm32c0xx_hal_rcc.c ****   /* Check the parameters */
 793:external/drivers/stm32c0xx/src/stm32c0xx_hal_rcc.c ****   assert_param(IS_RCC_MCO(RCC_MCOx));
 794:external/drivers/stm32c0xx/src/stm32c0xx_hal_rcc.c **** 
 795:external/drivers/stm32c0xx/src/stm32c0xx_hal_rcc.c ****   /* Common GPIO init parameters */
 796:external/drivers/stm32c0xx/src/stm32c0xx_hal_rcc.c ****   gpio_initstruct.Mode      = GPIO_MODE_AF_PP;
 797:external/drivers/stm32c0xx/src/stm32c0xx_hal_rcc.c ****   gpio_initstruct.Speed     = GPIO_SPEED_FREQ_VERY_HIGH;
 798:external/drivers/stm32c0xx/src/stm32c0xx_hal_rcc.c ****   gpio_initstruct.Pull      = GPIO_NOPULL;
 799:external/drivers/stm32c0xx/src/stm32c0xx_hal_rcc.c **** 
 800:external/drivers/stm32c0xx/src/stm32c0xx_hal_rcc.c ****   /* Get MCOx selection */
 801:external/drivers/stm32c0xx/src/stm32c0xx_hal_rcc.c ****   mcoindex = RCC_MCOx & RCC_MCO_INDEX_MASK;
 802:external/drivers/stm32c0xx/src/stm32c0xx_hal_rcc.c **** 
 803:external/drivers/stm32c0xx/src/stm32c0xx_hal_rcc.c ****   /* Get MCOx GPIO Port */
 804:external/drivers/stm32c0xx/src/stm32c0xx_hal_rcc.c ****   mco_gpio_port = (GPIO_TypeDef *) RCC_GET_MCO_GPIO_PORT(RCC_MCOx);
 805:external/drivers/stm32c0xx/src/stm32c0xx_hal_rcc.c **** 
 806:external/drivers/stm32c0xx/src/stm32c0xx_hal_rcc.c ****   /* MCOx Clock Enable */
 807:external/drivers/stm32c0xx/src/stm32c0xx_hal_rcc.c ****   mco_gpio_index = RCC_GET_MCO_GPIO_INDEX(RCC_MCOx);
 808:external/drivers/stm32c0xx/src/stm32c0xx_hal_rcc.c ****   SET_BIT(RCC->IOPENR, (1UL << mco_gpio_index));
 809:external/drivers/stm32c0xx/src/stm32c0xx_hal_rcc.c **** 
 810:external/drivers/stm32c0xx/src/stm32c0xx_hal_rcc.c ****   /* Configure the MCOx pin in alternate function mode */
 811:external/drivers/stm32c0xx/src/stm32c0xx_hal_rcc.c ****   gpio_initstruct.Pin = RCC_GET_MCO_GPIO_PIN(RCC_MCOx);
 812:external/drivers/stm32c0xx/src/stm32c0xx_hal_rcc.c ****   gpio_initstruct.Alternate = RCC_GET_MCO_GPIO_AF(RCC_MCOx);
 813:external/drivers/stm32c0xx/src/stm32c0xx_hal_rcc.c ****   HAL_GPIO_Init(mco_gpio_port, &gpio_initstruct);
 814:external/drivers/stm32c0xx/src/stm32c0xx_hal_rcc.c **** 
 815:external/drivers/stm32c0xx/src/stm32c0xx_hal_rcc.c ****   if (mcoindex == RCC_MCO1_INDEX)
 816:external/drivers/stm32c0xx/src/stm32c0xx_hal_rcc.c ****   {
 817:external/drivers/stm32c0xx/src/stm32c0xx_hal_rcc.c ****     assert_param(IS_RCC_MCODIV(RCC_MCODiv));
 818:external/drivers/stm32c0xx/src/stm32c0xx_hal_rcc.c ****     assert_param(IS_RCC_MCO1SOURCE(RCC_MCOSource));
 819:external/drivers/stm32c0xx/src/stm32c0xx_hal_rcc.c ****     /* Mask MCOSEL[] and MCOPRE[] bits then set MCO clock source and prescaler */
 820:external/drivers/stm32c0xx/src/stm32c0xx_hal_rcc.c ****     LL_RCC_ConfigMCO(RCC_MCOSource, RCC_MCODiv);
 821:external/drivers/stm32c0xx/src/stm32c0xx_hal_rcc.c ****   }
 822:external/drivers/stm32c0xx/src/stm32c0xx_hal_rcc.c ****   else if (mcoindex == RCC_MCO2_INDEX)
 823:external/drivers/stm32c0xx/src/stm32c0xx_hal_rcc.c ****   {
 824:external/drivers/stm32c0xx/src/stm32c0xx_hal_rcc.c ****     assert_param(IS_RCC_MCO2DIV(RCC_MCODiv));
ARM GAS  /tmp/ccdF5Ctr.s 			page 38


 825:external/drivers/stm32c0xx/src/stm32c0xx_hal_rcc.c ****     assert_param(IS_RCC_MCO2SOURCE(RCC_MCOSource));
 826:external/drivers/stm32c0xx/src/stm32c0xx_hal_rcc.c ****     /* Mask MCOSEL[] and MCOPRE[] bits then set MCO clock source and prescaler */
 827:external/drivers/stm32c0xx/src/stm32c0xx_hal_rcc.c ****     LL_RCC_ConfigMCO2(RCC_MCOSource, RCC_MCODiv);
 828:external/drivers/stm32c0xx/src/stm32c0xx_hal_rcc.c ****   }
 829:external/drivers/stm32c0xx/src/stm32c0xx_hal_rcc.c ****   else
 830:external/drivers/stm32c0xx/src/stm32c0xx_hal_rcc.c ****   {}
 831:external/drivers/stm32c0xx/src/stm32c0xx_hal_rcc.c **** }
 832:external/drivers/stm32c0xx/src/stm32c0xx_hal_rcc.c **** 
 833:external/drivers/stm32c0xx/src/stm32c0xx_hal_rcc.c **** /**
 834:external/drivers/stm32c0xx/src/stm32c0xx_hal_rcc.c ****   * @brief  Return the SYSCLK frequency.
 835:external/drivers/stm32c0xx/src/stm32c0xx_hal_rcc.c ****   *
 836:external/drivers/stm32c0xx/src/stm32c0xx_hal_rcc.c ****   * @note   The system frequency computed by this function is not the real
 837:external/drivers/stm32c0xx/src/stm32c0xx_hal_rcc.c ****   *         frequency in the chip. It is calculated based on the predefined
 838:external/drivers/stm32c0xx/src/stm32c0xx_hal_rcc.c ****   *         constant and the selected clock source:
 839:external/drivers/stm32c0xx/src/stm32c0xx_hal_rcc.c ****   * @note     If SYSCLK source is HSI, function returns values based on HSI_VALUE/HSIDIV(*)
 840:external/drivers/stm32c0xx/src/stm32c0xx_hal_rcc.c ****   * @note     If SYSCLK source is HSE, function returns values based on HSE_VALUE(**)
 841:external/drivers/stm32c0xx/src/stm32c0xx_hal_rcc.c ****   * @note     If SYSCLK source is LSI, function returns values based on LSI_VALUE(***)
 842:external/drivers/stm32c0xx/src/stm32c0xx_hal_rcc.c ****   * @note     If SYSCLK source is LSE, function returns values based on LSE_VALUE(****)
 843:external/drivers/stm32c0xx/src/stm32c0xx_hal_rcc.c ****   * @note     (*) HSI_VALUE is a constant defined in stm32c0xx_hal_conf.h file (default value
 844:external/drivers/stm32c0xx/src/stm32c0xx_hal_rcc.c ****   *               48 MHz) but the real value may vary depending on the variations
 845:external/drivers/stm32c0xx/src/stm32c0xx_hal_rcc.c ****   *               in voltage and temperature.
 846:external/drivers/stm32c0xx/src/stm32c0xx_hal_rcc.c ****   * @note     (**) HSE_VALUE is a constant defined in stm32c0xx_hal_conf.h file (default value
 847:external/drivers/stm32c0xx/src/stm32c0xx_hal_rcc.c ****   *                48 MHz), user has to ensure that HSE_VALUE is same as the real
 848:external/drivers/stm32c0xx/src/stm32c0xx_hal_rcc.c ****   *                frequency of the crystal used. Otherwise, this function may
 849:external/drivers/stm32c0xx/src/stm32c0xx_hal_rcc.c ****   *                have wrong result.
 850:external/drivers/stm32c0xx/src/stm32c0xx_hal_rcc.c ****   * @note     (***) LSE_VALUE is a constant defined in stm32c0xx_hal_conf.h file (default value
 851:external/drivers/stm32c0xx/src/stm32c0xx_hal_rcc.c ****   *               32768 Hz).
 852:external/drivers/stm32c0xx/src/stm32c0xx_hal_rcc.c ****   * @note     (****) LSI_VALUE is a constant defined in stm32c0xx_hal_conf.h file (default value
 853:external/drivers/stm32c0xx/src/stm32c0xx_hal_rcc.c ****   *               32000 Hz).
 854:external/drivers/stm32c0xx/src/stm32c0xx_hal_rcc.c ****   *
 855:external/drivers/stm32c0xx/src/stm32c0xx_hal_rcc.c ****   * @note   The result of this function could be not correct when using fractional
 856:external/drivers/stm32c0xx/src/stm32c0xx_hal_rcc.c ****   *         value for HSE crystal.
 857:external/drivers/stm32c0xx/src/stm32c0xx_hal_rcc.c ****   *
 858:external/drivers/stm32c0xx/src/stm32c0xx_hal_rcc.c ****   * @note   This function can be used by the user application to compute the
 859:external/drivers/stm32c0xx/src/stm32c0xx_hal_rcc.c ****   *         baudrate for the communication peripherals or configure other parameters.
 860:external/drivers/stm32c0xx/src/stm32c0xx_hal_rcc.c ****   *
 861:external/drivers/stm32c0xx/src/stm32c0xx_hal_rcc.c ****   * @note   Each time SYSCLK changes, this function must be called to update the
 862:external/drivers/stm32c0xx/src/stm32c0xx_hal_rcc.c ****   *         right SYSCLK value. Otherwise, any configuration based on this function will be incorre
 863:external/drivers/stm32c0xx/src/stm32c0xx_hal_rcc.c ****   *
 864:external/drivers/stm32c0xx/src/stm32c0xx_hal_rcc.c ****   *
 865:external/drivers/stm32c0xx/src/stm32c0xx_hal_rcc.c ****   * @retval SYSCLK frequency
 866:external/drivers/stm32c0xx/src/stm32c0xx_hal_rcc.c ****   */
 867:external/drivers/stm32c0xx/src/stm32c0xx_hal_rcc.c **** uint32_t HAL_RCC_GetSysClockFreq(void)
 1111              		.loc 1 867 10 view .LVU364
 1112              	.LBB16:
 868:external/drivers/stm32c0xx/src/stm32c0xx_hal_rcc.c **** {
 869:external/drivers/stm32c0xx/src/stm32c0xx_hal_rcc.c ****   uint32_t hsidiv;
 1113              		.loc 1 869 3 view .LVU365
 870:external/drivers/stm32c0xx/src/stm32c0xx_hal_rcc.c ****   uint32_t sysclockfreq;
 1114              		.loc 1 870 3 view .LVU366
 871:external/drivers/stm32c0xx/src/stm32c0xx_hal_rcc.c **** 
 872:external/drivers/stm32c0xx/src/stm32c0xx_hal_rcc.c ****   if (__HAL_RCC_GET_SYSCLK_SOURCE() == RCC_CFGR_SWS_HSI)
 1115              		.loc 1 872 3 view .LVU367
 1116              		.loc 1 872 7 is_stmt 0 view .LVU368
 1117 00c0 3823     		movs	r3, #56
 1118 00c2 3D4A     		ldr	r2, .L147+4
 1119 00c4 9168     		ldr	r1, [r2, #8]
ARM GAS  /tmp/ccdF5Ctr.s 			page 39


 1120              		.loc 1 872 6 view .LVU369
 1121 00c6 0B42     		tst	r3, r1
 1122 00c8 44D0     		beq	.L145
 873:external/drivers/stm32c0xx/src/stm32c0xx_hal_rcc.c ****   {
 874:external/drivers/stm32c0xx/src/stm32c0xx_hal_rcc.c ****     /* HSISYS can be derived for HSI48 */
 875:external/drivers/stm32c0xx/src/stm32c0xx_hal_rcc.c ****     hsidiv = (1UL << ((READ_BIT(RCC->CR, RCC_CR_HSIDIV)) >> RCC_CR_HSIDIV_Pos));
 876:external/drivers/stm32c0xx/src/stm32c0xx_hal_rcc.c **** 
 877:external/drivers/stm32c0xx/src/stm32c0xx_hal_rcc.c ****     /* HSI used as system clock source */
 878:external/drivers/stm32c0xx/src/stm32c0xx_hal_rcc.c ****     sysclockfreq = (HSI_VALUE / hsidiv);
 879:external/drivers/stm32c0xx/src/stm32c0xx_hal_rcc.c ****   }
 880:external/drivers/stm32c0xx/src/stm32c0xx_hal_rcc.c ****   else if (__HAL_RCC_GET_SYSCLK_SOURCE() == RCC_CFGR_SWS_HSE)
 1123              		.loc 1 880 8 is_stmt 1 view .LVU370
 1124              		.loc 1 880 12 is_stmt 0 view .LVU371
 1125 00ca 9168     		ldr	r1, [r2, #8]
 1126 00cc 1940     		ands	r1, r3
 1127              		.loc 1 880 11 view .LVU372
 1128 00ce 0829     		cmp	r1, #8
 1129 00d0 65D0     		beq	.L118
 881:external/drivers/stm32c0xx/src/stm32c0xx_hal_rcc.c ****   {
 882:external/drivers/stm32c0xx/src/stm32c0xx_hal_rcc.c ****     /* HSE used as system clock source */
 883:external/drivers/stm32c0xx/src/stm32c0xx_hal_rcc.c ****     sysclockfreq = HSE_VALUE;
 884:external/drivers/stm32c0xx/src/stm32c0xx_hal_rcc.c ****   }
 885:external/drivers/stm32c0xx/src/stm32c0xx_hal_rcc.c ****   else if (__HAL_RCC_GET_SYSCLK_SOURCE() == RCC_CFGR_SWS_LSE)
 1130              		.loc 1 885 8 is_stmt 1 view .LVU373
 1131              		.loc 1 885 12 is_stmt 0 view .LVU374
 1132 00d2 9168     		ldr	r1, [r2, #8]
 1133 00d4 1940     		ands	r1, r3
 1134              		.loc 1 885 11 view .LVU375
 1135 00d6 2029     		cmp	r1, #32
 1136 00d8 68D0     		beq	.L119
 1137              	.LBB17:
 1138              	.LBI17:
 867:external/drivers/stm32c0xx/src/stm32c0xx_hal_rcc.c **** {
 1139              		.loc 1 867 10 is_stmt 1 view .LVU376
 1140              	.LBB18:
 886:external/drivers/stm32c0xx/src/stm32c0xx_hal_rcc.c ****   {
 887:external/drivers/stm32c0xx/src/stm32c0xx_hal_rcc.c ****     /* LSE used as system clock source */
 888:external/drivers/stm32c0xx/src/stm32c0xx_hal_rcc.c ****     sysclockfreq = LSE_VALUE;
 889:external/drivers/stm32c0xx/src/stm32c0xx_hal_rcc.c ****   }
 890:external/drivers/stm32c0xx/src/stm32c0xx_hal_rcc.c ****   else if (__HAL_RCC_GET_SYSCLK_SOURCE() == RCC_CFGR_SWS_LSI)
 1141              		.loc 1 890 8 view .LVU377
 1142              		.loc 1 890 12 is_stmt 0 view .LVU378
 1143 00da 9268     		ldr	r2, [r2, #8]
 1144 00dc 1340     		ands	r3, r2
 891:external/drivers/stm32c0xx/src/stm32c0xx_hal_rcc.c ****   {
 892:external/drivers/stm32c0xx/src/stm32c0xx_hal_rcc.c ****     /* LSI used as system clock source */
 893:external/drivers/stm32c0xx/src/stm32c0xx_hal_rcc.c ****     sysclockfreq = LSI_VALUE;
 1145              		.loc 1 893 18 view .LVU379
 1146 00de 183B     		subs	r3, r3, #24
 1147 00e0 5A1E     		subs	r2, r3, #1
 1148 00e2 9341     		sbcs	r3, r3, r2
 1149 00e4 394A     		ldr	r2, .L147+24
 1150 00e6 5B42     		rsbs	r3, r3, #0
 1151 00e8 1340     		ands	r3, r2
 1152 00ea FA22     		movs	r2, #250
 1153 00ec D201     		lsls	r2, r2, #7
 1154 00ee 9446     		mov	ip, r2
ARM GAS  /tmp/ccdF5Ctr.s 			page 40


 1155 00f0 6344     		add	r3, r3, ip
 1156              	.L117:
 1157              	.LVL81:
 1158              		.loc 1 893 18 view .LVU380
 1159              	.LBE18:
 1160              	.LBE17:
 894:external/drivers/stm32c0xx/src/stm32c0xx_hal_rcc.c ****   }
 895:external/drivers/stm32c0xx/src/stm32c0xx_hal_rcc.c ****   else
 896:external/drivers/stm32c0xx/src/stm32c0xx_hal_rcc.c ****   {
 897:external/drivers/stm32c0xx/src/stm32c0xx_hal_rcc.c ****     sysclockfreq = 0U;
 898:external/drivers/stm32c0xx/src/stm32c0xx_hal_rcc.c ****   }
 899:external/drivers/stm32c0xx/src/stm32c0xx_hal_rcc.c **** 
 900:external/drivers/stm32c0xx/src/stm32c0xx_hal_rcc.c ****   return sysclockfreq;
 1161              		.loc 1 900 3 is_stmt 1 view .LVU381
 1162              		.loc 1 900 3 is_stmt 0 view .LVU382
 1163              	.LBE16:
 1164              	.LBE15:
 725:external/drivers/stm32c0xx/src/stm32c0xx_hal_rcc.c **** 
 1165              		.loc 1 725 71 view .LVU383
 1166 00f2 314A     		ldr	r2, .L147+4
 725:external/drivers/stm32c0xx/src/stm32c0xx_hal_rcc.c **** 
 1167              		.loc 1 725 66 view .LVU384
 1168 00f4 3649     		ldr	r1, .L147+28
 725:external/drivers/stm32c0xx/src/stm32c0xx_hal_rcc.c **** 
 1169              		.loc 1 725 71 view .LVU385
 1170 00f6 9268     		ldr	r2, [r2, #8]
 725:external/drivers/stm32c0xx/src/stm32c0xx_hal_rcc.c **** 
 1171              		.loc 1 725 19 view .LVU386
 1172 00f8 3648     		ldr	r0, .L147+32
 725:external/drivers/stm32c0xx/src/stm32c0xx_hal_rcc.c **** 
 1173              		.loc 1 725 95 view .LVU387
 1174 00fa 1205     		lsls	r2, r2, #20
 1175 00fc 120F     		lsrs	r2, r2, #28
 725:external/drivers/stm32c0xx/src/stm32c0xx_hal_rcc.c **** 
 1176              		.loc 1 725 66 view .LVU388
 1177 00fe 9200     		lsls	r2, r2, #2
 725:external/drivers/stm32c0xx/src/stm32c0xx_hal_rcc.c **** 
 1178              		.loc 1 725 118 view .LVU389
 1179 0100 5258     		ldr	r2, [r2, r1]
 1180 0102 1F21     		movs	r1, #31
 1181 0104 0A40     		ands	r2, r1
 725:external/drivers/stm32c0xx/src/stm32c0xx_hal_rcc.c **** 
 1182              		.loc 1 725 48 view .LVU390
 1183 0106 D340     		lsrs	r3, r3, r2
 725:external/drivers/stm32c0xx/src/stm32c0xx_hal_rcc.c **** 
 1184              		.loc 1 725 19 view .LVU391
 1185 0108 0360     		str	r3, [r0]
 728:external/drivers/stm32c0xx/src/stm32c0xx_hal_rcc.c **** }
 1186              		.loc 1 728 3 is_stmt 1 view .LVU392
 728:external/drivers/stm32c0xx/src/stm32c0xx_hal_rcc.c **** }
 1187              		.loc 1 728 10 is_stmt 0 view .LVU393
 1188 010a 334B     		ldr	r3, .L147+36
 1189 010c 1868     		ldr	r0, [r3]
 1190 010e FFF7FEFF 		bl	HAL_InitTick
 1191              	.LVL82:
 1192 0112 03E0     		b	.L92
 1193              	.L143:
ARM GAS  /tmp/ccdF5Ctr.s 			page 41


 652:external/drivers/stm32c0xx/src/stm32c0xx_hal_rcc.c ****       {
 1194              		.loc 1 652 7 is_stmt 1 view .LVU394
 652:external/drivers/stm32c0xx/src/stm32c0xx_hal_rcc.c ****       {
 1195              		.loc 1 652 11 is_stmt 0 view .LVU395
 1196 0114 1368     		ldr	r3, [r2]
 652:external/drivers/stm32c0xx/src/stm32c0xx_hal_rcc.c ****       {
 1197              		.loc 1 652 10 view .LVU396
 1198 0116 9B03     		lsls	r3, r3, #14
 1199 0118 A8D4     		bmi	.L105
 1200              	.L104:
 596:external/drivers/stm32c0xx/src/stm32c0xx_hal_rcc.c ****   }
 1201              		.loc 1 596 12 view .LVU397
 1202 011a 0120     		movs	r0, #1
 1203              	.L92:
 729:external/drivers/stm32c0xx/src/stm32c0xx_hal_rcc.c **** 
 1204              		.loc 1 729 1 view .LVU398
 1205              		@ sp needed
 1206              	.LVL83:
 1207              	.LVL84:
 729:external/drivers/stm32c0xx/src/stm32c0xx_hal_rcc.c **** 
 1208              		.loc 1 729 1 view .LVU399
 1209 011c C0BC     		pop	{r6, r7}
 1210 011e B946     		mov	r9, r7
 1211 0120 B046     		mov	r8, r6
 1212 0122 F8BD     		pop	{r3, r4, r5, r6, r7, pc}
 1213              	.LVL85:
 1214              	.L93:
 611:external/drivers/stm32c0xx/src/stm32c0xx_hal_rcc.c **** 
 1215              		.loc 1 611 5 is_stmt 1 view .LVU400
 1216 0124 3368     		ldr	r3, [r6]
 1217 0126 9343     		bics	r3, r2
 1218 0128 0B43     		orrs	r3, r1
 1219 012a 3360     		str	r3, [r6]
 615:external/drivers/stm32c0xx/src/stm32c0xx_hal_rcc.c **** 
 1220              		.loc 1 615 5 view .LVU401
 615:external/drivers/stm32c0xx/src/stm32c0xx_hal_rcc.c **** 
 1221              		.loc 1 615 17 is_stmt 0 view .LVU402
 1222 012c FFF7FEFF 		bl	HAL_GetTick
 1223              	.LVL86:
 617:external/drivers/stm32c0xx/src/stm32c0xx_hal_rcc.c ****     {
 1224              		.loc 1 617 24 view .LVU403
 1225 0130 0723     		movs	r3, #7
 1226 0132 9846     		mov	r8, r3
 619:external/drivers/stm32c0xx/src/stm32c0xx_hal_rcc.c ****       {
 1227              		.loc 1 619 10 view .LVU404
 1228 0134 234B     		ldr	r3, .L147+16
 615:external/drivers/stm32c0xx/src/stm32c0xx_hal_rcc.c **** 
 1229              		.loc 1 615 17 view .LVU405
 1230 0136 0700     		movs	r7, r0
 1231              	.LVL87:
 617:external/drivers/stm32c0xx/src/stm32c0xx_hal_rcc.c ****     {
 1232              		.loc 1 617 5 is_stmt 1 view .LVU406
 619:external/drivers/stm32c0xx/src/stm32c0xx_hal_rcc.c ****       {
 1233              		.loc 1 619 10 is_stmt 0 view .LVU407
 1234 0138 9946     		mov	r9, r3
 1235              	.LVL88:
 1236              	.L96:
ARM GAS  /tmp/ccdF5Ctr.s 			page 42


 617:external/drivers/stm32c0xx/src/stm32c0xx_hal_rcc.c ****     {
 1237              		.loc 1 617 45 is_stmt 1 view .LVU408
 617:external/drivers/stm32c0xx/src/stm32c0xx_hal_rcc.c ****     {
 1238              		.loc 1 617 24 is_stmt 0 view .LVU409
 1239 013a 4246     		mov	r2, r8
 617:external/drivers/stm32c0xx/src/stm32c0xx_hal_rcc.c ****     {
 1240              		.loc 1 617 18 view .LVU410
 1241 013c 3368     		ldr	r3, [r6]
 617:external/drivers/stm32c0xx/src/stm32c0xx_hal_rcc.c ****     {
 1242              		.loc 1 617 24 view .LVU411
 1243 013e 1340     		ands	r3, r2
 617:external/drivers/stm32c0xx/src/stm32c0xx_hal_rcc.c ****     {
 1244              		.loc 1 617 45 view .LVU412
 1245 0140 A342     		cmp	r3, r4
 1246 0142 00D1     		bne	.LCB1064
 1247 0144 6CE7     		b	.L98	@long jump
 1248              	.LCB1064:
 619:external/drivers/stm32c0xx/src/stm32c0xx_hal_rcc.c ****       {
 1249              		.loc 1 619 7 is_stmt 1 view .LVU413
 619:external/drivers/stm32c0xx/src/stm32c0xx_hal_rcc.c ****       {
 1250              		.loc 1 619 12 is_stmt 0 view .LVU414
 1251 0146 FFF7FEFF 		bl	HAL_GetTick
 1252              	.LVL89:
 619:external/drivers/stm32c0xx/src/stm32c0xx_hal_rcc.c ****       {
 1253              		.loc 1 619 26 view .LVU415
 1254 014a C01B     		subs	r0, r0, r7
 619:external/drivers/stm32c0xx/src/stm32c0xx_hal_rcc.c ****       {
 1255              		.loc 1 619 10 view .LVU416
 1256 014c 4845     		cmp	r0, r9
 1257 014e F4D9     		bls	.L96
 1258              	.L109:
 621:external/drivers/stm32c0xx/src/stm32c0xx_hal_rcc.c ****       }
 1259              		.loc 1 621 16 view .LVU417
 1260 0150 0320     		movs	r0, #3
 1261 0152 E3E7     		b	.L92
 1262              	.LVL90:
 1263              	.L145:
 1264              	.LBB22:
 1265              	.LBB19:
 875:external/drivers/stm32c0xx/src/stm32c0xx_hal_rcc.c **** 
 1266              		.loc 1 875 5 is_stmt 1 view .LVU418
 875:external/drivers/stm32c0xx/src/stm32c0xx_hal_rcc.c **** 
 1267              		.loc 1 875 24 is_stmt 0 view .LVU419
 1268 0154 1268     		ldr	r2, [r2]
 1269              	.LVL91:
 878:external/drivers/stm32c0xx/src/stm32c0xx_hal_rcc.c ****   }
 1270              		.loc 1 878 5 is_stmt 1 view .LVU420
 878:external/drivers/stm32c0xx/src/stm32c0xx_hal_rcc.c ****   }
 1271              		.loc 1 878 18 is_stmt 0 view .LVU421
 1272 0156 214B     		ldr	r3, .L147+40
 875:external/drivers/stm32c0xx/src/stm32c0xx_hal_rcc.c **** 
 1273              		.loc 1 875 58 view .LVU422
 1274 0158 9204     		lsls	r2, r2, #18
 1275              	.LVL92:
 875:external/drivers/stm32c0xx/src/stm32c0xx_hal_rcc.c **** 
 1276              		.loc 1 875 58 view .LVU423
 1277 015a 520F     		lsrs	r2, r2, #29
ARM GAS  /tmp/ccdF5Ctr.s 			page 43


 878:external/drivers/stm32c0xx/src/stm32c0xx_hal_rcc.c ****   }
 1278              		.loc 1 878 18 view .LVU424
 1279 015c D340     		lsrs	r3, r3, r2
 1280              	.LVL93:
 878:external/drivers/stm32c0xx/src/stm32c0xx_hal_rcc.c ****   }
 1281              		.loc 1 878 18 view .LVU425
 1282 015e C8E7     		b	.L117
 1283              	.LVL94:
 1284              	.L106:
 878:external/drivers/stm32c0xx/src/stm32c0xx_hal_rcc.c ****   }
 1285              		.loc 1 878 18 view .LVU426
 1286              	.LBE19:
 1287              	.LBE22:
 667:external/drivers/stm32c0xx/src/stm32c0xx_hal_rcc.c ****     {
 1288              		.loc 1 667 10 is_stmt 1 view .LVU427
 667:external/drivers/stm32c0xx/src/stm32c0xx_hal_rcc.c ****     {
 1289              		.loc 1 667 13 is_stmt 0 view .LVU428
 1290 0160 0329     		cmp	r1, #3
 1291 0162 1ED0     		beq	.L146
 679:external/drivers/stm32c0xx/src/stm32c0xx_hal_rcc.c ****       {
 1292              		.loc 1 679 7 is_stmt 1 view .LVU429
 679:external/drivers/stm32c0xx/src/stm32c0xx_hal_rcc.c ****       {
 1293              		.loc 1 679 11 is_stmt 0 view .LVU430
 1294 0164 D36D     		ldr	r3, [r2, #92]
 679:external/drivers/stm32c0xx/src/stm32c0xx_hal_rcc.c ****       {
 1295              		.loc 1 679 10 view .LVU431
 1296 0166 9B07     		lsls	r3, r3, #30
 1297 0168 00D5     		bpl	.LCB1111
 1298 016a 7FE7     		b	.L105	@long jump
 1299              	.LCB1111:
 1300 016c D5E7     		b	.L104
 1301              	.L144:
 702:external/drivers/stm32c0xx/src/stm32c0xx_hal_rcc.c **** 
 1302              		.loc 1 702 5 is_stmt 1 view .LVU432
 1303 016e 3368     		ldr	r3, [r6]
 1304 0170 9343     		bics	r3, r2
 1305 0172 2343     		orrs	r3, r4
 1306 0174 3360     		str	r3, [r6]
 706:external/drivers/stm32c0xx/src/stm32c0xx_hal_rcc.c **** 
 1307              		.loc 1 706 5 view .LVU433
 706:external/drivers/stm32c0xx/src/stm32c0xx_hal_rcc.c **** 
 1308              		.loc 1 706 17 is_stmt 0 view .LVU434
 1309 0176 FFF7FEFF 		bl	HAL_GetTick
 1310              	.LVL95:
 708:external/drivers/stm32c0xx/src/stm32c0xx_hal_rcc.c ****     {
 1311              		.loc 1 708 24 view .LVU435
 1312 017a 0723     		movs	r3, #7
 1313 017c 9846     		mov	r8, r3
 710:external/drivers/stm32c0xx/src/stm32c0xx_hal_rcc.c ****       {
 1314              		.loc 1 710 10 view .LVU436
 1315 017e 114B     		ldr	r3, .L147+16
 706:external/drivers/stm32c0xx/src/stm32c0xx_hal_rcc.c **** 
 1316              		.loc 1 706 17 view .LVU437
 1317 0180 0700     		movs	r7, r0
 1318              	.LVL96:
 708:external/drivers/stm32c0xx/src/stm32c0xx_hal_rcc.c ****     {
 1319              		.loc 1 708 5 is_stmt 1 view .LVU438
ARM GAS  /tmp/ccdF5Ctr.s 			page 44


 710:external/drivers/stm32c0xx/src/stm32c0xx_hal_rcc.c ****       {
 1320              		.loc 1 710 10 is_stmt 0 view .LVU439
 1321 0182 9946     		mov	r9, r3
 1322              	.LVL97:
 1323              	.L114:
 708:external/drivers/stm32c0xx/src/stm32c0xx_hal_rcc.c ****     {
 1324              		.loc 1 708 45 is_stmt 1 view .LVU440
 708:external/drivers/stm32c0xx/src/stm32c0xx_hal_rcc.c ****     {
 1325              		.loc 1 708 24 is_stmt 0 view .LVU441
 1326 0184 4246     		mov	r2, r8
 708:external/drivers/stm32c0xx/src/stm32c0xx_hal_rcc.c ****     {
 1327              		.loc 1 708 18 view .LVU442
 1328 0186 3368     		ldr	r3, [r6]
 708:external/drivers/stm32c0xx/src/stm32c0xx_hal_rcc.c ****     {
 1329              		.loc 1 708 24 view .LVU443
 1330 0188 1340     		ands	r3, r2
 708:external/drivers/stm32c0xx/src/stm32c0xx_hal_rcc.c ****     {
 1331              		.loc 1 708 45 view .LVU444
 1332 018a A342     		cmp	r3, r4
 1333 018c 00D1     		bne	.LCB1139
 1334 018e 8DE7     		b	.L102	@long jump
 1335              	.LCB1139:
 710:external/drivers/stm32c0xx/src/stm32c0xx_hal_rcc.c ****       {
 1336              		.loc 1 710 7 is_stmt 1 view .LVU445
 710:external/drivers/stm32c0xx/src/stm32c0xx_hal_rcc.c ****       {
 1337              		.loc 1 710 12 is_stmt 0 view .LVU446
 1338 0190 FFF7FEFF 		bl	HAL_GetTick
 1339              	.LVL98:
 710:external/drivers/stm32c0xx/src/stm32c0xx_hal_rcc.c ****       {
 1340              		.loc 1 710 26 view .LVU447
 1341 0194 C01B     		subs	r0, r0, r7
 710:external/drivers/stm32c0xx/src/stm32c0xx_hal_rcc.c ****       {
 1342              		.loc 1 710 10 view .LVU448
 1343 0196 4845     		cmp	r0, r9
 1344 0198 F4D9     		bls	.L114
 621:external/drivers/stm32c0xx/src/stm32c0xx_hal_rcc.c ****       }
 1345              		.loc 1 621 16 view .LVU449
 1346 019a 0320     		movs	r0, #3
 1347 019c BEE7     		b	.L92
 1348              	.LVL99:
 1349              	.L118:
 1350              	.LBB23:
 1351              	.LBB20:
 883:external/drivers/stm32c0xx/src/stm32c0xx_hal_rcc.c ****   }
 1352              		.loc 1 883 18 view .LVU450
 1353 019e 0F4B     		ldr	r3, .L147+40
 1354 01a0 A7E7     		b	.L117
 1355              	.L146:
 883:external/drivers/stm32c0xx/src/stm32c0xx_hal_rcc.c ****   }
 1356              		.loc 1 883 18 view .LVU451
 1357              	.LBE20:
 1358              	.LBE23:
 670:external/drivers/stm32c0xx/src/stm32c0xx_hal_rcc.c ****       {
 1359              		.loc 1 670 7 is_stmt 1 view .LVU452
 670:external/drivers/stm32c0xx/src/stm32c0xx_hal_rcc.c ****       {
 1360              		.loc 1 670 11 is_stmt 0 view .LVU453
 1361 01a2 136E     		ldr	r3, [r2, #96]
ARM GAS  /tmp/ccdF5Ctr.s 			page 45


 670:external/drivers/stm32c0xx/src/stm32c0xx_hal_rcc.c ****       {
 1362              		.loc 1 670 10 view .LVU454
 1363 01a4 9B07     		lsls	r3, r3, #30
 1364 01a6 00D5     		bpl	.LCB1169
 1365 01a8 60E7     		b	.L105	@long jump
 1366              	.LCB1169:
 1367 01aa B6E7     		b	.L104
 1368              	.L119:
 1369              	.LBB24:
 1370              	.LBB21:
 888:external/drivers/stm32c0xx/src/stm32c0xx_hal_rcc.c ****   }
 1371              		.loc 1 888 18 view .LVU455
 1372 01ac 8023     		movs	r3, #128
 1373 01ae 1B02     		lsls	r3, r3, #8
 1374 01b0 9FE7     		b	.L117
 1375              	.L148:
 1376 01b2 C046     		.align	2
 1377              	.L147:
 1378 01b4 00200240 		.word	1073881088
 1379 01b8 00100240 		.word	1073876992
 1380 01bc FF84FFFF 		.word	-31489
 1381 01c0 FFF0FFFF 		.word	-3841
 1382 01c4 88130000 		.word	5000
 1383 01c8 FF8FFFFF 		.word	-28673
 1384 01cc 0083FFFF 		.word	-32000
 1385 01d0 00000000 		.word	AHBPrescTable
 1386 01d4 00000000 		.word	SystemCoreClock
 1387 01d8 00000000 		.word	uwTickPrio
 1388 01dc 006CDC02 		.word	48000000
 1389              	.LBE21:
 1390              	.LBE24:
 1391              		.cfi_endproc
 1392              	.LFE216:
 1394              		.section	.text.HAL_RCC_MCOConfig,"ax",%progbits
 1395              		.align	1
 1396              		.p2align 2,,3
 1397              		.global	HAL_RCC_MCOConfig
 1398              		.syntax unified
 1399              		.code	16
 1400              		.thumb_func
 1402              	HAL_RCC_MCOConfig:
 1403              	.LVL100:
 1404              	.LFB217:
 786:external/drivers/stm32c0xx/src/stm32c0xx_hal_rcc.c ****   GPIO_InitTypeDef gpio_initstruct;
 1405              		.loc 1 786 1 is_stmt 1 view -0
 1406              		.cfi_startproc
 1407              		@ args = 0, pretend = 0, frame = 24
 1408              		@ frame_needed = 0, uses_anonymous_args = 0
 787:external/drivers/stm32c0xx/src/stm32c0xx_hal_rcc.c ****   uint32_t mcoindex;
 1409              		.loc 1 787 3 view .LVU457
 788:external/drivers/stm32c0xx/src/stm32c0xx_hal_rcc.c ****   uint32_t mco_gpio_index;
 1410              		.loc 1 788 3 view .LVU458
 789:external/drivers/stm32c0xx/src/stm32c0xx_hal_rcc.c ****   GPIO_TypeDef *mco_gpio_port;
 1411              		.loc 1 789 3 view .LVU459
 790:external/drivers/stm32c0xx/src/stm32c0xx_hal_rcc.c **** 
 1412              		.loc 1 790 3 view .LVU460
 793:external/drivers/stm32c0xx/src/stm32c0xx_hal_rcc.c **** 
ARM GAS  /tmp/ccdF5Ctr.s 			page 46


 1413              		.loc 1 793 3 view .LVU461
 796:external/drivers/stm32c0xx/src/stm32c0xx_hal_rcc.c ****   gpio_initstruct.Speed     = GPIO_SPEED_FREQ_VERY_HIGH;
 1414              		.loc 1 796 3 view .LVU462
 796:external/drivers/stm32c0xx/src/stm32c0xx_hal_rcc.c ****   gpio_initstruct.Speed     = GPIO_SPEED_FREQ_VERY_HIGH;
 1415              		.loc 1 796 29 is_stmt 0 view .LVU463
 1416 0000 0223     		movs	r3, #2
 786:external/drivers/stm32c0xx/src/stm32c0xx_hal_rcc.c ****   GPIO_InitTypeDef gpio_initstruct;
 1417              		.loc 1 786 1 view .LVU464
 1418 0002 F0B5     		push	{r4, r5, r6, r7, lr}
 1419              	.LCFI4:
 1420              		.cfi_def_cfa_offset 20
 1421              		.cfi_offset 4, -20
 1422              		.cfi_offset 5, -16
 1423              		.cfi_offset 6, -12
 1424              		.cfi_offset 7, -8
 1425              		.cfi_offset 14, -4
 1426 0004 87B0     		sub	sp, sp, #28
 1427              	.LCFI5:
 1428              		.cfi_def_cfa_offset 48
 796:external/drivers/stm32c0xx/src/stm32c0xx_hal_rcc.c ****   gpio_initstruct.Speed     = GPIO_SPEED_FREQ_VERY_HIGH;
 1429              		.loc 1 796 29 view .LVU465
 1430 0006 0293     		str	r3, [sp, #8]
 797:external/drivers/stm32c0xx/src/stm32c0xx_hal_rcc.c ****   gpio_initstruct.Pull      = GPIO_NOPULL;
 1431              		.loc 1 797 3 is_stmt 1 view .LVU466
 797:external/drivers/stm32c0xx/src/stm32c0xx_hal_rcc.c ****   gpio_initstruct.Pull      = GPIO_NOPULL;
 1432              		.loc 1 797 29 is_stmt 0 view .LVU467
 1433 0008 0133     		adds	r3, r3, #1
 1434 000a 0493     		str	r3, [sp, #16]
 798:external/drivers/stm32c0xx/src/stm32c0xx_hal_rcc.c **** 
 1435              		.loc 1 798 3 is_stmt 1 view .LVU468
 798:external/drivers/stm32c0xx/src/stm32c0xx_hal_rcc.c **** 
 1436              		.loc 1 798 29 is_stmt 0 view .LVU469
 1437 000c 0023     		movs	r3, #0
 786:external/drivers/stm32c0xx/src/stm32c0xx_hal_rcc.c ****   GPIO_InitTypeDef gpio_initstruct;
 1438              		.loc 1 786 1 view .LVU470
 1439 000e 0400     		movs	r4, r0
 798:external/drivers/stm32c0xx/src/stm32c0xx_hal_rcc.c **** 
 1440              		.loc 1 798 29 view .LVU471
 1441 0010 0393     		str	r3, [sp, #12]
 801:external/drivers/stm32c0xx/src/stm32c0xx_hal_rcc.c **** 
 1442              		.loc 1 801 3 is_stmt 1 view .LVU472
 1443              	.LVL101:
 804:external/drivers/stm32c0xx/src/stm32c0xx_hal_rcc.c **** 
 1444              		.loc 1 804 3 view .LVU473
 804:external/drivers/stm32c0xx/src/stm32c0xx_hal_rcc.c **** 
 1445              		.loc 1 804 36 is_stmt 0 view .LVU474
 1446 0012 0303     		lsls	r3, r0, #12
 808:external/drivers/stm32c0xx/src/stm32c0xx_hal_rcc.c **** 
 1447              		.loc 1 808 3 view .LVU475
 1448 0014 0120     		movs	r0, #1
 1449              	.LVL102:
 804:external/drivers/stm32c0xx/src/stm32c0xx_hal_rcc.c **** 
 1450              		.loc 1 804 36 view .LVU476
 1451 0016 1B0F     		lsrs	r3, r3, #28
 1452              	.LVL103:
 807:external/drivers/stm32c0xx/src/stm32c0xx_hal_rcc.c ****   SET_BIT(RCC->IOPENR, (1UL << mco_gpio_index));
 1453              		.loc 1 807 3 is_stmt 1 view .LVU477
ARM GAS  /tmp/ccdF5Ctr.s 			page 47


 808:external/drivers/stm32c0xx/src/stm32c0xx_hal_rcc.c **** 
 1454              		.loc 1 808 3 view .LVU478
 1455 0018 9840     		lsls	r0, r0, r3
 1456 001a 124F     		ldr	r7, .L152
 786:external/drivers/stm32c0xx/src/stm32c0xx_hal_rcc.c ****   GPIO_InitTypeDef gpio_initstruct;
 1457              		.loc 1 786 1 is_stmt 0 view .LVU479
 1458 001c 1600     		movs	r6, r2
 808:external/drivers/stm32c0xx/src/stm32c0xx_hal_rcc.c **** 
 1459              		.loc 1 808 3 view .LVU480
 1460 001e 7A6B     		ldr	r2, [r7, #52]
 1461              	.LVL104:
 786:external/drivers/stm32c0xx/src/stm32c0xx_hal_rcc.c ****   GPIO_InitTypeDef gpio_initstruct;
 1462              		.loc 1 786 1 view .LVU481
 1463 0020 0D00     		movs	r5, r1
 808:external/drivers/stm32c0xx/src/stm32c0xx_hal_rcc.c **** 
 1464              		.loc 1 808 3 view .LVU482
 1465 0022 1043     		orrs	r0, r2
 811:external/drivers/stm32c0xx/src/stm32c0xx_hal_rcc.c ****   gpio_initstruct.Alternate = RCC_GET_MCO_GPIO_AF(RCC_MCOx);
 1466              		.loc 1 811 25 view .LVU483
 1467 0024 2204     		lsls	r2, r4, #16
 1468 0026 120C     		lsrs	r2, r2, #16
 808:external/drivers/stm32c0xx/src/stm32c0xx_hal_rcc.c **** 
 1469              		.loc 1 808 3 view .LVU484
 1470 0028 7863     		str	r0, [r7, #52]
 811:external/drivers/stm32c0xx/src/stm32c0xx_hal_rcc.c ****   gpio_initstruct.Alternate = RCC_GET_MCO_GPIO_AF(RCC_MCOx);
 1471              		.loc 1 811 3 is_stmt 1 view .LVU485
 811:external/drivers/stm32c0xx/src/stm32c0xx_hal_rcc.c ****   gpio_initstruct.Alternate = RCC_GET_MCO_GPIO_AF(RCC_MCOx);
 1472              		.loc 1 811 23 is_stmt 0 view .LVU486
 1473 002a 0192     		str	r2, [sp, #4]
 812:external/drivers/stm32c0xx/src/stm32c0xx_hal_rcc.c ****   HAL_GPIO_Init(mco_gpio_port, &gpio_initstruct);
 1474              		.loc 1 812 3 is_stmt 1 view .LVU487
 812:external/drivers/stm32c0xx/src/stm32c0xx_hal_rcc.c ****   HAL_GPIO_Init(mco_gpio_port, &gpio_initstruct);
 1475              		.loc 1 812 31 is_stmt 0 view .LVU488
 1476 002c 2201     		lsls	r2, r4, #4
 1477 002e 120E     		lsrs	r2, r2, #24
 812:external/drivers/stm32c0xx/src/stm32c0xx_hal_rcc.c ****   HAL_GPIO_Init(mco_gpio_port, &gpio_initstruct);
 1478              		.loc 1 812 29 view .LVU489
 1479 0030 0592     		str	r2, [sp, #20]
 813:external/drivers/stm32c0xx/src/stm32c0xx_hal_rcc.c **** 
 1480              		.loc 1 813 3 is_stmt 1 view .LVU490
 804:external/drivers/stm32c0xx/src/stm32c0xx_hal_rcc.c **** 
 1481              		.loc 1 804 36 is_stmt 0 view .LVU491
 1482 0032 A022     		movs	r2, #160
 1483 0034 5203     		lsls	r2, r2, #13
 1484 0036 9446     		mov	ip, r2
 1485 0038 6344     		add	r3, r3, ip
 1486              	.LVL105:
 804:external/drivers/stm32c0xx/src/stm32c0xx_hal_rcc.c **** 
 1487              		.loc 1 804 36 view .LVU492
 1488 003a 9802     		lsls	r0, r3, #10
 813:external/drivers/stm32c0xx/src/stm32c0xx_hal_rcc.c **** 
 1489              		.loc 1 813 3 view .LVU493
 1490 003c 01A9     		add	r1, sp, #4
 1491              	.LVL106:
 813:external/drivers/stm32c0xx/src/stm32c0xx_hal_rcc.c **** 
 1492              		.loc 1 813 3 view .LVU494
 1493 003e FFF7FEFF 		bl	HAL_GPIO_Init
ARM GAS  /tmp/ccdF5Ctr.s 			page 48


 1494              	.LVL107:
 815:external/drivers/stm32c0xx/src/stm32c0xx_hal_rcc.c ****   {
 1495              		.loc 1 815 3 is_stmt 1 view .LVU495
 1496              	.LBB25:
 1497              	.LBB26:
 1498              		.file 2 "external/drivers/stm32c0xx/include/stm32c0xx_ll_rcc.h"
   1:external/drivers/stm32c0xx/include/stm32c0xx_ll_rcc.h **** /**
   2:external/drivers/stm32c0xx/include/stm32c0xx_ll_rcc.h ****   ******************************************************************************
   3:external/drivers/stm32c0xx/include/stm32c0xx_ll_rcc.h ****   * @file    stm32c0xx_ll_rcc.h
   4:external/drivers/stm32c0xx/include/stm32c0xx_ll_rcc.h ****   * @author  MCD Application Team
   5:external/drivers/stm32c0xx/include/stm32c0xx_ll_rcc.h ****   * @brief   Header file of RCC LL module.
   6:external/drivers/stm32c0xx/include/stm32c0xx_ll_rcc.h ****   ******************************************************************************
   7:external/drivers/stm32c0xx/include/stm32c0xx_ll_rcc.h ****   * @attention
   8:external/drivers/stm32c0xx/include/stm32c0xx_ll_rcc.h ****   *
   9:external/drivers/stm32c0xx/include/stm32c0xx_ll_rcc.h ****   * Copyright (c) 2022 STMicroelectronics.
  10:external/drivers/stm32c0xx/include/stm32c0xx_ll_rcc.h ****   * All rights reserved.
  11:external/drivers/stm32c0xx/include/stm32c0xx_ll_rcc.h ****   *
  12:external/drivers/stm32c0xx/include/stm32c0xx_ll_rcc.h ****   * This software is licensed under terms that can be found in the LICENSE file
  13:external/drivers/stm32c0xx/include/stm32c0xx_ll_rcc.h ****   * in the root directory of this software component.
  14:external/drivers/stm32c0xx/include/stm32c0xx_ll_rcc.h ****   * If no LICENSE file comes with this software, it is provided AS-IS.
  15:external/drivers/stm32c0xx/include/stm32c0xx_ll_rcc.h ****   *
  16:external/drivers/stm32c0xx/include/stm32c0xx_ll_rcc.h ****   ******************************************************************************
  17:external/drivers/stm32c0xx/include/stm32c0xx_ll_rcc.h ****   */
  18:external/drivers/stm32c0xx/include/stm32c0xx_ll_rcc.h **** 
  19:external/drivers/stm32c0xx/include/stm32c0xx_ll_rcc.h **** /* Define to prevent recursive inclusion -------------------------------------*/
  20:external/drivers/stm32c0xx/include/stm32c0xx_ll_rcc.h **** #ifndef STM32C0xx_LL_RCC_H
  21:external/drivers/stm32c0xx/include/stm32c0xx_ll_rcc.h **** #define STM32C0xx_LL_RCC_H
  22:external/drivers/stm32c0xx/include/stm32c0xx_ll_rcc.h **** 
  23:external/drivers/stm32c0xx/include/stm32c0xx_ll_rcc.h **** #ifdef __cplusplus
  24:external/drivers/stm32c0xx/include/stm32c0xx_ll_rcc.h **** extern "C" {
  25:external/drivers/stm32c0xx/include/stm32c0xx_ll_rcc.h **** #endif
  26:external/drivers/stm32c0xx/include/stm32c0xx_ll_rcc.h **** 
  27:external/drivers/stm32c0xx/include/stm32c0xx_ll_rcc.h **** /* Includes ------------------------------------------------------------------*/
  28:external/drivers/stm32c0xx/include/stm32c0xx_ll_rcc.h **** #include "stm32c0xx.h"
  29:external/drivers/stm32c0xx/include/stm32c0xx_ll_rcc.h **** 
  30:external/drivers/stm32c0xx/include/stm32c0xx_ll_rcc.h **** /** @addtogroup STM32C0xx_LL_Driver
  31:external/drivers/stm32c0xx/include/stm32c0xx_ll_rcc.h ****   * @{
  32:external/drivers/stm32c0xx/include/stm32c0xx_ll_rcc.h ****   */
  33:external/drivers/stm32c0xx/include/stm32c0xx_ll_rcc.h **** 
  34:external/drivers/stm32c0xx/include/stm32c0xx_ll_rcc.h **** #if defined(RCC)
  35:external/drivers/stm32c0xx/include/stm32c0xx_ll_rcc.h **** 
  36:external/drivers/stm32c0xx/include/stm32c0xx_ll_rcc.h **** /** @defgroup RCC_LL RCC
  37:external/drivers/stm32c0xx/include/stm32c0xx_ll_rcc.h ****   * @{
  38:external/drivers/stm32c0xx/include/stm32c0xx_ll_rcc.h ****   */
  39:external/drivers/stm32c0xx/include/stm32c0xx_ll_rcc.h **** 
  40:external/drivers/stm32c0xx/include/stm32c0xx_ll_rcc.h **** /* Private types -------------------------------------------------------------*/
  41:external/drivers/stm32c0xx/include/stm32c0xx_ll_rcc.h **** /* Private variables ---------------------------------------------------------*/
  42:external/drivers/stm32c0xx/include/stm32c0xx_ll_rcc.h **** /** @defgroup RCC_LL_Private_Variables RCC Private Variables
  43:external/drivers/stm32c0xx/include/stm32c0xx_ll_rcc.h ****   * @{
  44:external/drivers/stm32c0xx/include/stm32c0xx_ll_rcc.h ****   */
  45:external/drivers/stm32c0xx/include/stm32c0xx_ll_rcc.h **** 
  46:external/drivers/stm32c0xx/include/stm32c0xx_ll_rcc.h **** 
  47:external/drivers/stm32c0xx/include/stm32c0xx_ll_rcc.h **** /**
  48:external/drivers/stm32c0xx/include/stm32c0xx_ll_rcc.h ****   * @}
  49:external/drivers/stm32c0xx/include/stm32c0xx_ll_rcc.h ****   */
  50:external/drivers/stm32c0xx/include/stm32c0xx_ll_rcc.h **** 
  51:external/drivers/stm32c0xx/include/stm32c0xx_ll_rcc.h **** /* Private constants ---------------------------------------------------------*/
ARM GAS  /tmp/ccdF5Ctr.s 			page 49


  52:external/drivers/stm32c0xx/include/stm32c0xx_ll_rcc.h **** /* Private macros ------------------------------------------------------------*/
  53:external/drivers/stm32c0xx/include/stm32c0xx_ll_rcc.h **** #if defined(USE_FULL_LL_DRIVER)
  54:external/drivers/stm32c0xx/include/stm32c0xx_ll_rcc.h **** /** @defgroup RCC_LL_Private_Macros RCC Private Macros
  55:external/drivers/stm32c0xx/include/stm32c0xx_ll_rcc.h ****   * @{
  56:external/drivers/stm32c0xx/include/stm32c0xx_ll_rcc.h ****   */
  57:external/drivers/stm32c0xx/include/stm32c0xx_ll_rcc.h **** /**
  58:external/drivers/stm32c0xx/include/stm32c0xx_ll_rcc.h ****   * @}
  59:external/drivers/stm32c0xx/include/stm32c0xx_ll_rcc.h ****   */
  60:external/drivers/stm32c0xx/include/stm32c0xx_ll_rcc.h **** #endif /*USE_FULL_LL_DRIVER*/
  61:external/drivers/stm32c0xx/include/stm32c0xx_ll_rcc.h **** 
  62:external/drivers/stm32c0xx/include/stm32c0xx_ll_rcc.h **** /* Exported types ------------------------------------------------------------*/
  63:external/drivers/stm32c0xx/include/stm32c0xx_ll_rcc.h **** #if defined(USE_FULL_LL_DRIVER)
  64:external/drivers/stm32c0xx/include/stm32c0xx_ll_rcc.h **** /** @defgroup RCC_LL_Exported_Types RCC Exported Types
  65:external/drivers/stm32c0xx/include/stm32c0xx_ll_rcc.h ****   * @{
  66:external/drivers/stm32c0xx/include/stm32c0xx_ll_rcc.h ****   */
  67:external/drivers/stm32c0xx/include/stm32c0xx_ll_rcc.h **** 
  68:external/drivers/stm32c0xx/include/stm32c0xx_ll_rcc.h **** /** @defgroup LL_ES_CLOCK_FREQ Clocks Frequency Structure
  69:external/drivers/stm32c0xx/include/stm32c0xx_ll_rcc.h ****   * @{
  70:external/drivers/stm32c0xx/include/stm32c0xx_ll_rcc.h ****   */
  71:external/drivers/stm32c0xx/include/stm32c0xx_ll_rcc.h **** 
  72:external/drivers/stm32c0xx/include/stm32c0xx_ll_rcc.h **** /**
  73:external/drivers/stm32c0xx/include/stm32c0xx_ll_rcc.h ****   * @brief  RCC Clocks Frequency Structure
  74:external/drivers/stm32c0xx/include/stm32c0xx_ll_rcc.h ****   */
  75:external/drivers/stm32c0xx/include/stm32c0xx_ll_rcc.h **** typedef struct
  76:external/drivers/stm32c0xx/include/stm32c0xx_ll_rcc.h **** {
  77:external/drivers/stm32c0xx/include/stm32c0xx_ll_rcc.h ****   uint32_t SYSCLK_Frequency;        /*!< SYSCLK clock frequency */
  78:external/drivers/stm32c0xx/include/stm32c0xx_ll_rcc.h ****   uint32_t HCLK_Frequency;          /*!< HCLK clock frequency */
  79:external/drivers/stm32c0xx/include/stm32c0xx_ll_rcc.h ****   uint32_t PCLK1_Frequency;         /*!< PCLK1 clock frequency */
  80:external/drivers/stm32c0xx/include/stm32c0xx_ll_rcc.h **** } LL_RCC_ClocksTypeDef;
  81:external/drivers/stm32c0xx/include/stm32c0xx_ll_rcc.h **** 
  82:external/drivers/stm32c0xx/include/stm32c0xx_ll_rcc.h **** /**
  83:external/drivers/stm32c0xx/include/stm32c0xx_ll_rcc.h ****   * @}
  84:external/drivers/stm32c0xx/include/stm32c0xx_ll_rcc.h ****   */
  85:external/drivers/stm32c0xx/include/stm32c0xx_ll_rcc.h **** 
  86:external/drivers/stm32c0xx/include/stm32c0xx_ll_rcc.h **** /**
  87:external/drivers/stm32c0xx/include/stm32c0xx_ll_rcc.h ****   * @}
  88:external/drivers/stm32c0xx/include/stm32c0xx_ll_rcc.h ****   */
  89:external/drivers/stm32c0xx/include/stm32c0xx_ll_rcc.h **** #endif /* USE_FULL_LL_DRIVER */
  90:external/drivers/stm32c0xx/include/stm32c0xx_ll_rcc.h **** 
  91:external/drivers/stm32c0xx/include/stm32c0xx_ll_rcc.h **** /* Exported constants --------------------------------------------------------*/
  92:external/drivers/stm32c0xx/include/stm32c0xx_ll_rcc.h **** /** @defgroup RCC_LL_Exported_Constants RCC Exported Constants
  93:external/drivers/stm32c0xx/include/stm32c0xx_ll_rcc.h ****   * @{
  94:external/drivers/stm32c0xx/include/stm32c0xx_ll_rcc.h ****   */
  95:external/drivers/stm32c0xx/include/stm32c0xx_ll_rcc.h **** 
  96:external/drivers/stm32c0xx/include/stm32c0xx_ll_rcc.h **** /** @defgroup RCC_LL_EC_OSC_VALUES Oscillator Values adaptation
  97:external/drivers/stm32c0xx/include/stm32c0xx_ll_rcc.h ****   * @brief    Defines used to adapt values of different oscillators
  98:external/drivers/stm32c0xx/include/stm32c0xx_ll_rcc.h ****   * @note     These values could be modified in the user environment according to
  99:external/drivers/stm32c0xx/include/stm32c0xx_ll_rcc.h ****   *           HW set-up.
 100:external/drivers/stm32c0xx/include/stm32c0xx_ll_rcc.h ****   * @{
 101:external/drivers/stm32c0xx/include/stm32c0xx_ll_rcc.h ****   */
 102:external/drivers/stm32c0xx/include/stm32c0xx_ll_rcc.h **** #if !defined  (HSE_VALUE)
 103:external/drivers/stm32c0xx/include/stm32c0xx_ll_rcc.h **** #define HSE_VALUE    48000000U   /*!< Value of the HSE oscillator in Hz */
 104:external/drivers/stm32c0xx/include/stm32c0xx_ll_rcc.h **** #endif /* HSE_VALUE */
 105:external/drivers/stm32c0xx/include/stm32c0xx_ll_rcc.h **** 
 106:external/drivers/stm32c0xx/include/stm32c0xx_ll_rcc.h **** #if !defined  (HSI_VALUE)
 107:external/drivers/stm32c0xx/include/stm32c0xx_ll_rcc.h **** #define HSI_VALUE    48000000U  /*!< Value of the HSI oscillator in Hz */
 108:external/drivers/stm32c0xx/include/stm32c0xx_ll_rcc.h **** #endif /* HSI_VALUE */
ARM GAS  /tmp/ccdF5Ctr.s 			page 50


 109:external/drivers/stm32c0xx/include/stm32c0xx_ll_rcc.h **** 
 110:external/drivers/stm32c0xx/include/stm32c0xx_ll_rcc.h **** #if !defined  (LSE_VALUE)
 111:external/drivers/stm32c0xx/include/stm32c0xx_ll_rcc.h **** #define LSE_VALUE    32768U     /*!< Value of the LSE oscillator in Hz */
 112:external/drivers/stm32c0xx/include/stm32c0xx_ll_rcc.h **** #endif /* LSE_VALUE */
 113:external/drivers/stm32c0xx/include/stm32c0xx_ll_rcc.h **** 
 114:external/drivers/stm32c0xx/include/stm32c0xx_ll_rcc.h **** #if !defined  (LSI_VALUE)
 115:external/drivers/stm32c0xx/include/stm32c0xx_ll_rcc.h **** #define LSI_VALUE    32000U     /*!< Value of the LSI oscillator in Hz */
 116:external/drivers/stm32c0xx/include/stm32c0xx_ll_rcc.h **** #endif /* LSI_VALUE */
 117:external/drivers/stm32c0xx/include/stm32c0xx_ll_rcc.h **** #if !defined  (EXTERNAL_CLOCK_VALUE)
 118:external/drivers/stm32c0xx/include/stm32c0xx_ll_rcc.h **** #define EXTERNAL_CLOCK_VALUE    48000000U /*!< Value of the I2S_CKIN external oscillator in Hz */
 119:external/drivers/stm32c0xx/include/stm32c0xx_ll_rcc.h **** #endif /* EXTERNAL_CLOCK_VALUE */
 120:external/drivers/stm32c0xx/include/stm32c0xx_ll_rcc.h **** /**
 121:external/drivers/stm32c0xx/include/stm32c0xx_ll_rcc.h ****   * @}
 122:external/drivers/stm32c0xx/include/stm32c0xx_ll_rcc.h ****   */
 123:external/drivers/stm32c0xx/include/stm32c0xx_ll_rcc.h **** 
 124:external/drivers/stm32c0xx/include/stm32c0xx_ll_rcc.h **** /** @defgroup RCC_LL_EC_CLEAR_FLAG Clear Flags Defines
 125:external/drivers/stm32c0xx/include/stm32c0xx_ll_rcc.h ****   * @brief    Flags defines which can be used with LL_RCC_WriteReg function
 126:external/drivers/stm32c0xx/include/stm32c0xx_ll_rcc.h ****   * @{
 127:external/drivers/stm32c0xx/include/stm32c0xx_ll_rcc.h ****   */
 128:external/drivers/stm32c0xx/include/stm32c0xx_ll_rcc.h **** #define LL_RCC_CICR_LSIRDYC                RCC_CICR_LSIRDYC     /*!< LSI Ready Interrupt Clear */
 129:external/drivers/stm32c0xx/include/stm32c0xx_ll_rcc.h **** #define LL_RCC_CICR_LSERDYC                RCC_CICR_LSERDYC     /*!< LSE Ready Interrupt Clear */
 130:external/drivers/stm32c0xx/include/stm32c0xx_ll_rcc.h **** #define LL_RCC_CICR_HSIRDYC                RCC_CICR_HSIRDYC     /*!< HSI Ready Interrupt Clear */
 131:external/drivers/stm32c0xx/include/stm32c0xx_ll_rcc.h **** #define LL_RCC_CICR_HSERDYC                RCC_CICR_HSERDYC     /*!< HSE Ready Interrupt Clear */
 132:external/drivers/stm32c0xx/include/stm32c0xx_ll_rcc.h **** #define LL_RCC_CICR_LSECSSC                RCC_CICR_LSECSSC     /*!< LSE Clock Security System Inte
 133:external/drivers/stm32c0xx/include/stm32c0xx_ll_rcc.h **** #define LL_RCC_CICR_CSSC                   RCC_CICR_CSSC        /*!< Clock Security System Interrup
 134:external/drivers/stm32c0xx/include/stm32c0xx_ll_rcc.h **** /**
 135:external/drivers/stm32c0xx/include/stm32c0xx_ll_rcc.h ****   * @}
 136:external/drivers/stm32c0xx/include/stm32c0xx_ll_rcc.h ****   */
 137:external/drivers/stm32c0xx/include/stm32c0xx_ll_rcc.h **** 
 138:external/drivers/stm32c0xx/include/stm32c0xx_ll_rcc.h **** /** @defgroup RCC_LL_EC_GET_FLAG Get Flags Defines
 139:external/drivers/stm32c0xx/include/stm32c0xx_ll_rcc.h ****   * @brief    Flags defines which can be used with LL_RCC_ReadReg function
 140:external/drivers/stm32c0xx/include/stm32c0xx_ll_rcc.h ****   * @{
 141:external/drivers/stm32c0xx/include/stm32c0xx_ll_rcc.h ****   */
 142:external/drivers/stm32c0xx/include/stm32c0xx_ll_rcc.h **** #define LL_RCC_CIFR_LSIRDYF                RCC_CIFR_LSIRDYF     /*!< LSI Ready Interrupt flag */
 143:external/drivers/stm32c0xx/include/stm32c0xx_ll_rcc.h **** #define LL_RCC_CIFR_LSERDYF                RCC_CIFR_LSERDYF     /*!< LSE Ready Interrupt flag */
 144:external/drivers/stm32c0xx/include/stm32c0xx_ll_rcc.h **** #define LL_RCC_CIFR_HSIRDYF                RCC_CIFR_HSIRDYF     /*!< HSI Ready Interrupt flag */
 145:external/drivers/stm32c0xx/include/stm32c0xx_ll_rcc.h **** #define LL_RCC_CIFR_HSERDYF                RCC_CIFR_HSERDYF     /*!< HSE Ready Interrupt flag */
 146:external/drivers/stm32c0xx/include/stm32c0xx_ll_rcc.h **** #define LL_RCC_CIFR_LSECSSF                RCC_CIFR_LSECSSF     /*!< LSE Clock Security System Inte
 147:external/drivers/stm32c0xx/include/stm32c0xx_ll_rcc.h **** #define LL_RCC_CIFR_CSSF                   RCC_CIFR_CSSF        /*!< Clock Security System Interrup
 148:external/drivers/stm32c0xx/include/stm32c0xx_ll_rcc.h **** #define LL_RCC_CSR_LPWRRSTF                RCC_CSR_LPWRRSTF     /*!< Low-Power reset flag */
 149:external/drivers/stm32c0xx/include/stm32c0xx_ll_rcc.h **** #define LL_RCC_CSR_OBLRSTF                 RCC_CSR_OBLRSTF      /*!< OBL reset flag */
 150:external/drivers/stm32c0xx/include/stm32c0xx_ll_rcc.h **** #define LL_RCC_CSR_PINRSTF                 RCC_CSR_PINRSTF      /*!< PIN reset flag */
 151:external/drivers/stm32c0xx/include/stm32c0xx_ll_rcc.h **** #define LL_RCC_CSR_SFTRSTF                 RCC_CSR_SFTRSTF      /*!< Software Reset flag */
 152:external/drivers/stm32c0xx/include/stm32c0xx_ll_rcc.h **** #define LL_RCC_CSR_IWDGRSTF                RCC_CSR_IWDGRSTF     /*!< Independent Watchdog reset fla
 153:external/drivers/stm32c0xx/include/stm32c0xx_ll_rcc.h **** #define LL_RCC_CSR_WWDGRSTF                RCC_CSR_WWDGRSTF     /*!< Window watchdog reset flag */
 154:external/drivers/stm32c0xx/include/stm32c0xx_ll_rcc.h **** #define LL_RCC_CSR_PWRRSTF                 RCC_CSR_PWRRSTF      /*!< BOR or POR/PDR reset flag */
 155:external/drivers/stm32c0xx/include/stm32c0xx_ll_rcc.h **** /**
 156:external/drivers/stm32c0xx/include/stm32c0xx_ll_rcc.h ****   * @}
 157:external/drivers/stm32c0xx/include/stm32c0xx_ll_rcc.h ****   */
 158:external/drivers/stm32c0xx/include/stm32c0xx_ll_rcc.h **** 
 159:external/drivers/stm32c0xx/include/stm32c0xx_ll_rcc.h **** /** @defgroup RCC_LL_EC_IT IT Defines
 160:external/drivers/stm32c0xx/include/stm32c0xx_ll_rcc.h ****   * @brief    IT defines which can be used with LL_RCC_ReadReg and  LL_RCC_WriteReg functions
 161:external/drivers/stm32c0xx/include/stm32c0xx_ll_rcc.h ****   * @{
 162:external/drivers/stm32c0xx/include/stm32c0xx_ll_rcc.h ****   */
 163:external/drivers/stm32c0xx/include/stm32c0xx_ll_rcc.h **** #define LL_RCC_CIER_LSIRDYIE               RCC_CIER_LSIRDYIE      /*!< LSI Ready Interrupt Enable *
 164:external/drivers/stm32c0xx/include/stm32c0xx_ll_rcc.h **** #define LL_RCC_CIER_LSERDYIE               RCC_CIER_LSERDYIE      /*!< LSE Ready Interrupt Enable *
 165:external/drivers/stm32c0xx/include/stm32c0xx_ll_rcc.h **** #define LL_RCC_CIER_HSIRDYIE               RCC_CIER_HSIRDYIE      /*!< HSI Ready Interrupt Enable *
ARM GAS  /tmp/ccdF5Ctr.s 			page 51


 166:external/drivers/stm32c0xx/include/stm32c0xx_ll_rcc.h **** #define LL_RCC_CIER_HSERDYIE               RCC_CIER_HSERDYIE      /*!< HSE Ready Interrupt Enable *
 167:external/drivers/stm32c0xx/include/stm32c0xx_ll_rcc.h **** /**
 168:external/drivers/stm32c0xx/include/stm32c0xx_ll_rcc.h ****   * @}
 169:external/drivers/stm32c0xx/include/stm32c0xx_ll_rcc.h ****   */
 170:external/drivers/stm32c0xx/include/stm32c0xx_ll_rcc.h **** 
 171:external/drivers/stm32c0xx/include/stm32c0xx_ll_rcc.h **** /** @defgroup RCC_LL_EC_LSEDRIVE  LSE oscillator drive capability
 172:external/drivers/stm32c0xx/include/stm32c0xx_ll_rcc.h ****   * @{
 173:external/drivers/stm32c0xx/include/stm32c0xx_ll_rcc.h ****   */
 174:external/drivers/stm32c0xx/include/stm32c0xx_ll_rcc.h **** #define LL_RCC_LSEDRIVE_LOW                0x00000000U             /*!< Xtal mode lower driving cap
 175:external/drivers/stm32c0xx/include/stm32c0xx_ll_rcc.h **** #define LL_RCC_LSEDRIVE_MEDIUMLOW          RCC_CSR1_LSEDRV_0       /*!< Xtal mode medium low drivin
 176:external/drivers/stm32c0xx/include/stm32c0xx_ll_rcc.h **** #define LL_RCC_LSEDRIVE_MEDIUMHIGH         RCC_CSR1_LSEDRV_1       /*!< Xtal mode medium high drivi
 177:external/drivers/stm32c0xx/include/stm32c0xx_ll_rcc.h **** #define LL_RCC_LSEDRIVE_HIGH               RCC_CSR1_LSEDRV         /*!< Xtal mode higher driving ca
 178:external/drivers/stm32c0xx/include/stm32c0xx_ll_rcc.h **** /**
 179:external/drivers/stm32c0xx/include/stm32c0xx_ll_rcc.h ****   * @}
 180:external/drivers/stm32c0xx/include/stm32c0xx_ll_rcc.h ****   */
 181:external/drivers/stm32c0xx/include/stm32c0xx_ll_rcc.h **** 
 182:external/drivers/stm32c0xx/include/stm32c0xx_ll_rcc.h **** /** @defgroup RCC_LL_EC_LSCO_CLKSOURCE  LSCO Selection
 183:external/drivers/stm32c0xx/include/stm32c0xx_ll_rcc.h ****   * @{
 184:external/drivers/stm32c0xx/include/stm32c0xx_ll_rcc.h ****   */
 185:external/drivers/stm32c0xx/include/stm32c0xx_ll_rcc.h **** #define LL_RCC_LSCO_CLKSOURCE_LSI          0x00000000U                 /*!< LSI selection for low s
 186:external/drivers/stm32c0xx/include/stm32c0xx_ll_rcc.h **** #define LL_RCC_LSCO_CLKSOURCE_LSE          RCC_CSR1_LSCOSEL            /*!< LSE selection for low s
 187:external/drivers/stm32c0xx/include/stm32c0xx_ll_rcc.h **** /**
 188:external/drivers/stm32c0xx/include/stm32c0xx_ll_rcc.h ****   * @}
 189:external/drivers/stm32c0xx/include/stm32c0xx_ll_rcc.h ****   */
 190:external/drivers/stm32c0xx/include/stm32c0xx_ll_rcc.h **** 
 191:external/drivers/stm32c0xx/include/stm32c0xx_ll_rcc.h **** /** @defgroup RCC_LL_EC_SYS_CLKSOURCE  System clock switch
 192:external/drivers/stm32c0xx/include/stm32c0xx_ll_rcc.h ****   * @{
 193:external/drivers/stm32c0xx/include/stm32c0xx_ll_rcc.h ****   */
 194:external/drivers/stm32c0xx/include/stm32c0xx_ll_rcc.h **** #define LL_RCC_SYS_CLKSOURCE_HSI           0x00000000U                        /*!< HSI selection as
 195:external/drivers/stm32c0xx/include/stm32c0xx_ll_rcc.h **** #define LL_RCC_SYS_CLKSOURCE_HSE           RCC_CFGR_SW_0                      /*!< HSE selection as
 196:external/drivers/stm32c0xx/include/stm32c0xx_ll_rcc.h **** #define LL_RCC_SYS_CLKSOURCE_LSI           (RCC_CFGR_SW_1 | RCC_CFGR_SW_0)    /*!< LSI selection us
 197:external/drivers/stm32c0xx/include/stm32c0xx_ll_rcc.h **** #define LL_RCC_SYS_CLKSOURCE_LSE           RCC_CFGR_SW_2                      /*!< LSE selection us
 198:external/drivers/stm32c0xx/include/stm32c0xx_ll_rcc.h **** /**
 199:external/drivers/stm32c0xx/include/stm32c0xx_ll_rcc.h ****   * @}
 200:external/drivers/stm32c0xx/include/stm32c0xx_ll_rcc.h ****   */
 201:external/drivers/stm32c0xx/include/stm32c0xx_ll_rcc.h **** 
 202:external/drivers/stm32c0xx/include/stm32c0xx_ll_rcc.h **** /** @defgroup RCC_LL_EC_SYS_CLKSOURCE_STATUS  System clock switch status
 203:external/drivers/stm32c0xx/include/stm32c0xx_ll_rcc.h ****   * @{
 204:external/drivers/stm32c0xx/include/stm32c0xx_ll_rcc.h ****   */
 205:external/drivers/stm32c0xx/include/stm32c0xx_ll_rcc.h **** #define LL_RCC_SYS_CLKSOURCE_STATUS_HSI    0x00000000U                         /*!< HSI used as sys
 206:external/drivers/stm32c0xx/include/stm32c0xx_ll_rcc.h **** #define LL_RCC_SYS_CLKSOURCE_STATUS_HSE    RCC_CFGR_SWS_0                      /*!< HSE used as sys
 207:external/drivers/stm32c0xx/include/stm32c0xx_ll_rcc.h **** #define LL_RCC_SYS_CLKSOURCE_STATUS_LSI    (RCC_CFGR_SWS_1 | RCC_CFGR_SWS_0)   /*!< LSI used as sys
 208:external/drivers/stm32c0xx/include/stm32c0xx_ll_rcc.h **** #define LL_RCC_SYS_CLKSOURCE_STATUS_LSE    RCC_CFGR_SWS_2                      /*!< LSE used as sys
 209:external/drivers/stm32c0xx/include/stm32c0xx_ll_rcc.h **** /**
 210:external/drivers/stm32c0xx/include/stm32c0xx_ll_rcc.h ****   * @}
 211:external/drivers/stm32c0xx/include/stm32c0xx_ll_rcc.h ****   */
 212:external/drivers/stm32c0xx/include/stm32c0xx_ll_rcc.h **** 
 213:external/drivers/stm32c0xx/include/stm32c0xx_ll_rcc.h **** /** @defgroup RCC_LL_EC_SYSCLK_DIV  AHB prescaler
 214:external/drivers/stm32c0xx/include/stm32c0xx_ll_rcc.h ****   * @{
 215:external/drivers/stm32c0xx/include/stm32c0xx_ll_rcc.h ****   */
 216:external/drivers/stm32c0xx/include/stm32c0xx_ll_rcc.h **** #define LL_RCC_SYSCLK_DIV_1                0x00000000U                                             
 217:external/drivers/stm32c0xx/include/stm32c0xx_ll_rcc.h **** /**
 218:external/drivers/stm32c0xx/include/stm32c0xx_ll_rcc.h ****   * @}
 219:external/drivers/stm32c0xx/include/stm32c0xx_ll_rcc.h ****   */
 220:external/drivers/stm32c0xx/include/stm32c0xx_ll_rcc.h **** 
 221:external/drivers/stm32c0xx/include/stm32c0xx_ll_rcc.h **** /** @defgroup RCC_HCLK_Clock_Source  RCC HCLK Clock Source
 222:external/drivers/stm32c0xx/include/stm32c0xx_ll_rcc.h ****   * @{
ARM GAS  /tmp/ccdF5Ctr.s 			page 52


 223:external/drivers/stm32c0xx/include/stm32c0xx_ll_rcc.h ****   */
 224:external/drivers/stm32c0xx/include/stm32c0xx_ll_rcc.h **** #define LL_RCC_HCLK_DIV_1                  0x00000000U                                             
 225:external/drivers/stm32c0xx/include/stm32c0xx_ll_rcc.h **** #define LL_RCC_HCLK_DIV_2                  RCC_CFGR_HPRE_3                                         
 226:external/drivers/stm32c0xx/include/stm32c0xx_ll_rcc.h **** #define LL_RCC_HCLK_DIV_4                  (RCC_CFGR_HPRE_3 | RCC_CFGR_HPRE_0)                     
 227:external/drivers/stm32c0xx/include/stm32c0xx_ll_rcc.h **** #define LL_RCC_HCLK_DIV_8                  (RCC_CFGR_HPRE_3 | RCC_CFGR_HPRE_1)                     
 228:external/drivers/stm32c0xx/include/stm32c0xx_ll_rcc.h **** #define LL_RCC_HCLK_DIV_16                 (RCC_CFGR_HPRE_3 | RCC_CFGR_HPRE_1 | RCC_CFGR_HPRE_0)   
 229:external/drivers/stm32c0xx/include/stm32c0xx_ll_rcc.h **** #define LL_RCC_HCLK_DIV_64                 (RCC_CFGR_HPRE_3 | RCC_CFGR_HPRE_2)                     
 230:external/drivers/stm32c0xx/include/stm32c0xx_ll_rcc.h **** #define LL_RCC_HCLK_DIV_128                (RCC_CFGR_HPRE_3 | RCC_CFGR_HPRE_2 | RCC_CFGR_HPRE_0)   
 231:external/drivers/stm32c0xx/include/stm32c0xx_ll_rcc.h **** #define LL_RCC_HCLK_DIV_256                (RCC_CFGR_HPRE_3 | RCC_CFGR_HPRE_2 | RCC_CFGR_HPRE_1)   
 232:external/drivers/stm32c0xx/include/stm32c0xx_ll_rcc.h **** #define LL_RCC_HCLK_DIV_512                (RCC_CFGR_HPRE_3 | RCC_CFGR_HPRE_2 | RCC_CFGR_HPRE_1 | R
 233:external/drivers/stm32c0xx/include/stm32c0xx_ll_rcc.h **** /**
 234:external/drivers/stm32c0xx/include/stm32c0xx_ll_rcc.h ****   * @}
 235:external/drivers/stm32c0xx/include/stm32c0xx_ll_rcc.h ****   */
 236:external/drivers/stm32c0xx/include/stm32c0xx_ll_rcc.h **** 
 237:external/drivers/stm32c0xx/include/stm32c0xx_ll_rcc.h **** /** @defgroup RCC_LL_EC_APB1_DIV  APB low-speed prescaler (APB1)
 238:external/drivers/stm32c0xx/include/stm32c0xx_ll_rcc.h ****   * @{
 239:external/drivers/stm32c0xx/include/stm32c0xx_ll_rcc.h ****   */
 240:external/drivers/stm32c0xx/include/stm32c0xx_ll_rcc.h **** #define LL_RCC_APB1_DIV_1                  0x00000000U                                           /*
 241:external/drivers/stm32c0xx/include/stm32c0xx_ll_rcc.h **** #define LL_RCC_APB1_DIV_2                  RCC_CFGR_PPRE_2                                       /*
 242:external/drivers/stm32c0xx/include/stm32c0xx_ll_rcc.h **** #define LL_RCC_APB1_DIV_4                  (RCC_CFGR_PPRE_2 | RCC_CFGR_PPRE_0)                   /*
 243:external/drivers/stm32c0xx/include/stm32c0xx_ll_rcc.h **** #define LL_RCC_APB1_DIV_8                  (RCC_CFGR_PPRE_2 | RCC_CFGR_PPRE_1)                   /*
 244:external/drivers/stm32c0xx/include/stm32c0xx_ll_rcc.h **** #define LL_RCC_APB1_DIV_16                 (RCC_CFGR_PPRE_2 | RCC_CFGR_PPRE_1 | RCC_CFGR_PPRE_0) /*
 245:external/drivers/stm32c0xx/include/stm32c0xx_ll_rcc.h **** /**
 246:external/drivers/stm32c0xx/include/stm32c0xx_ll_rcc.h ****   * @}
 247:external/drivers/stm32c0xx/include/stm32c0xx_ll_rcc.h ****   */
 248:external/drivers/stm32c0xx/include/stm32c0xx_ll_rcc.h **** 
 249:external/drivers/stm32c0xx/include/stm32c0xx_ll_rcc.h **** /** @defgroup RCC_LL_EC_HSI_DIV  HSI division factor
 250:external/drivers/stm32c0xx/include/stm32c0xx_ll_rcc.h ****   * @{
 251:external/drivers/stm32c0xx/include/stm32c0xx_ll_rcc.h ****   */
 252:external/drivers/stm32c0xx/include/stm32c0xx_ll_rcc.h **** #define LL_RCC_HSI_DIV_1                  0x00000000U                                /*!< HSI not d
 253:external/drivers/stm32c0xx/include/stm32c0xx_ll_rcc.h **** #define LL_RCC_HSI_DIV_2                  RCC_CR_HSIDIV_0                            /*!< HSI divid
 254:external/drivers/stm32c0xx/include/stm32c0xx_ll_rcc.h **** #define LL_RCC_HSI_DIV_4                  RCC_CR_HSIDIV_1                            /*!< HSI divid
 255:external/drivers/stm32c0xx/include/stm32c0xx_ll_rcc.h **** #define LL_RCC_HSI_DIV_8                  (RCC_CR_HSIDIV_1 | RCC_CR_HSIDIV_0)        /*!< HSI divid
 256:external/drivers/stm32c0xx/include/stm32c0xx_ll_rcc.h **** #define LL_RCC_HSI_DIV_16                 RCC_CR_HSIDIV_2                            /*!< HSI divid
 257:external/drivers/stm32c0xx/include/stm32c0xx_ll_rcc.h **** #define LL_RCC_HSI_DIV_32                 (RCC_CR_HSIDIV_2 | RCC_CR_HSIDIV_0)        /*!< HSI divid
 258:external/drivers/stm32c0xx/include/stm32c0xx_ll_rcc.h **** #define LL_RCC_HSI_DIV_64                 (RCC_CR_HSIDIV_2 | RCC_CR_HSIDIV_1)        /*!< HSI divid
 259:external/drivers/stm32c0xx/include/stm32c0xx_ll_rcc.h **** #define LL_RCC_HSI_DIV_128                RCC_CR_HSIDIV                              /*!< HSI divid
 260:external/drivers/stm32c0xx/include/stm32c0xx_ll_rcc.h **** /**
 261:external/drivers/stm32c0xx/include/stm32c0xx_ll_rcc.h ****   * @}
 262:external/drivers/stm32c0xx/include/stm32c0xx_ll_rcc.h ****   */
 263:external/drivers/stm32c0xx/include/stm32c0xx_ll_rcc.h **** 
 264:external/drivers/stm32c0xx/include/stm32c0xx_ll_rcc.h **** /** @defgroup RCC_LL_EC_HSIKER_DIV  HSI Kernel division factor
 265:external/drivers/stm32c0xx/include/stm32c0xx_ll_rcc.h ****   * @{
 266:external/drivers/stm32c0xx/include/stm32c0xx_ll_rcc.h ****   */
 267:external/drivers/stm32c0xx/include/stm32c0xx_ll_rcc.h **** #define LL_RCC_HSIKER_DIV_1                  0x00000000U                                /*!< HSI ke
 268:external/drivers/stm32c0xx/include/stm32c0xx_ll_rcc.h **** #define LL_RCC_HSIKER_DIV_2                  RCC_CR_HSIKERDIV_0                         /*!< HSI ke
 269:external/drivers/stm32c0xx/include/stm32c0xx_ll_rcc.h **** #define LL_RCC_HSIKER_DIV_3                  RCC_CR_HSIKERDIV_1                         /*!< HSI ke
 270:external/drivers/stm32c0xx/include/stm32c0xx_ll_rcc.h **** #define LL_RCC_HSIKER_DIV_4                  (RCC_CR_HSIKERDIV_1 | RCC_CR_HSIKERDIV_0)  /*!< HSI ke
 271:external/drivers/stm32c0xx/include/stm32c0xx_ll_rcc.h **** #define LL_RCC_HSIKER_DIV_5                  RCC_CR_HSIKERDIV_2                         /*!< HSI ke
 272:external/drivers/stm32c0xx/include/stm32c0xx_ll_rcc.h **** #define LL_RCC_HSIKER_DIV_6                  (RCC_CR_HSIKERDIV_2 | RCC_CR_HSIKERDIV_0)  /*!< HSI ke
 273:external/drivers/stm32c0xx/include/stm32c0xx_ll_rcc.h **** #define LL_RCC_HSIKER_DIV_7                  (RCC_CR_HSIKERDIV_2 | RCC_CR_HSIKERDIV_1)  /*!< HSI ke
 274:external/drivers/stm32c0xx/include/stm32c0xx_ll_rcc.h **** #define LL_RCC_HSIKER_DIV_8                  RCC_CR_HSIKERDIV                           /*!< HSI ke
 275:external/drivers/stm32c0xx/include/stm32c0xx_ll_rcc.h **** /**
 276:external/drivers/stm32c0xx/include/stm32c0xx_ll_rcc.h ****   * @}
 277:external/drivers/stm32c0xx/include/stm32c0xx_ll_rcc.h ****   */
 278:external/drivers/stm32c0xx/include/stm32c0xx_ll_rcc.h **** 
 279:external/drivers/stm32c0xx/include/stm32c0xx_ll_rcc.h **** /** @defgroup RCC_LL_EC_MCO1SOURCE  MCO1 SOURCE selection
ARM GAS  /tmp/ccdF5Ctr.s 			page 53


 280:external/drivers/stm32c0xx/include/stm32c0xx_ll_rcc.h ****   * @{
 281:external/drivers/stm32c0xx/include/stm32c0xx_ll_rcc.h ****   */
 282:external/drivers/stm32c0xx/include/stm32c0xx_ll_rcc.h **** #define LL_RCC_MCO1SOURCE_NOCLOCK          0x00000000U                            /*!< MCO output d
 283:external/drivers/stm32c0xx/include/stm32c0xx_ll_rcc.h **** #define LL_RCC_MCO1SOURCE_SYSCLK           RCC_CFGR_MCOSEL_0                      /*!< SYSCLK selec
 284:external/drivers/stm32c0xx/include/stm32c0xx_ll_rcc.h **** #define LL_RCC_MCO1SOURCE_HSI              (RCC_CFGR_MCOSEL_0| RCC_CFGR_MCOSEL_1) /*!< HSI16 select
 285:external/drivers/stm32c0xx/include/stm32c0xx_ll_rcc.h **** #define LL_RCC_MCO1SOURCE_HSE              RCC_CFGR_MCOSEL_2                      /*!< HSE selectio
 286:external/drivers/stm32c0xx/include/stm32c0xx_ll_rcc.h **** #define LL_RCC_MCO1SOURCE_LSI              (RCC_CFGR_MCOSEL_1|RCC_CFGR_MCOSEL_2)  /*!< LSI selectio
 287:external/drivers/stm32c0xx/include/stm32c0xx_ll_rcc.h **** #define LL_RCC_MCO1SOURCE_LSE              (RCC_CFGR_MCOSEL_0|RCC_CFGR_MCOSEL_1|RCC_CFGR_MCOSEL_2) 
 288:external/drivers/stm32c0xx/include/stm32c0xx_ll_rcc.h **** /**
 289:external/drivers/stm32c0xx/include/stm32c0xx_ll_rcc.h ****   * @}
 290:external/drivers/stm32c0xx/include/stm32c0xx_ll_rcc.h ****   */
 291:external/drivers/stm32c0xx/include/stm32c0xx_ll_rcc.h **** 
 292:external/drivers/stm32c0xx/include/stm32c0xx_ll_rcc.h **** /** @defgroup RCC_LL_EC_MCO1_DIV  MCO1 prescaler
 293:external/drivers/stm32c0xx/include/stm32c0xx_ll_rcc.h ****   * @{
 294:external/drivers/stm32c0xx/include/stm32c0xx_ll_rcc.h ****   */
 295:external/drivers/stm32c0xx/include/stm32c0xx_ll_rcc.h **** #define LL_RCC_MCO1_DIV_1                  0x00000000U                                             
 296:external/drivers/stm32c0xx/include/stm32c0xx_ll_rcc.h **** #define LL_RCC_MCO1_DIV_2                  RCC_CFGR_MCOPRE_0                                       
 297:external/drivers/stm32c0xx/include/stm32c0xx_ll_rcc.h **** #define LL_RCC_MCO1_DIV_4                  RCC_CFGR_MCOPRE_1                                       
 298:external/drivers/stm32c0xx/include/stm32c0xx_ll_rcc.h **** #define LL_RCC_MCO1_DIV_8                  (RCC_CFGR_MCOPRE_1 | RCC_CFGR_MCOPRE_0)                 
 299:external/drivers/stm32c0xx/include/stm32c0xx_ll_rcc.h **** #define LL_RCC_MCO1_DIV_16                 RCC_CFGR_MCOPRE_2                                       
 300:external/drivers/stm32c0xx/include/stm32c0xx_ll_rcc.h **** #define LL_RCC_MCO1_DIV_32                 (RCC_CFGR_MCOPRE_2 | RCC_CFGR_MCOPRE_0)                 
 301:external/drivers/stm32c0xx/include/stm32c0xx_ll_rcc.h **** #define LL_RCC_MCO1_DIV_64                 (RCC_CFGR_MCOPRE_2 | RCC_CFGR_MCOPRE_1)                 
 302:external/drivers/stm32c0xx/include/stm32c0xx_ll_rcc.h **** #define LL_RCC_MCO1_DIV_128                (RCC_CFGR_MCOPRE_2 | RCC_CFGR_MCOPRE_1 | RCC_CFGR_MCOPRE
 303:external/drivers/stm32c0xx/include/stm32c0xx_ll_rcc.h **** /**
 304:external/drivers/stm32c0xx/include/stm32c0xx_ll_rcc.h ****   * @}
 305:external/drivers/stm32c0xx/include/stm32c0xx_ll_rcc.h ****   */
 306:external/drivers/stm32c0xx/include/stm32c0xx_ll_rcc.h **** 
 307:external/drivers/stm32c0xx/include/stm32c0xx_ll_rcc.h **** /** @defgroup RCC_LL_EC_MCO2SOURCE  MCO2 SOURCE selection
 308:external/drivers/stm32c0xx/include/stm32c0xx_ll_rcc.h ****   * @{
 309:external/drivers/stm32c0xx/include/stm32c0xx_ll_rcc.h ****   */
 310:external/drivers/stm32c0xx/include/stm32c0xx_ll_rcc.h **** #define LL_RCC_MCO2SOURCE_NOCLOCK          0x00000000U                               /*!< MCO2 outp
 311:external/drivers/stm32c0xx/include/stm32c0xx_ll_rcc.h **** #define LL_RCC_MCO2SOURCE_SYSCLK           RCC_CFGR_MCO2SEL_0                        /*!< SYSCLK se
 312:external/drivers/stm32c0xx/include/stm32c0xx_ll_rcc.h **** #define LL_RCC_MCO2SOURCE_HSI              (RCC_CFGR_MCO2SEL_0| RCC_CFGR_MCO2SEL_1)  /*!< HSI16 sel
 313:external/drivers/stm32c0xx/include/stm32c0xx_ll_rcc.h **** #define LL_RCC_MCO2SOURCE_HSE              RCC_CFGR_MCO2SEL_2                        /*!< HSE selec
 314:external/drivers/stm32c0xx/include/stm32c0xx_ll_rcc.h **** #define LL_RCC_MCO2SOURCE_LSI              (RCC_CFGR_MCO2SEL_1|RCC_CFGR_MCO2SEL_2)   /*!< LSI selec
 315:external/drivers/stm32c0xx/include/stm32c0xx_ll_rcc.h **** #define LL_RCC_MCO2SOURCE_LSE              (RCC_CFGR_MCO2SEL_0|RCC_CFGR_MCO2SEL_1|RCC_CFGR_MCO2SEL_
 316:external/drivers/stm32c0xx/include/stm32c0xx_ll_rcc.h **** /**
 317:external/drivers/stm32c0xx/include/stm32c0xx_ll_rcc.h ****   * @}
 318:external/drivers/stm32c0xx/include/stm32c0xx_ll_rcc.h ****   */
 319:external/drivers/stm32c0xx/include/stm32c0xx_ll_rcc.h **** 
 320:external/drivers/stm32c0xx/include/stm32c0xx_ll_rcc.h **** /** @defgroup RCC_LL_EC_MCO2_DIV  MCO2 prescaler
 321:external/drivers/stm32c0xx/include/stm32c0xx_ll_rcc.h ****   * @{
 322:external/drivers/stm32c0xx/include/stm32c0xx_ll_rcc.h ****   */
 323:external/drivers/stm32c0xx/include/stm32c0xx_ll_rcc.h **** #define LL_RCC_MCO2_DIV_1                  0x00000000U                                             
 324:external/drivers/stm32c0xx/include/stm32c0xx_ll_rcc.h **** #define LL_RCC_MCO2_DIV_2                  RCC_CFGR_MCO2PRE_0                                      
 325:external/drivers/stm32c0xx/include/stm32c0xx_ll_rcc.h **** #define LL_RCC_MCO2_DIV_4                  RCC_CFGR_MCO2PRE_1                                      
 326:external/drivers/stm32c0xx/include/stm32c0xx_ll_rcc.h **** #define LL_RCC_MCO2_DIV_8                  (RCC_CFGR_MCO2PRE_1 | RCC_CFGR_MCO2PRE_0)               
 327:external/drivers/stm32c0xx/include/stm32c0xx_ll_rcc.h **** #define LL_RCC_MCO2_DIV_16                 RCC_CFGR_MCO2PRE_2                                      
 328:external/drivers/stm32c0xx/include/stm32c0xx_ll_rcc.h **** #define LL_RCC_MCO2_DIV_32                 (RCC_CFGR_MCO2PRE_2 | RCC_CFGR_MCO2PRE_0)               
 329:external/drivers/stm32c0xx/include/stm32c0xx_ll_rcc.h **** #define LL_RCC_MCO2_DIV_64                 (RCC_CFGR_MCO2PRE_2 | RCC_CFGR_MCO2PRE_1)               
 330:external/drivers/stm32c0xx/include/stm32c0xx_ll_rcc.h **** #define LL_RCC_MCO2_DIV_128                (RCC_CFGR_MCO2PRE_2 | RCC_CFGR_MCO2PRE_1 | RCC_CFGR_MCO2
 331:external/drivers/stm32c0xx/include/stm32c0xx_ll_rcc.h **** /**
 332:external/drivers/stm32c0xx/include/stm32c0xx_ll_rcc.h ****   * @}
 333:external/drivers/stm32c0xx/include/stm32c0xx_ll_rcc.h ****   */
 334:external/drivers/stm32c0xx/include/stm32c0xx_ll_rcc.h **** #if defined(USE_FULL_LL_DRIVER)
 335:external/drivers/stm32c0xx/include/stm32c0xx_ll_rcc.h **** /** @defgroup RCC_LL_EC_PERIPH_FREQUENCY Peripheral clock frequency
 336:external/drivers/stm32c0xx/include/stm32c0xx_ll_rcc.h ****   * @{
ARM GAS  /tmp/ccdF5Ctr.s 			page 54


 337:external/drivers/stm32c0xx/include/stm32c0xx_ll_rcc.h ****   */
 338:external/drivers/stm32c0xx/include/stm32c0xx_ll_rcc.h **** #define LL_RCC_PERIPH_FREQUENCY_NO        0x00000000U                 /*!< No clock enabled for the
 339:external/drivers/stm32c0xx/include/stm32c0xx_ll_rcc.h **** #define LL_RCC_PERIPH_FREQUENCY_NA        0xFFFFFFFFU                 /*!< Frequency cannot be prov
 340:external/drivers/stm32c0xx/include/stm32c0xx_ll_rcc.h **** /**
 341:external/drivers/stm32c0xx/include/stm32c0xx_ll_rcc.h ****   * @}
 342:external/drivers/stm32c0xx/include/stm32c0xx_ll_rcc.h ****   */
 343:external/drivers/stm32c0xx/include/stm32c0xx_ll_rcc.h **** #endif /* USE_FULL_LL_DRIVER */
 344:external/drivers/stm32c0xx/include/stm32c0xx_ll_rcc.h **** 
 345:external/drivers/stm32c0xx/include/stm32c0xx_ll_rcc.h **** /** @defgroup RCC_LL_EC_USARTx_CLKSOURCE  Peripheral USART clock source selection
 346:external/drivers/stm32c0xx/include/stm32c0xx_ll_rcc.h ****   * @{
 347:external/drivers/stm32c0xx/include/stm32c0xx_ll_rcc.h ****   */
 348:external/drivers/stm32c0xx/include/stm32c0xx_ll_rcc.h **** #define LL_RCC_USART1_CLKSOURCE_PCLK1      ((RCC_CCIPR_USART1SEL << 16U) | 0x00000000U)            
 349:external/drivers/stm32c0xx/include/stm32c0xx_ll_rcc.h **** #define LL_RCC_USART1_CLKSOURCE_SYSCLK     ((RCC_CCIPR_USART1SEL << 16U) | RCC_CCIPR_USART1SEL_0)  
 350:external/drivers/stm32c0xx/include/stm32c0xx_ll_rcc.h **** #define LL_RCC_USART1_CLKSOURCE_HSIKER     ((RCC_CCIPR_USART1SEL << 16U) | RCC_CCIPR_USART1SEL_1)  
 351:external/drivers/stm32c0xx/include/stm32c0xx_ll_rcc.h **** #define LL_RCC_USART1_CLKSOURCE_LSE        ((RCC_CCIPR_USART1SEL << 16U) | RCC_CCIPR_USART1SEL)    
 352:external/drivers/stm32c0xx/include/stm32c0xx_ll_rcc.h **** 
 353:external/drivers/stm32c0xx/include/stm32c0xx_ll_rcc.h **** /**
 354:external/drivers/stm32c0xx/include/stm32c0xx_ll_rcc.h ****   * @}
 355:external/drivers/stm32c0xx/include/stm32c0xx_ll_rcc.h ****   */
 356:external/drivers/stm32c0xx/include/stm32c0xx_ll_rcc.h **** 
 357:external/drivers/stm32c0xx/include/stm32c0xx_ll_rcc.h **** 
 358:external/drivers/stm32c0xx/include/stm32c0xx_ll_rcc.h **** /** @defgroup RCC_LL_EC_I2C1_CLKSOURCE Peripheral I2C clock source selection
 359:external/drivers/stm32c0xx/include/stm32c0xx_ll_rcc.h ****   * @{
 360:external/drivers/stm32c0xx/include/stm32c0xx_ll_rcc.h ****   */
 361:external/drivers/stm32c0xx/include/stm32c0xx_ll_rcc.h **** #define LL_RCC_I2C1_CLKSOURCE_PCLK1        0x00000000U                  /*!< PCLK1 clock used as I2
 362:external/drivers/stm32c0xx/include/stm32c0xx_ll_rcc.h **** #define LL_RCC_I2C1_CLKSOURCE_SYSCLK       RCC_CCIPR_I2C1SEL_0          /*!< SYSCLK clock used as I
 363:external/drivers/stm32c0xx/include/stm32c0xx_ll_rcc.h **** #define LL_RCC_I2C1_CLKSOURCE_HSIKER       RCC_CCIPR_I2C1SEL_1          /*!< HSIKER clock used as I
 364:external/drivers/stm32c0xx/include/stm32c0xx_ll_rcc.h **** /**
 365:external/drivers/stm32c0xx/include/stm32c0xx_ll_rcc.h ****   * @}
 366:external/drivers/stm32c0xx/include/stm32c0xx_ll_rcc.h ****   */
 367:external/drivers/stm32c0xx/include/stm32c0xx_ll_rcc.h **** 
 368:external/drivers/stm32c0xx/include/stm32c0xx_ll_rcc.h **** /** @defgroup RCC_LL_EC_I2S1_CLKSOURCE Peripheral I2S clock source selection
 369:external/drivers/stm32c0xx/include/stm32c0xx_ll_rcc.h ****   * @{
 370:external/drivers/stm32c0xx/include/stm32c0xx_ll_rcc.h ****   */
 371:external/drivers/stm32c0xx/include/stm32c0xx_ll_rcc.h **** #define LL_RCC_I2S1_CLKSOURCE_SYSCLK      0x00000000U                  /*!< SYSCLK clock used as I2
 372:external/drivers/stm32c0xx/include/stm32c0xx_ll_rcc.h **** #define LL_RCC_I2S1_CLKSOURCE_HSIKER      RCC_CCIPR_I2S1SEL_1          /*!< HSIKER clock used as I2
 373:external/drivers/stm32c0xx/include/stm32c0xx_ll_rcc.h **** #define LL_RCC_I2S1_CLKSOURCE_PIN         RCC_CCIPR_I2S1SEL            /*!< External clock used as 
 374:external/drivers/stm32c0xx/include/stm32c0xx_ll_rcc.h **** /**
 375:external/drivers/stm32c0xx/include/stm32c0xx_ll_rcc.h ****   * @}
 376:external/drivers/stm32c0xx/include/stm32c0xx_ll_rcc.h ****   */
 377:external/drivers/stm32c0xx/include/stm32c0xx_ll_rcc.h **** 
 378:external/drivers/stm32c0xx/include/stm32c0xx_ll_rcc.h **** /** @defgroup RCC_LL_EC_ADC_CLKSOURCE Peripheral ADC clock source selection
 379:external/drivers/stm32c0xx/include/stm32c0xx_ll_rcc.h ****   * @{
 380:external/drivers/stm32c0xx/include/stm32c0xx_ll_rcc.h ****   */
 381:external/drivers/stm32c0xx/include/stm32c0xx_ll_rcc.h **** #define LL_RCC_ADC_CLKSOURCE_SYSCLK        0x00000000U                   /*!< SYSCLK used as ADC cl
 382:external/drivers/stm32c0xx/include/stm32c0xx_ll_rcc.h **** #define LL_RCC_ADC_CLKSOURCE_HSIKER        RCC_CCIPR_ADCSEL_1            /*!< HSIKER kernel used as
 383:external/drivers/stm32c0xx/include/stm32c0xx_ll_rcc.h **** /**
 384:external/drivers/stm32c0xx/include/stm32c0xx_ll_rcc.h ****   * @}
 385:external/drivers/stm32c0xx/include/stm32c0xx_ll_rcc.h ****   */
 386:external/drivers/stm32c0xx/include/stm32c0xx_ll_rcc.h **** 
 387:external/drivers/stm32c0xx/include/stm32c0xx_ll_rcc.h **** /** @defgroup RCC_LL_EC_USARTx Peripheral USARTx get clock source
 388:external/drivers/stm32c0xx/include/stm32c0xx_ll_rcc.h ****   * @{
 389:external/drivers/stm32c0xx/include/stm32c0xx_ll_rcc.h ****   */
 390:external/drivers/stm32c0xx/include/stm32c0xx_ll_rcc.h **** #define LL_RCC_USART1_CLKSOURCE            RCC_CCIPR_USART1SEL /*!< USART1 Clock source selection *
 391:external/drivers/stm32c0xx/include/stm32c0xx_ll_rcc.h **** /**
 392:external/drivers/stm32c0xx/include/stm32c0xx_ll_rcc.h ****   * @}
 393:external/drivers/stm32c0xx/include/stm32c0xx_ll_rcc.h ****   */
ARM GAS  /tmp/ccdF5Ctr.s 			page 55


 394:external/drivers/stm32c0xx/include/stm32c0xx_ll_rcc.h **** 
 395:external/drivers/stm32c0xx/include/stm32c0xx_ll_rcc.h **** /** @defgroup RCC_LL_EC_I2C1 Peripheral I2C get clock source
 396:external/drivers/stm32c0xx/include/stm32c0xx_ll_rcc.h ****   * @{
 397:external/drivers/stm32c0xx/include/stm32c0xx_ll_rcc.h ****   */
 398:external/drivers/stm32c0xx/include/stm32c0xx_ll_rcc.h **** #define LL_RCC_I2C1_CLKSOURCE              RCC_CCIPR_I2C1SEL /*!< I2C1 Clock source selection */
 399:external/drivers/stm32c0xx/include/stm32c0xx_ll_rcc.h **** /**
 400:external/drivers/stm32c0xx/include/stm32c0xx_ll_rcc.h ****   * @}
 401:external/drivers/stm32c0xx/include/stm32c0xx_ll_rcc.h ****   */
 402:external/drivers/stm32c0xx/include/stm32c0xx_ll_rcc.h **** 
 403:external/drivers/stm32c0xx/include/stm32c0xx_ll_rcc.h **** /** @defgroup RCC_LL_EC_I2S1 Peripheral I2S get clock source
 404:external/drivers/stm32c0xx/include/stm32c0xx_ll_rcc.h ****   * @{
 405:external/drivers/stm32c0xx/include/stm32c0xx_ll_rcc.h ****   */
 406:external/drivers/stm32c0xx/include/stm32c0xx_ll_rcc.h **** #define LL_RCC_I2S1_CLKSOURCE              RCC_CCIPR_I2S1SEL /*!< I2S1 Clock source selection */
 407:external/drivers/stm32c0xx/include/stm32c0xx_ll_rcc.h **** /**
 408:external/drivers/stm32c0xx/include/stm32c0xx_ll_rcc.h ****   * @}
 409:external/drivers/stm32c0xx/include/stm32c0xx_ll_rcc.h ****   */
 410:external/drivers/stm32c0xx/include/stm32c0xx_ll_rcc.h **** 
 411:external/drivers/stm32c0xx/include/stm32c0xx_ll_rcc.h **** /** @defgroup RCC_LL_EC_ADC Peripheral ADC get clock source
 412:external/drivers/stm32c0xx/include/stm32c0xx_ll_rcc.h ****   * @{
 413:external/drivers/stm32c0xx/include/stm32c0xx_ll_rcc.h ****   */
 414:external/drivers/stm32c0xx/include/stm32c0xx_ll_rcc.h **** #define LL_RCC_ADC_CLKSOURCE               RCC_CCIPR_ADCSEL        /*!< ADC Clock source selection 
 415:external/drivers/stm32c0xx/include/stm32c0xx_ll_rcc.h **** /**
 416:external/drivers/stm32c0xx/include/stm32c0xx_ll_rcc.h ****   * @}
 417:external/drivers/stm32c0xx/include/stm32c0xx_ll_rcc.h ****   */
 418:external/drivers/stm32c0xx/include/stm32c0xx_ll_rcc.h **** 
 419:external/drivers/stm32c0xx/include/stm32c0xx_ll_rcc.h **** /** @defgroup RCC_LL_EC_RTC_CLKSOURCE  RTC clock source selection
 420:external/drivers/stm32c0xx/include/stm32c0xx_ll_rcc.h ****   * @{
 421:external/drivers/stm32c0xx/include/stm32c0xx_ll_rcc.h ****   */
 422:external/drivers/stm32c0xx/include/stm32c0xx_ll_rcc.h **** #define LL_RCC_RTC_CLKSOURCE_NONE          0x00000000U             /*!< No clock used as RTC clock 
 423:external/drivers/stm32c0xx/include/stm32c0xx_ll_rcc.h **** #define LL_RCC_RTC_CLKSOURCE_LSE           RCC_CSR1_RTCSEL_0       /*!< LSE oscillator clock used a
 424:external/drivers/stm32c0xx/include/stm32c0xx_ll_rcc.h **** #define LL_RCC_RTC_CLKSOURCE_LSI           RCC_CSR1_RTCSEL_1       /*!< LSI oscillator clock used a
 425:external/drivers/stm32c0xx/include/stm32c0xx_ll_rcc.h **** #define LL_RCC_RTC_CLKSOURCE_HSE_DIV32     RCC_CSR1_RTCSEL         /*!< HSE oscillator clock divide
 426:external/drivers/stm32c0xx/include/stm32c0xx_ll_rcc.h **** /**
 427:external/drivers/stm32c0xx/include/stm32c0xx_ll_rcc.h ****   * @}
 428:external/drivers/stm32c0xx/include/stm32c0xx_ll_rcc.h ****   */
 429:external/drivers/stm32c0xx/include/stm32c0xx_ll_rcc.h **** 
 430:external/drivers/stm32c0xx/include/stm32c0xx_ll_rcc.h **** /**
 431:external/drivers/stm32c0xx/include/stm32c0xx_ll_rcc.h ****   * @}
 432:external/drivers/stm32c0xx/include/stm32c0xx_ll_rcc.h ****   */
 433:external/drivers/stm32c0xx/include/stm32c0xx_ll_rcc.h **** 
 434:external/drivers/stm32c0xx/include/stm32c0xx_ll_rcc.h **** /* Exported macro ------------------------------------------------------------*/
 435:external/drivers/stm32c0xx/include/stm32c0xx_ll_rcc.h **** /** @defgroup RCC_LL_Exported_Macros RCC Exported Macros
 436:external/drivers/stm32c0xx/include/stm32c0xx_ll_rcc.h ****   * @{
 437:external/drivers/stm32c0xx/include/stm32c0xx_ll_rcc.h ****   */
 438:external/drivers/stm32c0xx/include/stm32c0xx_ll_rcc.h **** 
 439:external/drivers/stm32c0xx/include/stm32c0xx_ll_rcc.h **** /** @defgroup RCC_LL_EM_WRITE_READ Common Write and read registers Macros
 440:external/drivers/stm32c0xx/include/stm32c0xx_ll_rcc.h ****   * @{
 441:external/drivers/stm32c0xx/include/stm32c0xx_ll_rcc.h ****   */
 442:external/drivers/stm32c0xx/include/stm32c0xx_ll_rcc.h **** 
 443:external/drivers/stm32c0xx/include/stm32c0xx_ll_rcc.h **** /**
 444:external/drivers/stm32c0xx/include/stm32c0xx_ll_rcc.h ****   * @brief  Write a value in RCC register
 445:external/drivers/stm32c0xx/include/stm32c0xx_ll_rcc.h ****   * @param  __REG__ Register to be written
 446:external/drivers/stm32c0xx/include/stm32c0xx_ll_rcc.h ****   * @param  __VALUE__ Value to be written in the register
 447:external/drivers/stm32c0xx/include/stm32c0xx_ll_rcc.h ****   * @retval None
 448:external/drivers/stm32c0xx/include/stm32c0xx_ll_rcc.h ****   */
 449:external/drivers/stm32c0xx/include/stm32c0xx_ll_rcc.h **** #define LL_RCC_WriteReg(__REG__, __VALUE__) WRITE_REG((RCC->__REG__), (__VALUE__))
 450:external/drivers/stm32c0xx/include/stm32c0xx_ll_rcc.h **** 
ARM GAS  /tmp/ccdF5Ctr.s 			page 56


 451:external/drivers/stm32c0xx/include/stm32c0xx_ll_rcc.h **** /**
 452:external/drivers/stm32c0xx/include/stm32c0xx_ll_rcc.h ****   * @brief  Read a value in RCC register
 453:external/drivers/stm32c0xx/include/stm32c0xx_ll_rcc.h ****   * @param  __REG__ Register to be read
 454:external/drivers/stm32c0xx/include/stm32c0xx_ll_rcc.h ****   * @retval Register value
 455:external/drivers/stm32c0xx/include/stm32c0xx_ll_rcc.h ****   */
 456:external/drivers/stm32c0xx/include/stm32c0xx_ll_rcc.h **** #define LL_RCC_ReadReg(__REG__) READ_REG(RCC->__REG__)
 457:external/drivers/stm32c0xx/include/stm32c0xx_ll_rcc.h **** /**
 458:external/drivers/stm32c0xx/include/stm32c0xx_ll_rcc.h ****   * @}
 459:external/drivers/stm32c0xx/include/stm32c0xx_ll_rcc.h ****   */
 460:external/drivers/stm32c0xx/include/stm32c0xx_ll_rcc.h **** 
 461:external/drivers/stm32c0xx/include/stm32c0xx_ll_rcc.h **** /**
 462:external/drivers/stm32c0xx/include/stm32c0xx_ll_rcc.h ****   * @brief  Helper macro to calculate the HCLK frequency
 463:external/drivers/stm32c0xx/include/stm32c0xx_ll_rcc.h ****   * @param  __SYSCLKFREQ__ SYSCLK frequency (based on HSE/HSI/PLLCLK)
 464:external/drivers/stm32c0xx/include/stm32c0xx_ll_rcc.h ****   * @param  __AHBPRESCALER__ This parameter can be one of the following values:
 465:external/drivers/stm32c0xx/include/stm32c0xx_ll_rcc.h ****   *         @arg @ref LL_RCC_HCLK_DIV_1
 466:external/drivers/stm32c0xx/include/stm32c0xx_ll_rcc.h ****   *         @arg @ref LL_RCC_HCLK_DIV_2
 467:external/drivers/stm32c0xx/include/stm32c0xx_ll_rcc.h ****   *         @arg @ref LL_RCC_HCLK_DIV_4 
 468:external/drivers/stm32c0xx/include/stm32c0xx_ll_rcc.h ****   *         @arg @ref LL_RCC_HCLK_DIV_8 
 469:external/drivers/stm32c0xx/include/stm32c0xx_ll_rcc.h ****   *         @arg @ref LL_RCC_HCLK_DIV_16
 470:external/drivers/stm32c0xx/include/stm32c0xx_ll_rcc.h ****   *         @arg @ref LL_RCC_HCLK_DIV_64
 471:external/drivers/stm32c0xx/include/stm32c0xx_ll_rcc.h ****   *         @arg @ref LL_RCC_HCLK_DIV_128
 472:external/drivers/stm32c0xx/include/stm32c0xx_ll_rcc.h ****   *         @arg @ref LL_RCC_HCLK_DIV_256
 473:external/drivers/stm32c0xx/include/stm32c0xx_ll_rcc.h ****   *         @arg @ref LL_RCC_HCLK_DIV_512
 474:external/drivers/stm32c0xx/include/stm32c0xx_ll_rcc.h ****   * @retval HCLK clock frequency (in Hz)
 475:external/drivers/stm32c0xx/include/stm32c0xx_ll_rcc.h ****   */
 476:external/drivers/stm32c0xx/include/stm32c0xx_ll_rcc.h **** #define __LL_RCC_CALC_HCLK_FREQ(__SYSCLKFREQ__,__AHBPRESCALER__) ((__SYSCLKFREQ__) >> (AHBPrescTabl
 477:external/drivers/stm32c0xx/include/stm32c0xx_ll_rcc.h ****                                                                   & RCC_CFGR_HPRE) >>  RCC_CFGR_HPR
 478:external/drivers/stm32c0xx/include/stm32c0xx_ll_rcc.h **** 
 479:external/drivers/stm32c0xx/include/stm32c0xx_ll_rcc.h **** /**
 480:external/drivers/stm32c0xx/include/stm32c0xx_ll_rcc.h ****   * @brief  Helper macro to calculate the PCLK1 frequency (ABP1)
 481:external/drivers/stm32c0xx/include/stm32c0xx_ll_rcc.h ****   * @param  __HCLKFREQ__ HCLK frequency
 482:external/drivers/stm32c0xx/include/stm32c0xx_ll_rcc.h ****   * @param  __APB1PRESCALER__ This parameter can be one of the following values:
 483:external/drivers/stm32c0xx/include/stm32c0xx_ll_rcc.h ****   *         @arg @ref LL_RCC_APB1_DIV_1
 484:external/drivers/stm32c0xx/include/stm32c0xx_ll_rcc.h ****   *         @arg @ref LL_RCC_APB1_DIV_2
 485:external/drivers/stm32c0xx/include/stm32c0xx_ll_rcc.h ****   *         @arg @ref LL_RCC_APB1_DIV_4
 486:external/drivers/stm32c0xx/include/stm32c0xx_ll_rcc.h ****   *         @arg @ref LL_RCC_APB1_DIV_8
 487:external/drivers/stm32c0xx/include/stm32c0xx_ll_rcc.h ****   *         @arg @ref LL_RCC_APB1_DIV_16
 488:external/drivers/stm32c0xx/include/stm32c0xx_ll_rcc.h ****   * @retval PCLK1 clock frequency (in Hz)
 489:external/drivers/stm32c0xx/include/stm32c0xx_ll_rcc.h ****   */
 490:external/drivers/stm32c0xx/include/stm32c0xx_ll_rcc.h **** #define __LL_RCC_CALC_PCLK1_FREQ(__HCLKFREQ__, __APB1PRESCALER__) ((__HCLKFREQ__) >> (APBPrescTable
 491:external/drivers/stm32c0xx/include/stm32c0xx_ll_rcc.h ****                                                                    & 0x1FU))
 492:external/drivers/stm32c0xx/include/stm32c0xx_ll_rcc.h **** 
 493:external/drivers/stm32c0xx/include/stm32c0xx_ll_rcc.h **** /**
 494:external/drivers/stm32c0xx/include/stm32c0xx_ll_rcc.h ****   * @brief  Helper macro to calculate the HSISYS frequency
 495:external/drivers/stm32c0xx/include/stm32c0xx_ll_rcc.h ****   * @param  __HSIDIV__ This parameter can be one of the following values:
 496:external/drivers/stm32c0xx/include/stm32c0xx_ll_rcc.h ****   *         @arg @ref LL_RCC_HSI_DIV_1
 497:external/drivers/stm32c0xx/include/stm32c0xx_ll_rcc.h ****   *         @arg @ref LL_RCC_HSI_DIV_2
 498:external/drivers/stm32c0xx/include/stm32c0xx_ll_rcc.h ****   *         @arg @ref LL_RCC_HSI_DIV_4
 499:external/drivers/stm32c0xx/include/stm32c0xx_ll_rcc.h ****   *         @arg @ref LL_RCC_HSI_DIV_8
 500:external/drivers/stm32c0xx/include/stm32c0xx_ll_rcc.h ****   *         @arg @ref LL_RCC_HSI_DIV_16
 501:external/drivers/stm32c0xx/include/stm32c0xx_ll_rcc.h ****   *         @arg @ref LL_RCC_HSI_DIV_32
 502:external/drivers/stm32c0xx/include/stm32c0xx_ll_rcc.h ****   *         @arg @ref LL_RCC_HSI_DIV_64
 503:external/drivers/stm32c0xx/include/stm32c0xx_ll_rcc.h ****   *         @arg @ref LL_RCC_HSI_DIV_128
 504:external/drivers/stm32c0xx/include/stm32c0xx_ll_rcc.h ****   * @retval HSISYS clock frequency (in Hz)
 505:external/drivers/stm32c0xx/include/stm32c0xx_ll_rcc.h ****   */
 506:external/drivers/stm32c0xx/include/stm32c0xx_ll_rcc.h **** #define __LL_RCC_CALC_HSI_FREQ(__HSIDIV__) (HSI_VALUE / (1U << ((__HSIDIV__)>> RCC_CR_HSIDIV_Pos)))
 507:external/drivers/stm32c0xx/include/stm32c0xx_ll_rcc.h **** 
ARM GAS  /tmp/ccdF5Ctr.s 			page 57


 508:external/drivers/stm32c0xx/include/stm32c0xx_ll_rcc.h **** /**
 509:external/drivers/stm32c0xx/include/stm32c0xx_ll_rcc.h ****   * @brief  Helper macro to calculate the HSI Kernel frequency
 510:external/drivers/stm32c0xx/include/stm32c0xx_ll_rcc.h ****   * @param  __HSIKERDIV__ This parameter can be one of the following values:
 511:external/drivers/stm32c0xx/include/stm32c0xx_ll_rcc.h ****   *         @arg @ref LL_RCC_HSIKER_DIV_1
 512:external/drivers/stm32c0xx/include/stm32c0xx_ll_rcc.h ****   *         @arg @ref LL_RCC_HSIKER_DIV_2
 513:external/drivers/stm32c0xx/include/stm32c0xx_ll_rcc.h ****   *         @arg @ref LL_RCC_HSIKER_DIV_3
 514:external/drivers/stm32c0xx/include/stm32c0xx_ll_rcc.h ****   *         @arg @ref LL_RCC_HSIKER_DIV_4
 515:external/drivers/stm32c0xx/include/stm32c0xx_ll_rcc.h ****   *         @arg @ref LL_RCC_HSIKER_DIV_5
 516:external/drivers/stm32c0xx/include/stm32c0xx_ll_rcc.h ****   *         @arg @ref LL_RCC_HSIKER_DIV_6
 517:external/drivers/stm32c0xx/include/stm32c0xx_ll_rcc.h ****   *         @arg @ref LL_RCC_HSIKER_DIV_7
 518:external/drivers/stm32c0xx/include/stm32c0xx_ll_rcc.h ****   *         @arg @ref LL_RCC_HSIKER_DIV_8
 519:external/drivers/stm32c0xx/include/stm32c0xx_ll_rcc.h ****   * @retval HSIKER clock frequency (in Hz)
 520:external/drivers/stm32c0xx/include/stm32c0xx_ll_rcc.h ****   */
 521:external/drivers/stm32c0xx/include/stm32c0xx_ll_rcc.h **** #define __LL_RCC_CALC_HSIKER_FREQ(__HSIKERDIV__) (HSI_VALUE / (((__HSIKERDIV__)>> RCC_CR_HSIKERDIV_
 522:external/drivers/stm32c0xx/include/stm32c0xx_ll_rcc.h **** /**
 523:external/drivers/stm32c0xx/include/stm32c0xx_ll_rcc.h ****   * @}
 524:external/drivers/stm32c0xx/include/stm32c0xx_ll_rcc.h ****   */
 525:external/drivers/stm32c0xx/include/stm32c0xx_ll_rcc.h **** 
 526:external/drivers/stm32c0xx/include/stm32c0xx_ll_rcc.h **** 
 527:external/drivers/stm32c0xx/include/stm32c0xx_ll_rcc.h **** /* Exported functions --------------------------------------------------------*/
 528:external/drivers/stm32c0xx/include/stm32c0xx_ll_rcc.h **** /** @defgroup RCC_LL_Exported_Functions RCC Exported Functions
 529:external/drivers/stm32c0xx/include/stm32c0xx_ll_rcc.h ****   * @{
 530:external/drivers/stm32c0xx/include/stm32c0xx_ll_rcc.h ****   */
 531:external/drivers/stm32c0xx/include/stm32c0xx_ll_rcc.h **** 
 532:external/drivers/stm32c0xx/include/stm32c0xx_ll_rcc.h **** /** @defgroup RCC_LL_EF_HSE HSE
 533:external/drivers/stm32c0xx/include/stm32c0xx_ll_rcc.h ****   * @{
 534:external/drivers/stm32c0xx/include/stm32c0xx_ll_rcc.h ****   */
 535:external/drivers/stm32c0xx/include/stm32c0xx_ll_rcc.h **** 
 536:external/drivers/stm32c0xx/include/stm32c0xx_ll_rcc.h **** /**
 537:external/drivers/stm32c0xx/include/stm32c0xx_ll_rcc.h ****   * @brief  Enable the Clock Security System.
 538:external/drivers/stm32c0xx/include/stm32c0xx_ll_rcc.h ****   * @rmtoll CR           CSSON         LL_RCC_HSE_EnableCSS
 539:external/drivers/stm32c0xx/include/stm32c0xx_ll_rcc.h ****   * @retval None
 540:external/drivers/stm32c0xx/include/stm32c0xx_ll_rcc.h ****   */
 541:external/drivers/stm32c0xx/include/stm32c0xx_ll_rcc.h **** __STATIC_INLINE void LL_RCC_HSE_EnableCSS(void)
 542:external/drivers/stm32c0xx/include/stm32c0xx_ll_rcc.h **** {
 543:external/drivers/stm32c0xx/include/stm32c0xx_ll_rcc.h ****   SET_BIT(RCC->CR, RCC_CR_CSSON);
 544:external/drivers/stm32c0xx/include/stm32c0xx_ll_rcc.h **** }
 545:external/drivers/stm32c0xx/include/stm32c0xx_ll_rcc.h **** 
 546:external/drivers/stm32c0xx/include/stm32c0xx_ll_rcc.h **** /**
 547:external/drivers/stm32c0xx/include/stm32c0xx_ll_rcc.h ****   * @brief  Enable HSE external oscillator (HSE Bypass)
 548:external/drivers/stm32c0xx/include/stm32c0xx_ll_rcc.h ****   * @rmtoll CR           HSEBYP        LL_RCC_HSE_EnableBypass
 549:external/drivers/stm32c0xx/include/stm32c0xx_ll_rcc.h ****   * @retval None
 550:external/drivers/stm32c0xx/include/stm32c0xx_ll_rcc.h ****   */
 551:external/drivers/stm32c0xx/include/stm32c0xx_ll_rcc.h **** __STATIC_INLINE void LL_RCC_HSE_EnableBypass(void)
 552:external/drivers/stm32c0xx/include/stm32c0xx_ll_rcc.h **** {
 553:external/drivers/stm32c0xx/include/stm32c0xx_ll_rcc.h ****   SET_BIT(RCC->CR, RCC_CR_HSEBYP);
 554:external/drivers/stm32c0xx/include/stm32c0xx_ll_rcc.h **** }
 555:external/drivers/stm32c0xx/include/stm32c0xx_ll_rcc.h **** 
 556:external/drivers/stm32c0xx/include/stm32c0xx_ll_rcc.h **** /**
 557:external/drivers/stm32c0xx/include/stm32c0xx_ll_rcc.h ****   * @brief  Disable HSE external oscillator (HSE Bypass)
 558:external/drivers/stm32c0xx/include/stm32c0xx_ll_rcc.h ****   * @rmtoll CR           HSEBYP        LL_RCC_HSE_DisableBypass
 559:external/drivers/stm32c0xx/include/stm32c0xx_ll_rcc.h ****   * @retval None
 560:external/drivers/stm32c0xx/include/stm32c0xx_ll_rcc.h ****   */
 561:external/drivers/stm32c0xx/include/stm32c0xx_ll_rcc.h **** __STATIC_INLINE void LL_RCC_HSE_DisableBypass(void)
 562:external/drivers/stm32c0xx/include/stm32c0xx_ll_rcc.h **** {
 563:external/drivers/stm32c0xx/include/stm32c0xx_ll_rcc.h ****   CLEAR_BIT(RCC->CR, RCC_CR_HSEBYP);
 564:external/drivers/stm32c0xx/include/stm32c0xx_ll_rcc.h **** }
ARM GAS  /tmp/ccdF5Ctr.s 			page 58


 565:external/drivers/stm32c0xx/include/stm32c0xx_ll_rcc.h **** 
 566:external/drivers/stm32c0xx/include/stm32c0xx_ll_rcc.h **** /**
 567:external/drivers/stm32c0xx/include/stm32c0xx_ll_rcc.h ****   * @brief  Enable HSE crystal oscillator (HSE ON)
 568:external/drivers/stm32c0xx/include/stm32c0xx_ll_rcc.h ****   * @rmtoll CR           HSEON         LL_RCC_HSE_Enable
 569:external/drivers/stm32c0xx/include/stm32c0xx_ll_rcc.h ****   * @retval None
 570:external/drivers/stm32c0xx/include/stm32c0xx_ll_rcc.h ****   */
 571:external/drivers/stm32c0xx/include/stm32c0xx_ll_rcc.h **** __STATIC_INLINE void LL_RCC_HSE_Enable(void)
 572:external/drivers/stm32c0xx/include/stm32c0xx_ll_rcc.h **** {
 573:external/drivers/stm32c0xx/include/stm32c0xx_ll_rcc.h ****   SET_BIT(RCC->CR, RCC_CR_HSEON);
 574:external/drivers/stm32c0xx/include/stm32c0xx_ll_rcc.h **** }
 575:external/drivers/stm32c0xx/include/stm32c0xx_ll_rcc.h **** 
 576:external/drivers/stm32c0xx/include/stm32c0xx_ll_rcc.h **** /**
 577:external/drivers/stm32c0xx/include/stm32c0xx_ll_rcc.h ****   * @brief  Disable HSE crystal oscillator (HSE ON)
 578:external/drivers/stm32c0xx/include/stm32c0xx_ll_rcc.h ****   * @rmtoll CR           HSEON         LL_RCC_HSE_Disable
 579:external/drivers/stm32c0xx/include/stm32c0xx_ll_rcc.h ****   * @retval None
 580:external/drivers/stm32c0xx/include/stm32c0xx_ll_rcc.h ****   */
 581:external/drivers/stm32c0xx/include/stm32c0xx_ll_rcc.h **** __STATIC_INLINE void LL_RCC_HSE_Disable(void)
 582:external/drivers/stm32c0xx/include/stm32c0xx_ll_rcc.h **** {
 583:external/drivers/stm32c0xx/include/stm32c0xx_ll_rcc.h ****   CLEAR_BIT(RCC->CR, RCC_CR_HSEON);
 584:external/drivers/stm32c0xx/include/stm32c0xx_ll_rcc.h **** }
 585:external/drivers/stm32c0xx/include/stm32c0xx_ll_rcc.h **** 
 586:external/drivers/stm32c0xx/include/stm32c0xx_ll_rcc.h **** /**
 587:external/drivers/stm32c0xx/include/stm32c0xx_ll_rcc.h ****   * @brief  Check if HSE oscillator Ready
 588:external/drivers/stm32c0xx/include/stm32c0xx_ll_rcc.h ****   * @rmtoll CR           HSERDY        LL_RCC_HSE_IsReady
 589:external/drivers/stm32c0xx/include/stm32c0xx_ll_rcc.h ****   * @retval State of bit (1 or 0).
 590:external/drivers/stm32c0xx/include/stm32c0xx_ll_rcc.h ****   */
 591:external/drivers/stm32c0xx/include/stm32c0xx_ll_rcc.h **** __STATIC_INLINE uint32_t LL_RCC_HSE_IsReady(void)
 592:external/drivers/stm32c0xx/include/stm32c0xx_ll_rcc.h **** {
 593:external/drivers/stm32c0xx/include/stm32c0xx_ll_rcc.h ****   return ((READ_BIT(RCC->CR, RCC_CR_HSERDY) == (RCC_CR_HSERDY)) ? 1UL : 0UL);
 594:external/drivers/stm32c0xx/include/stm32c0xx_ll_rcc.h **** }
 595:external/drivers/stm32c0xx/include/stm32c0xx_ll_rcc.h **** 
 596:external/drivers/stm32c0xx/include/stm32c0xx_ll_rcc.h **** /**
 597:external/drivers/stm32c0xx/include/stm32c0xx_ll_rcc.h ****   * @}
 598:external/drivers/stm32c0xx/include/stm32c0xx_ll_rcc.h ****   */
 599:external/drivers/stm32c0xx/include/stm32c0xx_ll_rcc.h **** 
 600:external/drivers/stm32c0xx/include/stm32c0xx_ll_rcc.h **** /** @defgroup RCC_LL_EF_HSI HSI
 601:external/drivers/stm32c0xx/include/stm32c0xx_ll_rcc.h ****   * @{
 602:external/drivers/stm32c0xx/include/stm32c0xx_ll_rcc.h ****   */
 603:external/drivers/stm32c0xx/include/stm32c0xx_ll_rcc.h **** 
 604:external/drivers/stm32c0xx/include/stm32c0xx_ll_rcc.h **** /**
 605:external/drivers/stm32c0xx/include/stm32c0xx_ll_rcc.h ****   * @brief  Enable HSI even in stop mode
 606:external/drivers/stm32c0xx/include/stm32c0xx_ll_rcc.h ****   * @note HSI oscillator is forced ON even in Stop mode
 607:external/drivers/stm32c0xx/include/stm32c0xx_ll_rcc.h ****   * @rmtoll CR           HSIKERON      LL_RCC_HSI_EnableInStopMode
 608:external/drivers/stm32c0xx/include/stm32c0xx_ll_rcc.h ****   * @retval None
 609:external/drivers/stm32c0xx/include/stm32c0xx_ll_rcc.h ****   */
 610:external/drivers/stm32c0xx/include/stm32c0xx_ll_rcc.h **** __STATIC_INLINE void LL_RCC_HSI_EnableInStopMode(void)
 611:external/drivers/stm32c0xx/include/stm32c0xx_ll_rcc.h **** {
 612:external/drivers/stm32c0xx/include/stm32c0xx_ll_rcc.h ****   SET_BIT(RCC->CR, RCC_CR_HSIKERON);
 613:external/drivers/stm32c0xx/include/stm32c0xx_ll_rcc.h **** }
 614:external/drivers/stm32c0xx/include/stm32c0xx_ll_rcc.h **** 
 615:external/drivers/stm32c0xx/include/stm32c0xx_ll_rcc.h **** /**
 616:external/drivers/stm32c0xx/include/stm32c0xx_ll_rcc.h ****   * @brief  Disable HSI in stop mode
 617:external/drivers/stm32c0xx/include/stm32c0xx_ll_rcc.h ****   * @rmtoll CR           HSIKERON      LL_RCC_HSI_DisableInStopMode
 618:external/drivers/stm32c0xx/include/stm32c0xx_ll_rcc.h ****   * @retval None
 619:external/drivers/stm32c0xx/include/stm32c0xx_ll_rcc.h ****   */
 620:external/drivers/stm32c0xx/include/stm32c0xx_ll_rcc.h **** __STATIC_INLINE void LL_RCC_HSI_DisableInStopMode(void)
 621:external/drivers/stm32c0xx/include/stm32c0xx_ll_rcc.h **** {
ARM GAS  /tmp/ccdF5Ctr.s 			page 59


 622:external/drivers/stm32c0xx/include/stm32c0xx_ll_rcc.h ****   CLEAR_BIT(RCC->CR, RCC_CR_HSIKERON);
 623:external/drivers/stm32c0xx/include/stm32c0xx_ll_rcc.h **** }
 624:external/drivers/stm32c0xx/include/stm32c0xx_ll_rcc.h **** 
 625:external/drivers/stm32c0xx/include/stm32c0xx_ll_rcc.h **** /**
 626:external/drivers/stm32c0xx/include/stm32c0xx_ll_rcc.h ****   * @brief  Check if HSI in stop mode is enabled
 627:external/drivers/stm32c0xx/include/stm32c0xx_ll_rcc.h ****   * @rmtoll CR           HSIKERON        LL_RCC_HSI_IsEnabledInStopMode
 628:external/drivers/stm32c0xx/include/stm32c0xx_ll_rcc.h ****   * @retval State of bit (1 or 0).
 629:external/drivers/stm32c0xx/include/stm32c0xx_ll_rcc.h ****   */
 630:external/drivers/stm32c0xx/include/stm32c0xx_ll_rcc.h **** __STATIC_INLINE uint32_t LL_RCC_HSI_IsEnabledInStopMode(void)
 631:external/drivers/stm32c0xx/include/stm32c0xx_ll_rcc.h **** {
 632:external/drivers/stm32c0xx/include/stm32c0xx_ll_rcc.h ****   return ((READ_BIT(RCC->CR, RCC_CR_HSIKERON) == (RCC_CR_HSIKERON)) ? 1UL : 0UL);
 633:external/drivers/stm32c0xx/include/stm32c0xx_ll_rcc.h **** }
 634:external/drivers/stm32c0xx/include/stm32c0xx_ll_rcc.h **** 
 635:external/drivers/stm32c0xx/include/stm32c0xx_ll_rcc.h **** /**
 636:external/drivers/stm32c0xx/include/stm32c0xx_ll_rcc.h ****   * @brief  Set HSIKER divider
 637:external/drivers/stm32c0xx/include/stm32c0xx_ll_rcc.h ****   * @rmtoll CR           HSIKERDIV        LL_RCC_HSIKER_SetDivider
 638:external/drivers/stm32c0xx/include/stm32c0xx_ll_rcc.h ****   * @param  Divider This parameter can be one of the following values:
 639:external/drivers/stm32c0xx/include/stm32c0xx_ll_rcc.h ****   *         @arg @ref LL_RCC_HSIKER_DIV_1
 640:external/drivers/stm32c0xx/include/stm32c0xx_ll_rcc.h ****   *         @arg @ref LL_RCC_HSIKER_DIV_2
 641:external/drivers/stm32c0xx/include/stm32c0xx_ll_rcc.h ****   *         @arg @ref LL_RCC_HSIKER_DIV_3
 642:external/drivers/stm32c0xx/include/stm32c0xx_ll_rcc.h ****   *         @arg @ref LL_RCC_HSIKER_DIV_4
 643:external/drivers/stm32c0xx/include/stm32c0xx_ll_rcc.h ****   *         @arg @ref LL_RCC_HSIKER_DIV_5
 644:external/drivers/stm32c0xx/include/stm32c0xx_ll_rcc.h ****   *         @arg @ref LL_RCC_HSIKER_DIV_6
 645:external/drivers/stm32c0xx/include/stm32c0xx_ll_rcc.h ****   *         @arg @ref LL_RCC_HSIKER_DIV_7
 646:external/drivers/stm32c0xx/include/stm32c0xx_ll_rcc.h ****   *         @arg @ref LL_RCC_HSIKER_DIV_8
 647:external/drivers/stm32c0xx/include/stm32c0xx_ll_rcc.h ****   * @retval None.
 648:external/drivers/stm32c0xx/include/stm32c0xx_ll_rcc.h ****   */
 649:external/drivers/stm32c0xx/include/stm32c0xx_ll_rcc.h **** __STATIC_INLINE void LL_RCC_HSIKER_SetDivider(uint32_t Divider)
 650:external/drivers/stm32c0xx/include/stm32c0xx_ll_rcc.h **** {
 651:external/drivers/stm32c0xx/include/stm32c0xx_ll_rcc.h ****   MODIFY_REG(RCC->CR, RCC_CR_HSIKERDIV, Divider);
 652:external/drivers/stm32c0xx/include/stm32c0xx_ll_rcc.h **** }
 653:external/drivers/stm32c0xx/include/stm32c0xx_ll_rcc.h **** 
 654:external/drivers/stm32c0xx/include/stm32c0xx_ll_rcc.h **** /**
 655:external/drivers/stm32c0xx/include/stm32c0xx_ll_rcc.h ****   * @brief  Get HSIKER divider
 656:external/drivers/stm32c0xx/include/stm32c0xx_ll_rcc.h ****   * @rmtoll CR           HSIKERDIV        LL_RCC_HSIKER_GetDivider
 657:external/drivers/stm32c0xx/include/stm32c0xx_ll_rcc.h ****   * @retval can be one of the following values:
 658:external/drivers/stm32c0xx/include/stm32c0xx_ll_rcc.h ****   *         @arg @ref LL_RCC_HSIKER_DIV_1
 659:external/drivers/stm32c0xx/include/stm32c0xx_ll_rcc.h ****   *         @arg @ref LL_RCC_HSIKER_DIV_2
 660:external/drivers/stm32c0xx/include/stm32c0xx_ll_rcc.h ****   *         @arg @ref LL_RCC_HSIKER_DIV_3
 661:external/drivers/stm32c0xx/include/stm32c0xx_ll_rcc.h ****   *         @arg @ref LL_RCC_HSIKER_DIV_4
 662:external/drivers/stm32c0xx/include/stm32c0xx_ll_rcc.h ****   *         @arg @ref LL_RCC_HSIKER_DIV_5
 663:external/drivers/stm32c0xx/include/stm32c0xx_ll_rcc.h ****   *         @arg @ref LL_RCC_HSIKER_DIV_6
 664:external/drivers/stm32c0xx/include/stm32c0xx_ll_rcc.h ****   *         @arg @ref LL_RCC_HSIKER_DIV_7
 665:external/drivers/stm32c0xx/include/stm32c0xx_ll_rcc.h ****   *         @arg @ref LL_RCC_HSIKER_DIV_8
 666:external/drivers/stm32c0xx/include/stm32c0xx_ll_rcc.h ****   */
 667:external/drivers/stm32c0xx/include/stm32c0xx_ll_rcc.h **** __STATIC_INLINE uint32_t LL_RCC_HSIKER_GetDivider(void)
 668:external/drivers/stm32c0xx/include/stm32c0xx_ll_rcc.h **** {
 669:external/drivers/stm32c0xx/include/stm32c0xx_ll_rcc.h ****   return (READ_BIT(RCC->CR, RCC_CR_HSIKERDIV));
 670:external/drivers/stm32c0xx/include/stm32c0xx_ll_rcc.h **** }
 671:external/drivers/stm32c0xx/include/stm32c0xx_ll_rcc.h **** 
 672:external/drivers/stm32c0xx/include/stm32c0xx_ll_rcc.h **** /**
 673:external/drivers/stm32c0xx/include/stm32c0xx_ll_rcc.h ****   * @brief  Enable HSI oscillator
 674:external/drivers/stm32c0xx/include/stm32c0xx_ll_rcc.h ****   * @rmtoll CR           HSION         LL_RCC_HSI_Enable
 675:external/drivers/stm32c0xx/include/stm32c0xx_ll_rcc.h ****   * @retval None
 676:external/drivers/stm32c0xx/include/stm32c0xx_ll_rcc.h ****   */
 677:external/drivers/stm32c0xx/include/stm32c0xx_ll_rcc.h **** __STATIC_INLINE void LL_RCC_HSI_Enable(void)
 678:external/drivers/stm32c0xx/include/stm32c0xx_ll_rcc.h **** {
ARM GAS  /tmp/ccdF5Ctr.s 			page 60


 679:external/drivers/stm32c0xx/include/stm32c0xx_ll_rcc.h ****   SET_BIT(RCC->CR, RCC_CR_HSION);
 680:external/drivers/stm32c0xx/include/stm32c0xx_ll_rcc.h **** }
 681:external/drivers/stm32c0xx/include/stm32c0xx_ll_rcc.h **** 
 682:external/drivers/stm32c0xx/include/stm32c0xx_ll_rcc.h **** 
 683:external/drivers/stm32c0xx/include/stm32c0xx_ll_rcc.h **** /**
 684:external/drivers/stm32c0xx/include/stm32c0xx_ll_rcc.h ****   * @brief  Set HSI divider
 685:external/drivers/stm32c0xx/include/stm32c0xx_ll_rcc.h ****   * @rmtoll CR           HSIDIV        LL_RCC_HSI_SetDivider
 686:external/drivers/stm32c0xx/include/stm32c0xx_ll_rcc.h ****   * @param  Divider This parameter can be one of the following values:
 687:external/drivers/stm32c0xx/include/stm32c0xx_ll_rcc.h ****   *         @arg @ref LL_RCC_HSI_DIV_1
 688:external/drivers/stm32c0xx/include/stm32c0xx_ll_rcc.h ****   *         @arg @ref LL_RCC_HSI_DIV_2
 689:external/drivers/stm32c0xx/include/stm32c0xx_ll_rcc.h ****   *         @arg @ref LL_RCC_HSI_DIV_4
 690:external/drivers/stm32c0xx/include/stm32c0xx_ll_rcc.h ****   *         @arg @ref LL_RCC_HSI_DIV_8
 691:external/drivers/stm32c0xx/include/stm32c0xx_ll_rcc.h ****   *         @arg @ref LL_RCC_HSI_DIV_16
 692:external/drivers/stm32c0xx/include/stm32c0xx_ll_rcc.h ****   *         @arg @ref LL_RCC_HSI_DIV_32
 693:external/drivers/stm32c0xx/include/stm32c0xx_ll_rcc.h ****   *         @arg @ref LL_RCC_HSI_DIV_64
 694:external/drivers/stm32c0xx/include/stm32c0xx_ll_rcc.h ****   *         @arg @ref LL_RCC_HSI_DIV_128
 695:external/drivers/stm32c0xx/include/stm32c0xx_ll_rcc.h ****   * @retval None.
 696:external/drivers/stm32c0xx/include/stm32c0xx_ll_rcc.h ****   */
 697:external/drivers/stm32c0xx/include/stm32c0xx_ll_rcc.h **** __STATIC_INLINE void LL_RCC_HSI_SetDivider(uint32_t Divider)
 698:external/drivers/stm32c0xx/include/stm32c0xx_ll_rcc.h **** {
 699:external/drivers/stm32c0xx/include/stm32c0xx_ll_rcc.h ****   MODIFY_REG(RCC->CR, RCC_CR_HSIDIV, Divider);
 700:external/drivers/stm32c0xx/include/stm32c0xx_ll_rcc.h **** }
 701:external/drivers/stm32c0xx/include/stm32c0xx_ll_rcc.h **** 
 702:external/drivers/stm32c0xx/include/stm32c0xx_ll_rcc.h **** /**
 703:external/drivers/stm32c0xx/include/stm32c0xx_ll_rcc.h ****   * @brief  Get HSI divider
 704:external/drivers/stm32c0xx/include/stm32c0xx_ll_rcc.h ****   * @rmtoll CR           HSIDIV        LL_RCC_HSI_GetDivider
 705:external/drivers/stm32c0xx/include/stm32c0xx_ll_rcc.h ****   * @retval can be one of the following values:
 706:external/drivers/stm32c0xx/include/stm32c0xx_ll_rcc.h ****   *         @arg @ref LL_RCC_HSI_DIV_1
 707:external/drivers/stm32c0xx/include/stm32c0xx_ll_rcc.h ****   *         @arg @ref LL_RCC_HSI_DIV_2
 708:external/drivers/stm32c0xx/include/stm32c0xx_ll_rcc.h ****   *         @arg @ref LL_RCC_HSI_DIV_4
 709:external/drivers/stm32c0xx/include/stm32c0xx_ll_rcc.h ****   *         @arg @ref LL_RCC_HSI_DIV_8
 710:external/drivers/stm32c0xx/include/stm32c0xx_ll_rcc.h ****   *         @arg @ref LL_RCC_HSI_DIV_16
 711:external/drivers/stm32c0xx/include/stm32c0xx_ll_rcc.h ****   *         @arg @ref LL_RCC_HSI_DIV_32
 712:external/drivers/stm32c0xx/include/stm32c0xx_ll_rcc.h ****   *         @arg @ref LL_RCC_HSI_DIV_64
 713:external/drivers/stm32c0xx/include/stm32c0xx_ll_rcc.h ****   *         @arg @ref LL_RCC_HSI_DIV_128
 714:external/drivers/stm32c0xx/include/stm32c0xx_ll_rcc.h ****   */
 715:external/drivers/stm32c0xx/include/stm32c0xx_ll_rcc.h **** __STATIC_INLINE uint32_t LL_RCC_HSI_GetDivider(void)
 716:external/drivers/stm32c0xx/include/stm32c0xx_ll_rcc.h **** {
 717:external/drivers/stm32c0xx/include/stm32c0xx_ll_rcc.h ****   return (READ_BIT(RCC->CR, RCC_CR_HSIDIV));
 718:external/drivers/stm32c0xx/include/stm32c0xx_ll_rcc.h **** }
 719:external/drivers/stm32c0xx/include/stm32c0xx_ll_rcc.h **** 
 720:external/drivers/stm32c0xx/include/stm32c0xx_ll_rcc.h **** /**
 721:external/drivers/stm32c0xx/include/stm32c0xx_ll_rcc.h ****   * @brief  Disable HSI oscillator
 722:external/drivers/stm32c0xx/include/stm32c0xx_ll_rcc.h ****   * @rmtoll CR           HSION         LL_RCC_HSI_Disable
 723:external/drivers/stm32c0xx/include/stm32c0xx_ll_rcc.h ****   * @retval None
 724:external/drivers/stm32c0xx/include/stm32c0xx_ll_rcc.h ****   */
 725:external/drivers/stm32c0xx/include/stm32c0xx_ll_rcc.h **** __STATIC_INLINE void LL_RCC_HSI_Disable(void)
 726:external/drivers/stm32c0xx/include/stm32c0xx_ll_rcc.h **** {
 727:external/drivers/stm32c0xx/include/stm32c0xx_ll_rcc.h ****   CLEAR_BIT(RCC->CR, RCC_CR_HSION);
 728:external/drivers/stm32c0xx/include/stm32c0xx_ll_rcc.h **** }
 729:external/drivers/stm32c0xx/include/stm32c0xx_ll_rcc.h **** 
 730:external/drivers/stm32c0xx/include/stm32c0xx_ll_rcc.h **** /**
 731:external/drivers/stm32c0xx/include/stm32c0xx_ll_rcc.h ****   * @brief  Check if HSI clock is ready
 732:external/drivers/stm32c0xx/include/stm32c0xx_ll_rcc.h ****   * @rmtoll CR           HSIRDY        LL_RCC_HSI_IsReady
 733:external/drivers/stm32c0xx/include/stm32c0xx_ll_rcc.h ****   * @retval State of bit (1 or 0).
 734:external/drivers/stm32c0xx/include/stm32c0xx_ll_rcc.h ****   */
 735:external/drivers/stm32c0xx/include/stm32c0xx_ll_rcc.h **** __STATIC_INLINE uint32_t LL_RCC_HSI_IsReady(void)
ARM GAS  /tmp/ccdF5Ctr.s 			page 61


 736:external/drivers/stm32c0xx/include/stm32c0xx_ll_rcc.h **** {
 737:external/drivers/stm32c0xx/include/stm32c0xx_ll_rcc.h ****   return ((READ_BIT(RCC->CR, RCC_CR_HSIRDY) == (RCC_CR_HSIRDY)) ? 1UL : 0UL);
 738:external/drivers/stm32c0xx/include/stm32c0xx_ll_rcc.h **** }
 739:external/drivers/stm32c0xx/include/stm32c0xx_ll_rcc.h **** 
 740:external/drivers/stm32c0xx/include/stm32c0xx_ll_rcc.h **** /**
 741:external/drivers/stm32c0xx/include/stm32c0xx_ll_rcc.h ****   * @brief  Get HSI Calibration value
 742:external/drivers/stm32c0xx/include/stm32c0xx_ll_rcc.h ****   * @note When HSITRIM is written, HSICAL is updated with the sum of
 743:external/drivers/stm32c0xx/include/stm32c0xx_ll_rcc.h ****   *       HSITRIM and the factory trim value
 744:external/drivers/stm32c0xx/include/stm32c0xx_ll_rcc.h ****   * @rmtoll ICSCR        HSICAL        LL_RCC_HSI_GetCalibration
 745:external/drivers/stm32c0xx/include/stm32c0xx_ll_rcc.h ****   * @retval Between Min_Data = 0x00 and Max_Data = 0xFF
 746:external/drivers/stm32c0xx/include/stm32c0xx_ll_rcc.h ****   */
 747:external/drivers/stm32c0xx/include/stm32c0xx_ll_rcc.h **** __STATIC_INLINE uint32_t LL_RCC_HSI_GetCalibration(void)
 748:external/drivers/stm32c0xx/include/stm32c0xx_ll_rcc.h **** {
 749:external/drivers/stm32c0xx/include/stm32c0xx_ll_rcc.h ****   return (uint32_t)(READ_BIT(RCC->ICSCR, RCC_ICSCR_HSICAL) >> RCC_ICSCR_HSICAL_Pos);
 750:external/drivers/stm32c0xx/include/stm32c0xx_ll_rcc.h **** }
 751:external/drivers/stm32c0xx/include/stm32c0xx_ll_rcc.h **** 
 752:external/drivers/stm32c0xx/include/stm32c0xx_ll_rcc.h **** /**
 753:external/drivers/stm32c0xx/include/stm32c0xx_ll_rcc.h ****   * @brief  Set HSI Calibration trimming
 754:external/drivers/stm32c0xx/include/stm32c0xx_ll_rcc.h ****   * @note user-programmable trimming value that is added to the HSICAL
 755:external/drivers/stm32c0xx/include/stm32c0xx_ll_rcc.h ****   * @note Default value is 64, which, when added to the HSICAL value,
 756:external/drivers/stm32c0xx/include/stm32c0xx_ll_rcc.h ****   *       should trim the HSI to 16 MHz +/- 1 %
 757:external/drivers/stm32c0xx/include/stm32c0xx_ll_rcc.h ****   * @rmtoll ICSCR        HSITRIM       LL_RCC_HSI_SetCalibTrimming
 758:external/drivers/stm32c0xx/include/stm32c0xx_ll_rcc.h ****   * @param  Value Between Min_Data = 0 and Max_Data = 127
 759:external/drivers/stm32c0xx/include/stm32c0xx_ll_rcc.h ****   * @retval None
 760:external/drivers/stm32c0xx/include/stm32c0xx_ll_rcc.h ****   */
 761:external/drivers/stm32c0xx/include/stm32c0xx_ll_rcc.h **** __STATIC_INLINE void LL_RCC_HSI_SetCalibTrimming(uint32_t Value)
 762:external/drivers/stm32c0xx/include/stm32c0xx_ll_rcc.h **** {
 763:external/drivers/stm32c0xx/include/stm32c0xx_ll_rcc.h ****   MODIFY_REG(RCC->ICSCR, RCC_ICSCR_HSITRIM, Value << RCC_ICSCR_HSITRIM_Pos);
 764:external/drivers/stm32c0xx/include/stm32c0xx_ll_rcc.h **** }
 765:external/drivers/stm32c0xx/include/stm32c0xx_ll_rcc.h **** 
 766:external/drivers/stm32c0xx/include/stm32c0xx_ll_rcc.h **** /**
 767:external/drivers/stm32c0xx/include/stm32c0xx_ll_rcc.h ****   * @brief  Get HSI Calibration trimming
 768:external/drivers/stm32c0xx/include/stm32c0xx_ll_rcc.h ****   * @rmtoll ICSCR        HSITRIM       LL_RCC_HSI_GetCalibTrimming
 769:external/drivers/stm32c0xx/include/stm32c0xx_ll_rcc.h ****   * @retval Between Min_Data = 0 and Max_Data = 127
 770:external/drivers/stm32c0xx/include/stm32c0xx_ll_rcc.h ****   */
 771:external/drivers/stm32c0xx/include/stm32c0xx_ll_rcc.h **** __STATIC_INLINE uint32_t LL_RCC_HSI_GetCalibTrimming(void)
 772:external/drivers/stm32c0xx/include/stm32c0xx_ll_rcc.h **** {
 773:external/drivers/stm32c0xx/include/stm32c0xx_ll_rcc.h ****   return (uint32_t)(READ_BIT(RCC->ICSCR, RCC_ICSCR_HSITRIM) >> RCC_ICSCR_HSITRIM_Pos);
 774:external/drivers/stm32c0xx/include/stm32c0xx_ll_rcc.h **** }
 775:external/drivers/stm32c0xx/include/stm32c0xx_ll_rcc.h **** 
 776:external/drivers/stm32c0xx/include/stm32c0xx_ll_rcc.h **** /**
 777:external/drivers/stm32c0xx/include/stm32c0xx_ll_rcc.h ****   * @}
 778:external/drivers/stm32c0xx/include/stm32c0xx_ll_rcc.h ****   */
 779:external/drivers/stm32c0xx/include/stm32c0xx_ll_rcc.h **** 
 780:external/drivers/stm32c0xx/include/stm32c0xx_ll_rcc.h **** /** @defgroup RCC_LL_EF_LSE LSE
 781:external/drivers/stm32c0xx/include/stm32c0xx_ll_rcc.h ****   * @{
 782:external/drivers/stm32c0xx/include/stm32c0xx_ll_rcc.h ****   */
 783:external/drivers/stm32c0xx/include/stm32c0xx_ll_rcc.h **** 
 784:external/drivers/stm32c0xx/include/stm32c0xx_ll_rcc.h **** /**
 785:external/drivers/stm32c0xx/include/stm32c0xx_ll_rcc.h ****   * @brief  Enable  Low Speed External (LSE) crystal.
 786:external/drivers/stm32c0xx/include/stm32c0xx_ll_rcc.h ****   * @rmtoll CSR1         LSEON         LL_RCC_LSE_Enable
 787:external/drivers/stm32c0xx/include/stm32c0xx_ll_rcc.h ****   * @retval None
 788:external/drivers/stm32c0xx/include/stm32c0xx_ll_rcc.h ****   */
 789:external/drivers/stm32c0xx/include/stm32c0xx_ll_rcc.h **** __STATIC_INLINE void LL_RCC_LSE_Enable(void)
 790:external/drivers/stm32c0xx/include/stm32c0xx_ll_rcc.h **** {
 791:external/drivers/stm32c0xx/include/stm32c0xx_ll_rcc.h ****   SET_BIT(RCC->CSR1, RCC_CSR1_LSEON);
 792:external/drivers/stm32c0xx/include/stm32c0xx_ll_rcc.h **** }
ARM GAS  /tmp/ccdF5Ctr.s 			page 62


 793:external/drivers/stm32c0xx/include/stm32c0xx_ll_rcc.h **** 
 794:external/drivers/stm32c0xx/include/stm32c0xx_ll_rcc.h **** /**
 795:external/drivers/stm32c0xx/include/stm32c0xx_ll_rcc.h ****   * @brief  Disable  Low Speed External (LSE) crystal.
 796:external/drivers/stm32c0xx/include/stm32c0xx_ll_rcc.h ****   * @rmtoll CSR1         LSEON         LL_RCC_LSE_Disable
 797:external/drivers/stm32c0xx/include/stm32c0xx_ll_rcc.h ****   * @retval None
 798:external/drivers/stm32c0xx/include/stm32c0xx_ll_rcc.h ****   */
 799:external/drivers/stm32c0xx/include/stm32c0xx_ll_rcc.h **** __STATIC_INLINE void LL_RCC_LSE_Disable(void)
 800:external/drivers/stm32c0xx/include/stm32c0xx_ll_rcc.h **** {
 801:external/drivers/stm32c0xx/include/stm32c0xx_ll_rcc.h ****   CLEAR_BIT(RCC->CSR1, RCC_CSR1_LSEON);
 802:external/drivers/stm32c0xx/include/stm32c0xx_ll_rcc.h **** }
 803:external/drivers/stm32c0xx/include/stm32c0xx_ll_rcc.h **** 
 804:external/drivers/stm32c0xx/include/stm32c0xx_ll_rcc.h **** /**
 805:external/drivers/stm32c0xx/include/stm32c0xx_ll_rcc.h ****   * @brief  Enable external clock source (LSE bypass).
 806:external/drivers/stm32c0xx/include/stm32c0xx_ll_rcc.h ****   * @rmtoll CSR1         LSEBYP        LL_RCC_LSE_EnableBypass
 807:external/drivers/stm32c0xx/include/stm32c0xx_ll_rcc.h ****   * @retval None
