ARM GAS  /tmp/ccItwm8l.s 			page 1


   1              		.cpu cortex-m0plus
   2              		.arch armv6s-m
   3              		.fpu softvfp
   4              		.eabi_attribute 20, 1
   5              		.eabi_attribute 21, 1
   6              		.eabi_attribute 23, 3
   7              		.eabi_attribute 24, 1
   8              		.eabi_attribute 25, 1
   9              		.eabi_attribute 26, 1
  10              		.eabi_attribute 30, 2
  11              		.eabi_attribute 34, 0
  12              		.eabi_attribute 18, 4
  13              		.file	"stm32c0xx_hal_exti.c"
  14              		.text
  15              	.Ltext0:
  16              		.cfi_sections	.debug_frame
  17              		.file 1 "external/drivers/stm32c0xx/src/stm32c0xx_hal_exti.c"
  18              		.section	.text.HAL_EXTI_SetConfigLine,"ax",%progbits
  19              		.align	1
  20              		.p2align 2,,3
  21              		.global	HAL_EXTI_SetConfigLine
  22              		.syntax unified
  23              		.code	16
  24              		.thumb_func
  26              	HAL_EXTI_SetConfigLine:
  27              	.LVL0:
  28              	.LFB214:
   1:external/drivers/stm32c0xx/src/stm32c0xx_hal_exti.c **** /**
   2:external/drivers/stm32c0xx/src/stm32c0xx_hal_exti.c ****   ******************************************************************************
   3:external/drivers/stm32c0xx/src/stm32c0xx_hal_exti.c ****   * @file    stm32c0xx_hal_exti.c
   4:external/drivers/stm32c0xx/src/stm32c0xx_hal_exti.c ****   * @author  MCD Application Team
   5:external/drivers/stm32c0xx/src/stm32c0xx_hal_exti.c ****   * @brief   EXTI HAL module driver.
   6:external/drivers/stm32c0xx/src/stm32c0xx_hal_exti.c ****   *          This file provides firmware functions to manage the following
   7:external/drivers/stm32c0xx/src/stm32c0xx_hal_exti.c ****   *          functionalities of the General Purpose Input/Output (EXTI) peripheral:
   8:external/drivers/stm32c0xx/src/stm32c0xx_hal_exti.c ****   *           + Initialization and de-initialization functions
   9:external/drivers/stm32c0xx/src/stm32c0xx_hal_exti.c ****   *           + IO operation functions
  10:external/drivers/stm32c0xx/src/stm32c0xx_hal_exti.c ****   *
  11:external/drivers/stm32c0xx/src/stm32c0xx_hal_exti.c ****   ******************************************************************************
  12:external/drivers/stm32c0xx/src/stm32c0xx_hal_exti.c ****   * @attention
  13:external/drivers/stm32c0xx/src/stm32c0xx_hal_exti.c ****   *
  14:external/drivers/stm32c0xx/src/stm32c0xx_hal_exti.c ****   * Copyright (c) 2022 STMicroelectronics.
  15:external/drivers/stm32c0xx/src/stm32c0xx_hal_exti.c ****   * All rights reserved.
  16:external/drivers/stm32c0xx/src/stm32c0xx_hal_exti.c ****   *
  17:external/drivers/stm32c0xx/src/stm32c0xx_hal_exti.c ****   * This software is licensed under terms that can be found in the LICENSE file
  18:external/drivers/stm32c0xx/src/stm32c0xx_hal_exti.c ****   * in the root directory of this software component.
  19:external/drivers/stm32c0xx/src/stm32c0xx_hal_exti.c ****   * If no LICENSE file comes with this software, it is provided AS-IS.
  20:external/drivers/stm32c0xx/src/stm32c0xx_hal_exti.c ****   *
  21:external/drivers/stm32c0xx/src/stm32c0xx_hal_exti.c ****   ******************************************************************************
  22:external/drivers/stm32c0xx/src/stm32c0xx_hal_exti.c ****   @verbatim
  23:external/drivers/stm32c0xx/src/stm32c0xx_hal_exti.c ****   ==============================================================================
  24:external/drivers/stm32c0xx/src/stm32c0xx_hal_exti.c ****                     ##### EXTI Peripheral features #####
  25:external/drivers/stm32c0xx/src/stm32c0xx_hal_exti.c ****   ==============================================================================
  26:external/drivers/stm32c0xx/src/stm32c0xx_hal_exti.c ****   [..]
  27:external/drivers/stm32c0xx/src/stm32c0xx_hal_exti.c ****     (+) Each Exti line can be configured within this driver.
  28:external/drivers/stm32c0xx/src/stm32c0xx_hal_exti.c **** 
  29:external/drivers/stm32c0xx/src/stm32c0xx_hal_exti.c ****     (+) Exti line can be configured in 3 different modes
  30:external/drivers/stm32c0xx/src/stm32c0xx_hal_exti.c ****         (++) Interrupt
ARM GAS  /tmp/ccItwm8l.s 			page 2


  31:external/drivers/stm32c0xx/src/stm32c0xx_hal_exti.c ****         (++) Event
  32:external/drivers/stm32c0xx/src/stm32c0xx_hal_exti.c ****         (++) Both of them
  33:external/drivers/stm32c0xx/src/stm32c0xx_hal_exti.c **** 
  34:external/drivers/stm32c0xx/src/stm32c0xx_hal_exti.c ****     (+) Configurable Exti lines can be configured with 3 different triggers
  35:external/drivers/stm32c0xx/src/stm32c0xx_hal_exti.c ****         (++) Rising
  36:external/drivers/stm32c0xx/src/stm32c0xx_hal_exti.c ****         (++) Falling
  37:external/drivers/stm32c0xx/src/stm32c0xx_hal_exti.c ****         (++) Both of them
  38:external/drivers/stm32c0xx/src/stm32c0xx_hal_exti.c **** 
  39:external/drivers/stm32c0xx/src/stm32c0xx_hal_exti.c ****     (+) When set in interrupt mode, configurable Exti lines have two diffenrents
  40:external/drivers/stm32c0xx/src/stm32c0xx_hal_exti.c ****         interrupt pending registers which allow to distinguish which transition
  41:external/drivers/stm32c0xx/src/stm32c0xx_hal_exti.c ****         occurs:
  42:external/drivers/stm32c0xx/src/stm32c0xx_hal_exti.c ****         (++) Rising edge pending interrupt
  43:external/drivers/stm32c0xx/src/stm32c0xx_hal_exti.c ****         (++) Falling
  44:external/drivers/stm32c0xx/src/stm32c0xx_hal_exti.c **** 
  45:external/drivers/stm32c0xx/src/stm32c0xx_hal_exti.c ****     (+) Exti lines 0 to 15 are linked to gpio pin number 0 to 15. Gpio port can
  46:external/drivers/stm32c0xx/src/stm32c0xx_hal_exti.c ****         be selected through multiplexer.
  47:external/drivers/stm32c0xx/src/stm32c0xx_hal_exti.c **** 
  48:external/drivers/stm32c0xx/src/stm32c0xx_hal_exti.c ****                      ##### How to use this driver #####
  49:external/drivers/stm32c0xx/src/stm32c0xx_hal_exti.c ****   ==============================================================================
  50:external/drivers/stm32c0xx/src/stm32c0xx_hal_exti.c ****   [..]
  51:external/drivers/stm32c0xx/src/stm32c0xx_hal_exti.c **** 
  52:external/drivers/stm32c0xx/src/stm32c0xx_hal_exti.c ****     (#) Configure the EXTI line using HAL_EXTI_SetConfigLine().
  53:external/drivers/stm32c0xx/src/stm32c0xx_hal_exti.c ****         (++) Choose the interrupt line number by setting "Line" member from
  54:external/drivers/stm32c0xx/src/stm32c0xx_hal_exti.c ****              EXTI_ConfigTypeDef structure.
  55:external/drivers/stm32c0xx/src/stm32c0xx_hal_exti.c ****         (++) Configure the interrupt and/or event mode using "Mode" member from
  56:external/drivers/stm32c0xx/src/stm32c0xx_hal_exti.c ****              EXTI_ConfigTypeDef structure.
  57:external/drivers/stm32c0xx/src/stm32c0xx_hal_exti.c ****         (++) For configurable lines, configure rising and/or falling trigger
  58:external/drivers/stm32c0xx/src/stm32c0xx_hal_exti.c ****              "Trigger" member from EXTI_ConfigTypeDef structure.
  59:external/drivers/stm32c0xx/src/stm32c0xx_hal_exti.c ****         (++) For Exti lines linked to gpio, choose gpio port using "GPIOSel"
  60:external/drivers/stm32c0xx/src/stm32c0xx_hal_exti.c ****              member from GPIO_InitTypeDef structure.
  61:external/drivers/stm32c0xx/src/stm32c0xx_hal_exti.c **** 
  62:external/drivers/stm32c0xx/src/stm32c0xx_hal_exti.c ****     (#) Get current Exti configuration of a dedicated line using
  63:external/drivers/stm32c0xx/src/stm32c0xx_hal_exti.c ****         HAL_EXTI_GetConfigLine().
  64:external/drivers/stm32c0xx/src/stm32c0xx_hal_exti.c ****         (++) Provide exiting handle as parameter.
  65:external/drivers/stm32c0xx/src/stm32c0xx_hal_exti.c ****         (++) Provide pointer on EXTI_ConfigTypeDef structure as second parameter.
  66:external/drivers/stm32c0xx/src/stm32c0xx_hal_exti.c **** 
  67:external/drivers/stm32c0xx/src/stm32c0xx_hal_exti.c ****     (#) Clear Exti configuration of a dedicated line using HAL_EXTI_GetConfigLine().
  68:external/drivers/stm32c0xx/src/stm32c0xx_hal_exti.c ****         (++) Provide exiting handle as parameter.
  69:external/drivers/stm32c0xx/src/stm32c0xx_hal_exti.c **** 
  70:external/drivers/stm32c0xx/src/stm32c0xx_hal_exti.c ****     (#) Register callback to treat Exti interrupts using HAL_EXTI_RegisterCallback().
  71:external/drivers/stm32c0xx/src/stm32c0xx_hal_exti.c ****         (++) Provide exiting handle as first parameter.
  72:external/drivers/stm32c0xx/src/stm32c0xx_hal_exti.c ****         (++) Provide which callback will be registered using one value from
  73:external/drivers/stm32c0xx/src/stm32c0xx_hal_exti.c ****              EXTI_CallbackIDTypeDef.
  74:external/drivers/stm32c0xx/src/stm32c0xx_hal_exti.c ****         (++) Provide callback function pointer.
  75:external/drivers/stm32c0xx/src/stm32c0xx_hal_exti.c **** 
  76:external/drivers/stm32c0xx/src/stm32c0xx_hal_exti.c ****     (#) Get interrupt pending bit using HAL_EXTI_GetPending().
  77:external/drivers/stm32c0xx/src/stm32c0xx_hal_exti.c **** 
  78:external/drivers/stm32c0xx/src/stm32c0xx_hal_exti.c ****     (#) Clear interrupt pending bit using HAL_EXTI_GetPending().
  79:external/drivers/stm32c0xx/src/stm32c0xx_hal_exti.c **** 
  80:external/drivers/stm32c0xx/src/stm32c0xx_hal_exti.c ****     (#) Generate software interrupt using HAL_EXTI_GenerateSWI().
  81:external/drivers/stm32c0xx/src/stm32c0xx_hal_exti.c **** 
  82:external/drivers/stm32c0xx/src/stm32c0xx_hal_exti.c ****   @endverbatim
  83:external/drivers/stm32c0xx/src/stm32c0xx_hal_exti.c ****   */
  84:external/drivers/stm32c0xx/src/stm32c0xx_hal_exti.c **** 
  85:external/drivers/stm32c0xx/src/stm32c0xx_hal_exti.c **** /* Includes ------------------------------------------------------------------*/
  86:external/drivers/stm32c0xx/src/stm32c0xx_hal_exti.c **** #include "stm32c0xx_hal.h"
  87:external/drivers/stm32c0xx/src/stm32c0xx_hal_exti.c **** 
ARM GAS  /tmp/ccItwm8l.s 			page 3


  88:external/drivers/stm32c0xx/src/stm32c0xx_hal_exti.c **** /** @addtogroup STM32C0xx_HAL_Driver
  89:external/drivers/stm32c0xx/src/stm32c0xx_hal_exti.c ****   * @{
  90:external/drivers/stm32c0xx/src/stm32c0xx_hal_exti.c ****   */
  91:external/drivers/stm32c0xx/src/stm32c0xx_hal_exti.c **** 
  92:external/drivers/stm32c0xx/src/stm32c0xx_hal_exti.c **** /** @addtogroup EXTI
  93:external/drivers/stm32c0xx/src/stm32c0xx_hal_exti.c ****   * @{
  94:external/drivers/stm32c0xx/src/stm32c0xx_hal_exti.c ****   */
  95:external/drivers/stm32c0xx/src/stm32c0xx_hal_exti.c **** 
  96:external/drivers/stm32c0xx/src/stm32c0xx_hal_exti.c **** #ifdef HAL_EXTI_MODULE_ENABLED
  97:external/drivers/stm32c0xx/src/stm32c0xx_hal_exti.c **** 
  98:external/drivers/stm32c0xx/src/stm32c0xx_hal_exti.c **** /* Private typedef -----------------------------------------------------------*/
  99:external/drivers/stm32c0xx/src/stm32c0xx_hal_exti.c **** /* Private defines ------------------------------------------------------------*/
 100:external/drivers/stm32c0xx/src/stm32c0xx_hal_exti.c **** /** @defgroup EXTI_Private_Constants EXTI Private Constants
 101:external/drivers/stm32c0xx/src/stm32c0xx_hal_exti.c ****   * @{
 102:external/drivers/stm32c0xx/src/stm32c0xx_hal_exti.c ****   */
 103:external/drivers/stm32c0xx/src/stm32c0xx_hal_exti.c **** #define EXTI_MODE_OFFSET                 0x04u   /* 0x10: offset between CPU IMR/EMR registers */
 104:external/drivers/stm32c0xx/src/stm32c0xx_hal_exti.c **** #define EXTI_CONFIG_OFFSET               0x08u   /* 0x20: offset between CPU Rising/Falling configu
 105:external/drivers/stm32c0xx/src/stm32c0xx_hal_exti.c **** /**
 106:external/drivers/stm32c0xx/src/stm32c0xx_hal_exti.c ****   * @}
 107:external/drivers/stm32c0xx/src/stm32c0xx_hal_exti.c ****   */
 108:external/drivers/stm32c0xx/src/stm32c0xx_hal_exti.c **** 
 109:external/drivers/stm32c0xx/src/stm32c0xx_hal_exti.c **** /* Private macros ------------------------------------------------------------*/
 110:external/drivers/stm32c0xx/src/stm32c0xx_hal_exti.c **** /* Private variables ---------------------------------------------------------*/
 111:external/drivers/stm32c0xx/src/stm32c0xx_hal_exti.c **** /* Private function prototypes -----------------------------------------------*/
 112:external/drivers/stm32c0xx/src/stm32c0xx_hal_exti.c **** /* Exported functions --------------------------------------------------------*/
 113:external/drivers/stm32c0xx/src/stm32c0xx_hal_exti.c **** 
 114:external/drivers/stm32c0xx/src/stm32c0xx_hal_exti.c **** /** @addtogroup EXTI_Exported_Functions
 115:external/drivers/stm32c0xx/src/stm32c0xx_hal_exti.c ****   * @{
 116:external/drivers/stm32c0xx/src/stm32c0xx_hal_exti.c ****   */
 117:external/drivers/stm32c0xx/src/stm32c0xx_hal_exti.c **** 
 118:external/drivers/stm32c0xx/src/stm32c0xx_hal_exti.c **** /** @addtogroup EXTI_Exported_Functions_Group1
 119:external/drivers/stm32c0xx/src/stm32c0xx_hal_exti.c ****   *  @brief    Configuration functions
 120:external/drivers/stm32c0xx/src/stm32c0xx_hal_exti.c ****   *
 121:external/drivers/stm32c0xx/src/stm32c0xx_hal_exti.c **** @verbatim
 122:external/drivers/stm32c0xx/src/stm32c0xx_hal_exti.c ****  ===============================================================================
 123:external/drivers/stm32c0xx/src/stm32c0xx_hal_exti.c ****               ##### Configuration functions #####
 124:external/drivers/stm32c0xx/src/stm32c0xx_hal_exti.c ****  ===============================================================================
 125:external/drivers/stm32c0xx/src/stm32c0xx_hal_exti.c **** 
 126:external/drivers/stm32c0xx/src/stm32c0xx_hal_exti.c **** @endverbatim
 127:external/drivers/stm32c0xx/src/stm32c0xx_hal_exti.c ****   * @{
 128:external/drivers/stm32c0xx/src/stm32c0xx_hal_exti.c ****   */
 129:external/drivers/stm32c0xx/src/stm32c0xx_hal_exti.c **** 
 130:external/drivers/stm32c0xx/src/stm32c0xx_hal_exti.c **** /**
 131:external/drivers/stm32c0xx/src/stm32c0xx_hal_exti.c ****   * @brief  Set configuration of a dedicated Exti line.
 132:external/drivers/stm32c0xx/src/stm32c0xx_hal_exti.c ****   * @param  hexti Exti handle.
 133:external/drivers/stm32c0xx/src/stm32c0xx_hal_exti.c ****   * @param  pExtiConfig Pointer on EXTI configuration to be set.
 134:external/drivers/stm32c0xx/src/stm32c0xx_hal_exti.c ****   * @retval HAL Status.
 135:external/drivers/stm32c0xx/src/stm32c0xx_hal_exti.c ****   */
 136:external/drivers/stm32c0xx/src/stm32c0xx_hal_exti.c **** HAL_StatusTypeDef HAL_EXTI_SetConfigLine(EXTI_HandleTypeDef *hexti, EXTI_ConfigTypeDef *pExtiConfig
 137:external/drivers/stm32c0xx/src/stm32c0xx_hal_exti.c **** {
  29              		.loc 1 137 1 view -0
  30              		.cfi_startproc
  31              		@ args = 0, pretend = 0, frame = 0
  32              		@ frame_needed = 0, uses_anonymous_args = 0
 138:external/drivers/stm32c0xx/src/stm32c0xx_hal_exti.c ****   __IO uint32_t *regaddr;
  33              		.loc 1 138 3 view .LVU1
 139:external/drivers/stm32c0xx/src/stm32c0xx_hal_exti.c ****   uint32_t regval;
ARM GAS  /tmp/ccItwm8l.s 			page 4


  34              		.loc 1 139 3 view .LVU2
 140:external/drivers/stm32c0xx/src/stm32c0xx_hal_exti.c ****   uint32_t linepos;
  35              		.loc 1 140 3 view .LVU3
 141:external/drivers/stm32c0xx/src/stm32c0xx_hal_exti.c ****   uint32_t maskline;
  36              		.loc 1 141 3 view .LVU4
 142:external/drivers/stm32c0xx/src/stm32c0xx_hal_exti.c ****   uint32_t offset;
  37              		.loc 1 142 3 view .LVU5
 143:external/drivers/stm32c0xx/src/stm32c0xx_hal_exti.c **** 
 144:external/drivers/stm32c0xx/src/stm32c0xx_hal_exti.c ****   /* Check null pointer */
 145:external/drivers/stm32c0xx/src/stm32c0xx_hal_exti.c ****   if ((hexti == NULL) || (pExtiConfig == NULL))
  38              		.loc 1 145 3 view .LVU6
 137:external/drivers/stm32c0xx/src/stm32c0xx_hal_exti.c ****   __IO uint32_t *regaddr;
  39              		.loc 1 137 1 is_stmt 0 view .LVU7
  40 0000 F0B5     		push	{r4, r5, r6, r7, lr}
  41              	.LCFI0:
  42              		.cfi_def_cfa_offset 20
  43              		.cfi_offset 4, -20
  44              		.cfi_offset 5, -16
  45              		.cfi_offset 6, -12
  46              		.cfi_offset 7, -8
  47              		.cfi_offset 14, -4
  48 0002 CE46     		mov	lr, r9
  49 0004 4746     		mov	r7, r8
  50 0006 80B5     		push	{r7, lr}
  51              	.LCFI1:
  52              		.cfi_def_cfa_offset 28
  53              		.cfi_offset 8, -28
  54              		.cfi_offset 9, -24
  55              		.loc 1 145 6 view .LVU8
  56 0008 0028     		cmp	r0, #0
  57 000a 5CD0     		beq	.L15
  58              		.loc 1 145 23 discriminator 1 view .LVU9
  59 000c 0029     		cmp	r1, #0
  60 000e 5AD0     		beq	.L15
 146:external/drivers/stm32c0xx/src/stm32c0xx_hal_exti.c ****   {
 147:external/drivers/stm32c0xx/src/stm32c0xx_hal_exti.c ****     return HAL_ERROR;
 148:external/drivers/stm32c0xx/src/stm32c0xx_hal_exti.c ****   }
 149:external/drivers/stm32c0xx/src/stm32c0xx_hal_exti.c **** 
 150:external/drivers/stm32c0xx/src/stm32c0xx_hal_exti.c ****   /* Check the parameters */
 151:external/drivers/stm32c0xx/src/stm32c0xx_hal_exti.c ****   assert_param(IS_EXTI_LINE(pExtiConfig->Line));
  61              		.loc 1 151 3 is_stmt 1 view .LVU10
 152:external/drivers/stm32c0xx/src/stm32c0xx_hal_exti.c ****   assert_param(IS_EXTI_MODE(pExtiConfig->Mode));
  62              		.loc 1 152 3 view .LVU11
 153:external/drivers/stm32c0xx/src/stm32c0xx_hal_exti.c **** 
 154:external/drivers/stm32c0xx/src/stm32c0xx_hal_exti.c ****   /* Assign line number to handle */
 155:external/drivers/stm32c0xx/src/stm32c0xx_hal_exti.c ****   hexti->Line = pExtiConfig->Line;
  63              		.loc 1 155 3 view .LVU12
  64              		.loc 1 155 28 is_stmt 0 view .LVU13
  65 0010 0D68     		ldr	r5, [r1]
 156:external/drivers/stm32c0xx/src/stm32c0xx_hal_exti.c **** 
 157:external/drivers/stm32c0xx/src/stm32c0xx_hal_exti.c ****   /* compute line register offset and line mask */
 158:external/drivers/stm32c0xx/src/stm32c0xx_hal_exti.c ****   offset = ((pExtiConfig->Line & EXTI_REG_MASK) >> EXTI_REG_SHIFT);
 159:external/drivers/stm32c0xx/src/stm32c0xx_hal_exti.c ****   linepos = (pExtiConfig->Line & EXTI_PIN_MASK);
  66              		.loc 1 159 11 view .LVU14
  67 0012 1F22     		movs	r2, #31
 155:external/drivers/stm32c0xx/src/stm32c0xx_hal_exti.c **** 
  68              		.loc 1 155 15 view .LVU15
ARM GAS  /tmp/ccItwm8l.s 			page 5


  69 0014 0560     		str	r5, [r0]
 158:external/drivers/stm32c0xx/src/stm32c0xx_hal_exti.c ****   linepos = (pExtiConfig->Line & EXTI_PIN_MASK);
  70              		.loc 1 158 3 is_stmt 1 view .LVU16
 158:external/drivers/stm32c0xx/src/stm32c0xx_hal_exti.c ****   linepos = (pExtiConfig->Line & EXTI_PIN_MASK);
  71              		.loc 1 158 10 is_stmt 0 view .LVU17
  72 0016 0120     		movs	r0, #1
  73              	.LVL1:
 160:external/drivers/stm32c0xx/src/stm32c0xx_hal_exti.c ****   maskline = (1UL << linepos);
  74              		.loc 1 160 12 view .LVU18
  75 0018 0400     		movs	r4, r0
 158:external/drivers/stm32c0xx/src/stm32c0xx_hal_exti.c ****   linepos = (pExtiConfig->Line & EXTI_PIN_MASK);
  76              		.loc 1 158 49 view .LVU19
  77 001a 2B0C     		lsrs	r3, r5, #16
 159:external/drivers/stm32c0xx/src/stm32c0xx_hal_exti.c ****   maskline = (1UL << linepos);
  78              		.loc 1 159 11 view .LVU20
  79 001c 2A40     		ands	r2, r5
  80              		.loc 1 160 12 view .LVU21
  81 001e 9440     		lsls	r4, r4, r2
 158:external/drivers/stm32c0xx/src/stm32c0xx_hal_exti.c ****   linepos = (pExtiConfig->Line & EXTI_PIN_MASK);
  82              		.loc 1 158 10 view .LVU22
  83 0020 0340     		ands	r3, r0
  84              	.LVL2:
 159:external/drivers/stm32c0xx/src/stm32c0xx_hal_exti.c ****   maskline = (1UL << linepos);
  85              		.loc 1 159 3 is_stmt 1 view .LVU23
  86              		.loc 1 160 3 view .LVU24
 161:external/drivers/stm32c0xx/src/stm32c0xx_hal_exti.c **** 
 162:external/drivers/stm32c0xx/src/stm32c0xx_hal_exti.c ****   /* Configure triggers for configurable lines */
 163:external/drivers/stm32c0xx/src/stm32c0xx_hal_exti.c ****   if ((pExtiConfig->Line & EXTI_CONFIG) != 0U)
  87              		.loc 1 163 3 view .LVU25
  88              		.loc 1 163 6 is_stmt 0 view .LVU26
  89 0022 AE01     		lsls	r6, r5, #6
  90 0024 2DD5     		bpl	.L4
 164:external/drivers/stm32c0xx/src/stm32c0xx_hal_exti.c ****   {
 165:external/drivers/stm32c0xx/src/stm32c0xx_hal_exti.c ****     assert_param(IS_EXTI_TRIGGER(pExtiConfig->Trigger));
  91              		.loc 1 165 5 is_stmt 1 view .LVU27
 166:external/drivers/stm32c0xx/src/stm32c0xx_hal_exti.c **** 
 167:external/drivers/stm32c0xx/src/stm32c0xx_hal_exti.c ****     /* Configure rising trigger */
 168:external/drivers/stm32c0xx/src/stm32c0xx_hal_exti.c ****     regaddr = (__IO uint32_t *)(&EXTI->RTSR1 + (EXTI_CONFIG_OFFSET * offset));
  92              		.loc 1 168 5 view .LVU28
  93              		.loc 1 168 13 is_stmt 0 view .LVU29
  94 0026 2F4F     		ldr	r7, .L22
  95              		.loc 1 168 15 view .LVU30
  96 0028 5E01     		lsls	r6, r3, #5
  97              		.loc 1 168 13 view .LVU31
  98 002a BC46     		mov	ip, r7
  99 002c B444     		add	ip, ip, r6
 100              	.LVL3:
 169:external/drivers/stm32c0xx/src/stm32c0xx_hal_exti.c ****     regval = *regaddr;
 101              		.loc 1 169 5 is_stmt 1 view .LVU32
 102              		.loc 1 169 12 is_stmt 0 view .LVU33
 103 002e 6746     		mov	r7, ip
 104 0030 3F68     		ldr	r7, [r7]
 105 0032 B946     		mov	r9, r7
 106              	.LVL4:
 170:external/drivers/stm32c0xx/src/stm32c0xx_hal_exti.c **** 
 171:external/drivers/stm32c0xx/src/stm32c0xx_hal_exti.c ****     /* Mask or set line */
 172:external/drivers/stm32c0xx/src/stm32c0xx_hal_exti.c ****     if ((pExtiConfig->Trigger & EXTI_TRIGGER_RISING) != 0U)
ARM GAS  /tmp/ccItwm8l.s 			page 6


 107              		.loc 1 172 5 is_stmt 1 view .LVU34
 108              		.loc 1 172 31 is_stmt 0 view .LVU35
 109 0034 8F68     		ldr	r7, [r1, #8]
 110              	.LVL5:
 111              		.loc 1 172 8 view .LVU36
 112 0036 0742     		tst	r7, r0
 113 0038 47D1     		bne	.L18
 173:external/drivers/stm32c0xx/src/stm32c0xx_hal_exti.c ****     {
 174:external/drivers/stm32c0xx/src/stm32c0xx_hal_exti.c ****       regval |= maskline;
 175:external/drivers/stm32c0xx/src/stm32c0xx_hal_exti.c ****     }
 176:external/drivers/stm32c0xx/src/stm32c0xx_hal_exti.c ****     else
 177:external/drivers/stm32c0xx/src/stm32c0xx_hal_exti.c ****     {
 178:external/drivers/stm32c0xx/src/stm32c0xx_hal_exti.c ****       regval &= ~maskline;
 114              		.loc 1 178 7 is_stmt 1 view .LVU37
 115              		.loc 1 178 14 is_stmt 0 view .LVU38
 116 003a 4F46     		mov	r7, r9
 179:external/drivers/stm32c0xx/src/stm32c0xx_hal_exti.c ****     }
 180:external/drivers/stm32c0xx/src/stm32c0xx_hal_exti.c **** 
 181:external/drivers/stm32c0xx/src/stm32c0xx_hal_exti.c ****     /* Store rising trigger mode */
 182:external/drivers/stm32c0xx/src/stm32c0xx_hal_exti.c ****     *regaddr = regval;
 117              		.loc 1 182 14 view .LVU39
 118 003c 6046     		mov	r0, ip
 178:external/drivers/stm32c0xx/src/stm32c0xx_hal_exti.c ****     }
 119              		.loc 1 178 14 view .LVU40
 120 003e A743     		bics	r7, r4
 121              	.LVL6:
 122              		.loc 1 182 5 is_stmt 1 view .LVU41
 123              		.loc 1 182 14 is_stmt 0 view .LVU42
 124 0040 0760     		str	r7, [r0]
 183:external/drivers/stm32c0xx/src/stm32c0xx_hal_exti.c **** 
 184:external/drivers/stm32c0xx/src/stm32c0xx_hal_exti.c ****     /* Configure falling trigger */
 185:external/drivers/stm32c0xx/src/stm32c0xx_hal_exti.c ****     regaddr = (__IO uint32_t *)(&EXTI->FTSR1 + (EXTI_CONFIG_OFFSET * offset));
 125              		.loc 1 185 5 is_stmt 1 view .LVU43
 126              		.loc 1 185 13 is_stmt 0 view .LVU44
 127 0042 2948     		ldr	r0, .L22+4
 186:external/drivers/stm32c0xx/src/stm32c0xx_hal_exti.c ****     regval = *regaddr;
 187:external/drivers/stm32c0xx/src/stm32c0xx_hal_exti.c **** 
 188:external/drivers/stm32c0xx/src/stm32c0xx_hal_exti.c ****     /* Mask or set line */
 189:external/drivers/stm32c0xx/src/stm32c0xx_hal_exti.c ****     if ((pExtiConfig->Trigger & EXTI_TRIGGER_FALLING) != 0U)
 128              		.loc 1 189 31 view .LVU45
 129 0044 8F68     		ldr	r7, [r1, #8]
 130              	.LVL7:
 185:external/drivers/stm32c0xx/src/stm32c0xx_hal_exti.c ****     regval = *regaddr;
 131              		.loc 1 185 13 view .LVU46
 132 0046 3018     		adds	r0, r6, r0
 133              	.LVL8:
 186:external/drivers/stm32c0xx/src/stm32c0xx_hal_exti.c ****     regval = *regaddr;
 134              		.loc 1 186 5 is_stmt 1 view .LVU47
 186:external/drivers/stm32c0xx/src/stm32c0xx_hal_exti.c ****     regval = *regaddr;
 135              		.loc 1 186 12 is_stmt 0 view .LVU48
 136 0048 0668     		ldr	r6, [r0]
 137              	.LVL9:
 138              		.loc 1 189 5 is_stmt 1 view .LVU49
 139              		.loc 1 189 8 is_stmt 0 view .LVU50
 140 004a BF07     		lsls	r7, r7, #30
 141 004c 47D5     		bpl	.L7
 142              	.L21:
ARM GAS  /tmp/ccItwm8l.s 			page 7


 190:external/drivers/stm32c0xx/src/stm32c0xx_hal_exti.c ****     {
 191:external/drivers/stm32c0xx/src/stm32c0xx_hal_exti.c ****       regval |= maskline;
 143              		.loc 1 191 7 is_stmt 1 view .LVU51
 144              		.loc 1 191 14 is_stmt 0 view .LVU52
 145 004e 2643     		orrs	r6, r4
 146              	.LVL10:
 147              	.L8:
 192:external/drivers/stm32c0xx/src/stm32c0xx_hal_exti.c ****     }
 193:external/drivers/stm32c0xx/src/stm32c0xx_hal_exti.c ****     else
 194:external/drivers/stm32c0xx/src/stm32c0xx_hal_exti.c ****     {
 195:external/drivers/stm32c0xx/src/stm32c0xx_hal_exti.c ****       regval &= ~maskline;
 196:external/drivers/stm32c0xx/src/stm32c0xx_hal_exti.c ****     }
 197:external/drivers/stm32c0xx/src/stm32c0xx_hal_exti.c **** 
 198:external/drivers/stm32c0xx/src/stm32c0xx_hal_exti.c ****     /* Store falling trigger mode */
 199:external/drivers/stm32c0xx/src/stm32c0xx_hal_exti.c ****     *regaddr = regval;
 148              		.loc 1 199 5 is_stmt 1 view .LVU53
 149              		.loc 1 199 14 is_stmt 0 view .LVU54
 150 0050 0660     		str	r6, [r0]
 200:external/drivers/stm32c0xx/src/stm32c0xx_hal_exti.c **** 
 201:external/drivers/stm32c0xx/src/stm32c0xx_hal_exti.c ****     /* Configure gpio port selection in case of gpio exti line */
 202:external/drivers/stm32c0xx/src/stm32c0xx_hal_exti.c ****     if ((pExtiConfig->Line & EXTI_GPIO) == EXTI_GPIO)
 151              		.loc 1 202 5 is_stmt 1 view .LVU55
 152              		.loc 1 202 28 is_stmt 0 view .LVU56
 153 0052 C026     		movs	r6, #192
 154              	.LVL11:
 155              		.loc 1 202 28 view .LVU57
 156 0054 0868     		ldr	r0, [r1]
 157              	.LVL12:
 158              		.loc 1 202 28 view .LVU58
 159 0056 F604     		lsls	r6, r6, #19
 160 0058 3040     		ands	r0, r6
 161              		.loc 1 202 8 view .LVU59
 162 005a B042     		cmp	r0, r6
 163 005c 11D1     		bne	.L4
 203:external/drivers/stm32c0xx/src/stm32c0xx_hal_exti.c ****     {
 204:external/drivers/stm32c0xx/src/stm32c0xx_hal_exti.c ****       assert_param(IS_EXTI_GPIO_PORT(pExtiConfig->GPIOSel));
 164              		.loc 1 204 7 is_stmt 1 view .LVU60
 205:external/drivers/stm32c0xx/src/stm32c0xx_hal_exti.c ****       assert_param(IS_EXTI_GPIO_PIN(linepos));
 165              		.loc 1 205 7 view .LVU61
 206:external/drivers/stm32c0xx/src/stm32c0xx_hal_exti.c **** 
 207:external/drivers/stm32c0xx/src/stm32c0xx_hal_exti.c ****       regval = EXTI->EXTICR[(linepos >> 2U) & 0x03UL];
 166              		.loc 1 207 7 view .LVU62
 167              		.loc 1 207 45 is_stmt 0 view .LVU63
 168 005e 0320     		movs	r0, #3
 169              		.loc 1 207 38 view .LVU64
 170 0060 9208     		lsrs	r2, r2, #2
 171              	.LVL13:
 172              		.loc 1 207 45 view .LVU65
 173 0062 0240     		ands	r2, r0
 208:external/drivers/stm32c0xx/src/stm32c0xx_hal_exti.c ****       regval &= ~(EXTI_EXTICR1_EXTI0 << (EXTI_EXTICR1_EXTI1_Pos * (linepos & 0x03U)));
 174              		.loc 1 208 76 view .LVU66
 175 0064 2840     		ands	r0, r5
 176              		.loc 1 208 38 view .LVU67
 177 0066 0725     		movs	r5, #7
 178              	.LVL14:
 179              		.loc 1 208 38 view .LVU68
 180 0068 1E4E     		ldr	r6, .L22
ARM GAS  /tmp/ccItwm8l.s 			page 8


 181              		.loc 1 208 65 view .LVU69
 182 006a C000     		lsls	r0, r0, #3
 183 006c B446     		mov	ip, r6
 184              		.loc 1 208 38 view .LVU70
 185 006e 8540     		lsls	r5, r5, r0
 186 0070 9200     		lsls	r2, r2, #2
 187 0072 6244     		add	r2, r2, ip
 207:external/drivers/stm32c0xx/src/stm32c0xx_hal_exti.c ****       regval &= ~(EXTI_EXTICR1_EXTI0 << (EXTI_EXTICR1_EXTI1_Pos * (linepos & 0x03U)));
 188              		.loc 1 207 14 view .LVU71
 189 0074 166E     		ldr	r6, [r2, #96]
 190              	.LVL15:
 191              		.loc 1 208 7 is_stmt 1 view .LVU72
 192              		.loc 1 208 14 is_stmt 0 view .LVU73
 193 0076 AE43     		bics	r6, r5
 194              	.LVL16:
 209:external/drivers/stm32c0xx/src/stm32c0xx_hal_exti.c ****       regval |= (pExtiConfig->GPIOSel << (EXTI_EXTICR1_EXTI1_Pos * (linepos & 0x03U)));
 195              		.loc 1 209 7 is_stmt 1 view .LVU74
 196              		.loc 1 209 39 is_stmt 0 view .LVU75
 197 0078 CD68     		ldr	r5, [r1, #12]
 198 007a 8540     		lsls	r5, r5, r0
 199 007c 2800     		movs	r0, r5
 200              		.loc 1 209 14 view .LVU76
 201 007e 3043     		orrs	r0, r6
 202              	.LVL17:
 210:external/drivers/stm32c0xx/src/stm32c0xx_hal_exti.c ****       EXTI->EXTICR[(linepos >> 2U) & 0x03UL] = regval;
 203              		.loc 1 210 7 is_stmt 1 view .LVU77
 204              		.loc 1 210 46 is_stmt 0 view .LVU78
 205 0080 1066     		str	r0, [r2, #96]
 206              	.LVL18:
 207              	.L4:
 211:external/drivers/stm32c0xx/src/stm32c0xx_hal_exti.c ****     }
 212:external/drivers/stm32c0xx/src/stm32c0xx_hal_exti.c ****   }
 213:external/drivers/stm32c0xx/src/stm32c0xx_hal_exti.c **** 
 214:external/drivers/stm32c0xx/src/stm32c0xx_hal_exti.c ****   /* Configure interrupt mode : read current mode */
 215:external/drivers/stm32c0xx/src/stm32c0xx_hal_exti.c ****   regaddr = (__IO uint32_t *)(&EXTI->IMR1 + (EXTI_MODE_OFFSET * offset));
 208              		.loc 1 215 3 is_stmt 1 view .LVU79
 209              		.loc 1 215 11 is_stmt 0 view .LVU80
 210 0082 1A4A     		ldr	r2, .L22+8
 211              		.loc 1 215 13 view .LVU81
 212 0084 1B01     		lsls	r3, r3, #4
 213              	.LVL19:
 216:external/drivers/stm32c0xx/src/stm32c0xx_hal_exti.c ****   regval = *regaddr;
 217:external/drivers/stm32c0xx/src/stm32c0xx_hal_exti.c **** 
 218:external/drivers/stm32c0xx/src/stm32c0xx_hal_exti.c ****   /* Mask or set line */
 219:external/drivers/stm32c0xx/src/stm32c0xx_hal_exti.c ****   if ((pExtiConfig->Mode & EXTI_MODE_INTERRUPT) != 0U)
 214              		.loc 1 219 26 view .LVU82
 215 0086 4D68     		ldr	r5, [r1, #4]
 215:external/drivers/stm32c0xx/src/stm32c0xx_hal_exti.c ****   regval = *regaddr;
 216              		.loc 1 215 11 view .LVU83
 217 0088 9818     		adds	r0, r3, r2
 218              	.LVL20:
 216:external/drivers/stm32c0xx/src/stm32c0xx_hal_exti.c ****   regval = *regaddr;
 219              		.loc 1 216 3 is_stmt 1 view .LVU84
 216:external/drivers/stm32c0xx/src/stm32c0xx_hal_exti.c ****   regval = *regaddr;
 220              		.loc 1 216 10 is_stmt 0 view .LVU85
 221 008a 0268     		ldr	r2, [r0]
 222              	.LVL21:
ARM GAS  /tmp/ccItwm8l.s 			page 9


 223              		.loc 1 219 3 is_stmt 1 view .LVU86
 224              		.loc 1 219 6 is_stmt 0 view .LVU87
 225 008c ED07     		lsls	r5, r5, #31
 226 008e 0FD4     		bmi	.L19
 220:external/drivers/stm32c0xx/src/stm32c0xx_hal_exti.c ****   {
 221:external/drivers/stm32c0xx/src/stm32c0xx_hal_exti.c ****     regval |= maskline;
 222:external/drivers/stm32c0xx/src/stm32c0xx_hal_exti.c ****   }
 223:external/drivers/stm32c0xx/src/stm32c0xx_hal_exti.c ****   else
 224:external/drivers/stm32c0xx/src/stm32c0xx_hal_exti.c ****   {
 225:external/drivers/stm32c0xx/src/stm32c0xx_hal_exti.c ****     regval &= ~maskline;
 227              		.loc 1 225 5 is_stmt 1 view .LVU88
 228              		.loc 1 225 12 is_stmt 0 view .LVU89
 229 0090 A243     		bics	r2, r4
 230              	.LVL22:
 226:external/drivers/stm32c0xx/src/stm32c0xx_hal_exti.c ****   }
 227:external/drivers/stm32c0xx/src/stm32c0xx_hal_exti.c **** 
 228:external/drivers/stm32c0xx/src/stm32c0xx_hal_exti.c ****   /* Store interrupt mode */
 229:external/drivers/stm32c0xx/src/stm32c0xx_hal_exti.c ****   *regaddr = regval;
 231              		.loc 1 229 3 is_stmt 1 view .LVU90
 232              		.loc 1 229 12 is_stmt 0 view .LVU91
 233 0092 0260     		str	r2, [r0]
 230:external/drivers/stm32c0xx/src/stm32c0xx_hal_exti.c **** 
 231:external/drivers/stm32c0xx/src/stm32c0xx_hal_exti.c ****   /* Configure event mode : read current mode */
 232:external/drivers/stm32c0xx/src/stm32c0xx_hal_exti.c ****   regaddr = (__IO uint32_t *)(&EXTI->EMR1 + (EXTI_MODE_OFFSET * offset));
 234              		.loc 1 232 3 is_stmt 1 view .LVU92
 235              		.loc 1 232 11 is_stmt 0 view .LVU93
 236 0094 164A     		ldr	r2, .L22+12
 237              	.LVL23:
 233:external/drivers/stm32c0xx/src/stm32c0xx_hal_exti.c ****   regval = *regaddr;
 234:external/drivers/stm32c0xx/src/stm32c0xx_hal_exti.c **** 
 235:external/drivers/stm32c0xx/src/stm32c0xx_hal_exti.c ****   /* Mask or set line */
 236:external/drivers/stm32c0xx/src/stm32c0xx_hal_exti.c ****   if ((pExtiConfig->Mode & EXTI_MODE_EVENT) != 0U)
 238              		.loc 1 236 26 view .LVU94
 239 0096 4968     		ldr	r1, [r1, #4]
 240              	.LVL24:
 232:external/drivers/stm32c0xx/src/stm32c0xx_hal_exti.c ****   regval = *regaddr;
 241              		.loc 1 232 11 view .LVU95
 242 0098 9446     		mov	ip, r2
 243 009a 6344     		add	r3, r3, ip
 244              	.LVL25:
 233:external/drivers/stm32c0xx/src/stm32c0xx_hal_exti.c ****   regval = *regaddr;
 245              		.loc 1 233 3 is_stmt 1 view .LVU96
 233:external/drivers/stm32c0xx/src/stm32c0xx_hal_exti.c ****   regval = *regaddr;
 246              		.loc 1 233 10 is_stmt 0 view .LVU97
 247 009c 1A68     		ldr	r2, [r3]
 248              	.LVL26:
 249              		.loc 1 236 3 is_stmt 1 view .LVU98
 250              		.loc 1 236 6 is_stmt 0 view .LVU99
 251 009e 8907     		lsls	r1, r1, #30
 252 00a0 0FD5     		bpl	.L12
 253              	.L20:
 237:external/drivers/stm32c0xx/src/stm32c0xx_hal_exti.c ****   {
 238:external/drivers/stm32c0xx/src/stm32c0xx_hal_exti.c ****     regval |= maskline;
 254              		.loc 1 238 5 is_stmt 1 view .LVU100
 255              		.loc 1 238 12 is_stmt 0 view .LVU101
 256 00a2 2243     		orrs	r2, r4
 257              	.LVL27:
ARM GAS  /tmp/ccItwm8l.s 			page 10


 258              	.L13:
 239:external/drivers/stm32c0xx/src/stm32c0xx_hal_exti.c ****   }
 240:external/drivers/stm32c0xx/src/stm32c0xx_hal_exti.c ****   else
 241:external/drivers/stm32c0xx/src/stm32c0xx_hal_exti.c ****   {
 242:external/drivers/stm32c0xx/src/stm32c0xx_hal_exti.c ****     regval &= ~maskline;
 243:external/drivers/stm32c0xx/src/stm32c0xx_hal_exti.c ****   }
 244:external/drivers/stm32c0xx/src/stm32c0xx_hal_exti.c **** 
 245:external/drivers/stm32c0xx/src/stm32c0xx_hal_exti.c ****   /* Store event mode */
 246:external/drivers/stm32c0xx/src/stm32c0xx_hal_exti.c ****   *regaddr = regval;
 259              		.loc 1 246 3 is_stmt 1 view .LVU102
 247:external/drivers/stm32c0xx/src/stm32c0xx_hal_exti.c **** 
 248:external/drivers/stm32c0xx/src/stm32c0xx_hal_exti.c ****   return HAL_OK;
 260              		.loc 1 248 10 is_stmt 0 view .LVU103
 261 00a4 0020     		movs	r0, #0
 246:external/drivers/stm32c0xx/src/stm32c0xx_hal_exti.c **** 
 262              		.loc 1 246 12 view .LVU104
 263 00a6 1A60     		str	r2, [r3]
 264              		.loc 1 248 3 is_stmt 1 view .LVU105
 265              	.LVL28:
 266              	.L2:
 249:external/drivers/stm32c0xx/src/stm32c0xx_hal_exti.c **** }
 267              		.loc 1 249 1 is_stmt 0 view .LVU106
 268              		@ sp needed
 269 00a8 C0BC     		pop	{r6, r7}
 270 00aa B946     		mov	r9, r7
 271 00ac B046     		mov	r8, r6
 272 00ae F0BD     		pop	{r4, r5, r6, r7, pc}
 273              	.LVL29:
 274              	.L19:
 221:external/drivers/stm32c0xx/src/stm32c0xx_hal_exti.c ****   }
 275              		.loc 1 221 5 is_stmt 1 view .LVU107
 221:external/drivers/stm32c0xx/src/stm32c0xx_hal_exti.c ****   }
 276              		.loc 1 221 12 is_stmt 0 view .LVU108
 277 00b0 2243     		orrs	r2, r4
 278              	.LVL30:
 229:external/drivers/stm32c0xx/src/stm32c0xx_hal_exti.c **** 
 279              		.loc 1 229 3 is_stmt 1 view .LVU109
 229:external/drivers/stm32c0xx/src/stm32c0xx_hal_exti.c **** 
 280              		.loc 1 229 12 is_stmt 0 view .LVU110
 281 00b2 0260     		str	r2, [r0]
 232:external/drivers/stm32c0xx/src/stm32c0xx_hal_exti.c ****   regval = *regaddr;
 282              		.loc 1 232 3 is_stmt 1 view .LVU111
 232:external/drivers/stm32c0xx/src/stm32c0xx_hal_exti.c ****   regval = *regaddr;
 283              		.loc 1 232 11 is_stmt 0 view .LVU112
 284 00b4 0E4A     		ldr	r2, .L22+12
 285              	.LVL31:
 236:external/drivers/stm32c0xx/src/stm32c0xx_hal_exti.c ****   {
 286              		.loc 1 236 26 view .LVU113
 287 00b6 4968     		ldr	r1, [r1, #4]
 288              	.LVL32:
 232:external/drivers/stm32c0xx/src/stm32c0xx_hal_exti.c ****   regval = *regaddr;
 289              		.loc 1 232 11 view .LVU114
 290 00b8 9446     		mov	ip, r2
 291 00ba 6344     		add	r3, r3, ip
 292              	.LVL33:
 233:external/drivers/stm32c0xx/src/stm32c0xx_hal_exti.c **** 
 293              		.loc 1 233 3 is_stmt 1 view .LVU115
ARM GAS  /tmp/ccItwm8l.s 			page 11


 233:external/drivers/stm32c0xx/src/stm32c0xx_hal_exti.c **** 
 294              		.loc 1 233 10 is_stmt 0 view .LVU116
 295 00bc 1A68     		ldr	r2, [r3]
 296              	.LVL34:
 236:external/drivers/stm32c0xx/src/stm32c0xx_hal_exti.c ****   {
 297              		.loc 1 236 3 is_stmt 1 view .LVU117
 236:external/drivers/stm32c0xx/src/stm32c0xx_hal_exti.c ****   {
 298              		.loc 1 236 6 is_stmt 0 view .LVU118
 299 00be 8907     		lsls	r1, r1, #30
 300 00c0 EFD4     		bmi	.L20
 301              	.L12:
 242:external/drivers/stm32c0xx/src/stm32c0xx_hal_exti.c ****   }
 302              		.loc 1 242 5 is_stmt 1 view .LVU119
 242:external/drivers/stm32c0xx/src/stm32c0xx_hal_exti.c ****   }
 303              		.loc 1 242 12 is_stmt 0 view .LVU120
 304 00c2 A243     		bics	r2, r4
 305              	.LVL35:
 242:external/drivers/stm32c0xx/src/stm32c0xx_hal_exti.c ****   }
 306              		.loc 1 242 12 view .LVU121
 307 00c4 EEE7     		b	.L13
 308              	.LVL36:
 309              	.L15:
 147:external/drivers/stm32c0xx/src/stm32c0xx_hal_exti.c ****   }
 310              		.loc 1 147 12 view .LVU122
 311 00c6 0120     		movs	r0, #1
 312              	.LVL37:
 147:external/drivers/stm32c0xx/src/stm32c0xx_hal_exti.c ****   }
 313              		.loc 1 147 12 view .LVU123
 314 00c8 EEE7     		b	.L2
 315              	.LVL38:
 316              	.L18:
 174:external/drivers/stm32c0xx/src/stm32c0xx_hal_exti.c ****     }
 317              		.loc 1 174 7 is_stmt 1 view .LVU124
 174:external/drivers/stm32c0xx/src/stm32c0xx_hal_exti.c ****     }
 318              		.loc 1 174 14 is_stmt 0 view .LVU125
 319 00ca 4F46     		mov	r7, r9
 182:external/drivers/stm32c0xx/src/stm32c0xx_hal_exti.c **** 
 320              		.loc 1 182 14 view .LVU126
 321 00cc 6046     		mov	r0, ip
 174:external/drivers/stm32c0xx/src/stm32c0xx_hal_exti.c ****     }
 322              		.loc 1 174 14 view .LVU127
 323 00ce 2743     		orrs	r7, r4
 324              	.LVL39:
 182:external/drivers/stm32c0xx/src/stm32c0xx_hal_exti.c **** 
 325              		.loc 1 182 5 is_stmt 1 view .LVU128
 182:external/drivers/stm32c0xx/src/stm32c0xx_hal_exti.c **** 
 326              		.loc 1 182 14 is_stmt 0 view .LVU129
 327 00d0 0760     		str	r7, [r0]
 185:external/drivers/stm32c0xx/src/stm32c0xx_hal_exti.c ****     regval = *regaddr;
 328              		.loc 1 185 5 is_stmt 1 view .LVU130
 185:external/drivers/stm32c0xx/src/stm32c0xx_hal_exti.c ****     regval = *regaddr;
 329              		.loc 1 185 13 is_stmt 0 view .LVU131
 330 00d2 0548     		ldr	r0, .L22+4
 189:external/drivers/stm32c0xx/src/stm32c0xx_hal_exti.c ****     {
 331              		.loc 1 189 31 view .LVU132
 332 00d4 8F68     		ldr	r7, [r1, #8]
 333              	.LVL40:
ARM GAS  /tmp/ccItwm8l.s 			page 12


 185:external/drivers/stm32c0xx/src/stm32c0xx_hal_exti.c ****     regval = *regaddr;
 334              		.loc 1 185 13 view .LVU133
 335 00d6 3018     		adds	r0, r6, r0
 336              	.LVL41:
 186:external/drivers/stm32c0xx/src/stm32c0xx_hal_exti.c **** 
 337              		.loc 1 186 5 is_stmt 1 view .LVU134
 186:external/drivers/stm32c0xx/src/stm32c0xx_hal_exti.c **** 
 338              		.loc 1 186 12 is_stmt 0 view .LVU135
 339 00d8 0668     		ldr	r6, [r0]
 340              	.LVL42:
 189:external/drivers/stm32c0xx/src/stm32c0xx_hal_exti.c ****     {
 341              		.loc 1 189 5 is_stmt 1 view .LVU136
 189:external/drivers/stm32c0xx/src/stm32c0xx_hal_exti.c ****     {
 342              		.loc 1 189 8 is_stmt 0 view .LVU137
 343 00da BF07     		lsls	r7, r7, #30
 344 00dc B7D4     		bmi	.L21
 345              	.L7:
 195:external/drivers/stm32c0xx/src/stm32c0xx_hal_exti.c ****     }
 346              		.loc 1 195 7 is_stmt 1 view .LVU138
 195:external/drivers/stm32c0xx/src/stm32c0xx_hal_exti.c ****     }
 347              		.loc 1 195 14 is_stmt 0 view .LVU139
 348 00de A643     		bics	r6, r4
 349              	.LVL43:
 195:external/drivers/stm32c0xx/src/stm32c0xx_hal_exti.c ****     }
 350              		.loc 1 195 14 view .LVU140
 351 00e0 B6E7     		b	.L8
 352              	.L23:
 353 00e2 C046     		.align	2
 354              	.L22:
 355 00e4 00180240 		.word	1073879040
 356 00e8 04180240 		.word	1073879044
 357 00ec 80180240 		.word	1073879168
 358 00f0 84180240 		.word	1073879172
 359              		.cfi_endproc
 360              	.LFE214:
 362              		.section	.text.HAL_EXTI_GetConfigLine,"ax",%progbits
 363              		.align	1
 364              		.p2align 2,,3
 365              		.global	HAL_EXTI_GetConfigLine
 366              		.syntax unified
 367              		.code	16
 368              		.thumb_func
 370              	HAL_EXTI_GetConfigLine:
 371              	.LVL44:
 372              	.LFB215:
 250:external/drivers/stm32c0xx/src/stm32c0xx_hal_exti.c **** 
 251:external/drivers/stm32c0xx/src/stm32c0xx_hal_exti.c **** 
 252:external/drivers/stm32c0xx/src/stm32c0xx_hal_exti.c **** /**
 253:external/drivers/stm32c0xx/src/stm32c0xx_hal_exti.c ****   * @brief  Get configuration of a dedicated Exti line.
 254:external/drivers/stm32c0xx/src/stm32c0xx_hal_exti.c ****   * @param  hexti Exti handle.
 255:external/drivers/stm32c0xx/src/stm32c0xx_hal_exti.c ****   * @param  pExtiConfig Pointer on structure to store Exti configuration.
 256:external/drivers/stm32c0xx/src/stm32c0xx_hal_exti.c ****   * @retval HAL Status.
 257:external/drivers/stm32c0xx/src/stm32c0xx_hal_exti.c ****   */
 258:external/drivers/stm32c0xx/src/stm32c0xx_hal_exti.c **** HAL_StatusTypeDef HAL_EXTI_GetConfigLine(EXTI_HandleTypeDef *hexti, EXTI_ConfigTypeDef *pExtiConfig
 259:external/drivers/stm32c0xx/src/stm32c0xx_hal_exti.c **** {
 373              		.loc 1 259 1 is_stmt 1 view -0
 374              		.cfi_startproc
ARM GAS  /tmp/ccItwm8l.s 			page 13


 375              		@ args = 0, pretend = 0, frame = 0
 376              		@ frame_needed = 0, uses_anonymous_args = 0
 260:external/drivers/stm32c0xx/src/stm32c0xx_hal_exti.c ****   __IO uint32_t *regaddr;
 377              		.loc 1 260 3 view .LVU142
 261:external/drivers/stm32c0xx/src/stm32c0xx_hal_exti.c ****   uint32_t regval;
 378              		.loc 1 261 3 view .LVU143
 262:external/drivers/stm32c0xx/src/stm32c0xx_hal_exti.c ****   uint32_t linepos;
 379              		.loc 1 262 3 view .LVU144
 263:external/drivers/stm32c0xx/src/stm32c0xx_hal_exti.c ****   uint32_t maskline;
 380              		.loc 1 263 3 view .LVU145
 264:external/drivers/stm32c0xx/src/stm32c0xx_hal_exti.c ****   uint32_t offset;
 381              		.loc 1 264 3 view .LVU146
 265:external/drivers/stm32c0xx/src/stm32c0xx_hal_exti.c **** 
 266:external/drivers/stm32c0xx/src/stm32c0xx_hal_exti.c ****   /* Check null pointer */
 267:external/drivers/stm32c0xx/src/stm32c0xx_hal_exti.c ****   if ((hexti == NULL) || (pExtiConfig == NULL))
 382              		.loc 1 267 3 view .LVU147
 259:external/drivers/stm32c0xx/src/stm32c0xx_hal_exti.c ****   __IO uint32_t *regaddr;
 383              		.loc 1 259 1 is_stmt 0 view .LVU148
 384 0000 F0B5     		push	{r4, r5, r6, r7, lr}
 385              	.LCFI2:
 386              		.cfi_def_cfa_offset 20
 387              		.cfi_offset 4, -20
 388              		.cfi_offset 5, -16
 389              		.cfi_offset 6, -12
 390              		.cfi_offset 7, -8
 391              		.cfi_offset 14, -4
 392              		.loc 1 267 6 view .LVU149
 393 0002 0028     		cmp	r0, #0
 394 0004 37D0     		beq	.L32
 395              		.loc 1 267 23 discriminator 1 view .LVU150
 396 0006 0029     		cmp	r1, #0
 397 0008 35D0     		beq	.L32
 268:external/drivers/stm32c0xx/src/stm32c0xx_hal_exti.c ****   {
 269:external/drivers/stm32c0xx/src/stm32c0xx_hal_exti.c ****     return HAL_ERROR;
 270:external/drivers/stm32c0xx/src/stm32c0xx_hal_exti.c ****   }
 271:external/drivers/stm32c0xx/src/stm32c0xx_hal_exti.c **** 
 272:external/drivers/stm32c0xx/src/stm32c0xx_hal_exti.c ****   /* Check the parameter */
 273:external/drivers/stm32c0xx/src/stm32c0xx_hal_exti.c ****   assert_param(IS_EXTI_LINE(hexti->Line));
 398              		.loc 1 273 3 is_stmt 1 view .LVU151
 274:external/drivers/stm32c0xx/src/stm32c0xx_hal_exti.c **** 
 275:external/drivers/stm32c0xx/src/stm32c0xx_hal_exti.c ****   /* Store handle line number to configiguration structure */
 276:external/drivers/stm32c0xx/src/stm32c0xx_hal_exti.c ****   pExtiConfig->Line = hexti->Line;
 399              		.loc 1 276 3 view .LVU152
 277:external/drivers/stm32c0xx/src/stm32c0xx_hal_exti.c **** 
 278:external/drivers/stm32c0xx/src/stm32c0xx_hal_exti.c ****   /* compute line register offset and line mask */
 279:external/drivers/stm32c0xx/src/stm32c0xx_hal_exti.c ****   offset = ((pExtiConfig->Line & EXTI_REG_MASK) >> EXTI_REG_SHIFT);
 280:external/drivers/stm32c0xx/src/stm32c0xx_hal_exti.c ****   linepos = (pExtiConfig->Line & EXTI_PIN_MASK);
 400              		.loc 1 280 11 is_stmt 0 view .LVU153
 401 000a 1F25     		movs	r5, #31
 279:external/drivers/stm32c0xx/src/stm32c0xx_hal_exti.c ****   linepos = (pExtiConfig->Line & EXTI_PIN_MASK);
 402              		.loc 1 279 10 view .LVU154
 403 000c 0122     		movs	r2, #1
 276:external/drivers/stm32c0xx/src/stm32c0xx_hal_exti.c **** 
 404              		.loc 1 276 28 view .LVU155
 405 000e 0468     		ldr	r4, [r0]
 281:external/drivers/stm32c0xx/src/stm32c0xx_hal_exti.c ****   maskline = (1UL << linepos);
 282:external/drivers/stm32c0xx/src/stm32c0xx_hal_exti.c **** 
ARM GAS  /tmp/ccItwm8l.s 			page 14


 283:external/drivers/stm32c0xx/src/stm32c0xx_hal_exti.c ****   /* 1] Get core mode : interrupt */
 284:external/drivers/stm32c0xx/src/stm32c0xx_hal_exti.c ****   regaddr = (__IO uint32_t *)(&EXTI->IMR1 + (EXTI_MODE_OFFSET * offset));
 406              		.loc 1 284 11 view .LVU156
 407 0010 224B     		ldr	r3, .L41
 279:external/drivers/stm32c0xx/src/stm32c0xx_hal_exti.c ****   linepos = (pExtiConfig->Line & EXTI_PIN_MASK);
 408              		.loc 1 279 49 view .LVU157
 409 0012 200C     		lsrs	r0, r4, #16
 410              	.LVL45:
 280:external/drivers/stm32c0xx/src/stm32c0xx_hal_exti.c ****   maskline = (1UL << linepos);
 411              		.loc 1 280 11 view .LVU158
 412 0014 2540     		ands	r5, r4
 279:external/drivers/stm32c0xx/src/stm32c0xx_hal_exti.c ****   linepos = (pExtiConfig->Line & EXTI_PIN_MASK);
 413              		.loc 1 279 10 view .LVU159
 414 0016 1040     		ands	r0, r2
 281:external/drivers/stm32c0xx/src/stm32c0xx_hal_exti.c ****   maskline = (1UL << linepos);
 415              		.loc 1 281 12 view .LVU160
 416 0018 AA40     		lsls	r2, r2, r5
 417              		.loc 1 284 13 view .LVU161
 418 001a 0601     		lsls	r6, r0, #4
 276:external/drivers/stm32c0xx/src/stm32c0xx_hal_exti.c **** 
 419              		.loc 1 276 21 view .LVU162
 420 001c 0C60     		str	r4, [r1]
 279:external/drivers/stm32c0xx/src/stm32c0xx_hal_exti.c ****   linepos = (pExtiConfig->Line & EXTI_PIN_MASK);
 421              		.loc 1 279 3 is_stmt 1 view .LVU163
 422              	.LVL46:
 280:external/drivers/stm32c0xx/src/stm32c0xx_hal_exti.c ****   maskline = (1UL << linepos);
 423              		.loc 1 280 3 view .LVU164
 281:external/drivers/stm32c0xx/src/stm32c0xx_hal_exti.c **** 
 424              		.loc 1 281 3 view .LVU165
 425              		.loc 1 284 3 view .LVU166
 426              		.loc 1 284 11 is_stmt 0 view .LVU167
 427 001e F318     		adds	r3, r6, r3
 428              	.LVL47:
 285:external/drivers/stm32c0xx/src/stm32c0xx_hal_exti.c ****   regval = *regaddr;
 429              		.loc 1 285 3 is_stmt 1 view .LVU168
 430              		.loc 1 285 10 is_stmt 0 view .LVU169
 431 0020 1B68     		ldr	r3, [r3]
 432              	.LVL48:
 286:external/drivers/stm32c0xx/src/stm32c0xx_hal_exti.c **** 
 287:external/drivers/stm32c0xx/src/stm32c0xx_hal_exti.c ****   /* Check if selected line is enable */
 288:external/drivers/stm32c0xx/src/stm32c0xx_hal_exti.c ****   if ((regval & maskline) != 0U)
 433              		.loc 1 288 3 is_stmt 1 view .LVU170
 434              		.loc 1 288 15 is_stmt 0 view .LVU171
 435 0022 1340     		ands	r3, r2
 436              	.LVL49:
 437              		.loc 1 288 6 view .LVU172
 438 0024 5F1E     		subs	r7, r3, #1
 439 0026 BB41     		sbcs	r3, r3, r7
 289:external/drivers/stm32c0xx/src/stm32c0xx_hal_exti.c ****   {
 290:external/drivers/stm32c0xx/src/stm32c0xx_hal_exti.c ****     pExtiConfig->Mode = EXTI_MODE_INTERRUPT;
 291:external/drivers/stm32c0xx/src/stm32c0xx_hal_exti.c ****   }
 292:external/drivers/stm32c0xx/src/stm32c0xx_hal_exti.c ****   else
 293:external/drivers/stm32c0xx/src/stm32c0xx_hal_exti.c ****   {
 294:external/drivers/stm32c0xx/src/stm32c0xx_hal_exti.c ****     pExtiConfig->Mode = EXTI_MODE_NONE;
 295:external/drivers/stm32c0xx/src/stm32c0xx_hal_exti.c ****   }
 296:external/drivers/stm32c0xx/src/stm32c0xx_hal_exti.c **** 
 297:external/drivers/stm32c0xx/src/stm32c0xx_hal_exti.c ****   /* Get event mode */
ARM GAS  /tmp/ccItwm8l.s 			page 15


 298:external/drivers/stm32c0xx/src/stm32c0xx_hal_exti.c ****   regaddr = (__IO uint32_t *)(&EXTI->EMR1 + (EXTI_MODE_OFFSET * offset));
 440              		.loc 1 298 11 view .LVU173
 441 0028 1D4F     		ldr	r7, .L41+4
 442 002a 4B60     		str	r3, [r1, #4]
 443              		.loc 1 298 3 is_stmt 1 view .LVU174
 444              		.loc 1 298 11 is_stmt 0 view .LVU175
 445 002c BC46     		mov	ip, r7
 446 002e 6644     		add	r6, r6, ip
 447              	.LVL50:
 299:external/drivers/stm32c0xx/src/stm32c0xx_hal_exti.c ****   regval = *regaddr;
 448              		.loc 1 299 3 is_stmt 1 view .LVU176
 449              		.loc 1 299 10 is_stmt 0 view .LVU177
 450 0030 3668     		ldr	r6, [r6]
 451              	.LVL51:
 300:external/drivers/stm32c0xx/src/stm32c0xx_hal_exti.c **** 
 301:external/drivers/stm32c0xx/src/stm32c0xx_hal_exti.c ****   /* Check if selected line is enable */
 302:external/drivers/stm32c0xx/src/stm32c0xx_hal_exti.c ****   if ((regval & maskline) != 0U)
 452              		.loc 1 302 3 is_stmt 1 view .LVU178
 453              		.loc 1 302 6 is_stmt 0 view .LVU179
 454 0032 1642     		tst	r6, r2
 455 0034 02D0     		beq	.L26
 303:external/drivers/stm32c0xx/src/stm32c0xx_hal_exti.c ****   {
 304:external/drivers/stm32c0xx/src/stm32c0xx_hal_exti.c ****     pExtiConfig->Mode |= EXTI_MODE_EVENT;
 456              		.loc 1 304 5 is_stmt 1 view .LVU180
 457              		.loc 1 304 23 is_stmt 0 view .LVU181
 458 0036 0226     		movs	r6, #2
 459              	.LVL52:
 460              		.loc 1 304 23 view .LVU182
 461 0038 3343     		orrs	r3, r6
 462 003a 4B60     		str	r3, [r1, #4]
 463              	.L26:
 305:external/drivers/stm32c0xx/src/stm32c0xx_hal_exti.c ****   }
 306:external/drivers/stm32c0xx/src/stm32c0xx_hal_exti.c **** 
 307:external/drivers/stm32c0xx/src/stm32c0xx_hal_exti.c ****   /* 2] Get trigger for configurable lines : rising */
 308:external/drivers/stm32c0xx/src/stm32c0xx_hal_exti.c ****   if ((pExtiConfig->Line & EXTI_CONFIG) != 0U)
 464              		.loc 1 308 3 is_stmt 1 view .LVU183
 465              		.loc 1 308 6 is_stmt 0 view .LVU184
 466 003c A301     		lsls	r3, r4, #6
 467 003e 18D5     		bpl	.L28
 309:external/drivers/stm32c0xx/src/stm32c0xx_hal_exti.c ****   {
 310:external/drivers/stm32c0xx/src/stm32c0xx_hal_exti.c ****     regaddr = (__IO uint32_t *)(&EXTI->RTSR1 + (EXTI_CONFIG_OFFSET * offset));
 468              		.loc 1 310 5 is_stmt 1 view .LVU185
 311:external/drivers/stm32c0xx/src/stm32c0xx_hal_exti.c ****     regval = *regaddr;
 312:external/drivers/stm32c0xx/src/stm32c0xx_hal_exti.c **** 
 313:external/drivers/stm32c0xx/src/stm32c0xx_hal_exti.c ****     /* Get default Trigger and GPIOSel configuration */
 314:external/drivers/stm32c0xx/src/stm32c0xx_hal_exti.c ****     pExtiConfig->Trigger = EXTI_TRIGGER_NONE;
 315:external/drivers/stm32c0xx/src/stm32c0xx_hal_exti.c ****     pExtiConfig->GPIOSel = 0x00u;
 469              		.loc 1 315 26 is_stmt 0 view .LVU186
 470 0040 0026     		movs	r6, #0
 310:external/drivers/stm32c0xx/src/stm32c0xx_hal_exti.c ****     regval = *regaddr;
 471              		.loc 1 310 13 view .LVU187
 472 0042 184B     		ldr	r3, .L41+8
 310:external/drivers/stm32c0xx/src/stm32c0xx_hal_exti.c ****     regval = *regaddr;
 473              		.loc 1 310 15 view .LVU188
 474 0044 4001     		lsls	r0, r0, #5
 475              	.LVL53:
 310:external/drivers/stm32c0xx/src/stm32c0xx_hal_exti.c ****     regval = *regaddr;
ARM GAS  /tmp/ccItwm8l.s 			page 16


 476              		.loc 1 310 13 view .LVU189
 477 0046 C318     		adds	r3, r0, r3
 478              	.LVL54:
 311:external/drivers/stm32c0xx/src/stm32c0xx_hal_exti.c ****     regval = *regaddr;
 479              		.loc 1 311 5 is_stmt 1 view .LVU190
 311:external/drivers/stm32c0xx/src/stm32c0xx_hal_exti.c ****     regval = *regaddr;
 480              		.loc 1 311 12 is_stmt 0 view .LVU191
 481 0048 1B68     		ldr	r3, [r3]
 482              	.LVL55:
 314:external/drivers/stm32c0xx/src/stm32c0xx_hal_exti.c ****     pExtiConfig->GPIOSel = 0x00u;
 483              		.loc 1 314 5 is_stmt 1 view .LVU192
 484              		.loc 1 315 5 view .LVU193
 485              		.loc 1 315 26 is_stmt 0 view .LVU194
 486 004a CE60     		str	r6, [r1, #12]
 316:external/drivers/stm32c0xx/src/stm32c0xx_hal_exti.c **** 
 317:external/drivers/stm32c0xx/src/stm32c0xx_hal_exti.c ****     /* Check if configuration of selected line is enable */
 318:external/drivers/stm32c0xx/src/stm32c0xx_hal_exti.c ****     if ((regval & maskline) != 0U)
 487              		.loc 1 318 5 is_stmt 1 view .LVU195
 488              		.loc 1 318 17 is_stmt 0 view .LVU196
 489 004c 1340     		ands	r3, r2
 490              	.LVL56:
 491              		.loc 1 318 8 view .LVU197
 492 004e 5E1E     		subs	r6, r3, #1
 493 0050 B341     		sbcs	r3, r3, r6
 319:external/drivers/stm32c0xx/src/stm32c0xx_hal_exti.c ****     {
 320:external/drivers/stm32c0xx/src/stm32c0xx_hal_exti.c ****       pExtiConfig->Trigger = EXTI_TRIGGER_RISING;
 321:external/drivers/stm32c0xx/src/stm32c0xx_hal_exti.c ****     }
 322:external/drivers/stm32c0xx/src/stm32c0xx_hal_exti.c **** 
 323:external/drivers/stm32c0xx/src/stm32c0xx_hal_exti.c ****     /* Get falling configuration */
 324:external/drivers/stm32c0xx/src/stm32c0xx_hal_exti.c ****     regaddr = (__IO uint32_t *)(&EXTI->FTSR1 + (EXTI_CONFIG_OFFSET * offset));
 494              		.loc 1 324 13 view .LVU198
 495 0052 154E     		ldr	r6, .L41+12
 496 0054 8B60     		str	r3, [r1, #8]
 497              		.loc 1 324 5 is_stmt 1 view .LVU199
 498              		.loc 1 324 13 is_stmt 0 view .LVU200
 499 0056 B446     		mov	ip, r6
 500 0058 6044     		add	r0, r0, ip
 501              	.LVL57:
 325:external/drivers/stm32c0xx/src/stm32c0xx_hal_exti.c ****     regval = *regaddr;
 502              		.loc 1 325 5 is_stmt 1 view .LVU201
 503              		.loc 1 325 12 is_stmt 0 view .LVU202
 504 005a 0068     		ldr	r0, [r0]
 505              	.LVL58:
 326:external/drivers/stm32c0xx/src/stm32c0xx_hal_exti.c **** 
 327:external/drivers/stm32c0xx/src/stm32c0xx_hal_exti.c ****     /* Check if configuration of selected line is enable */
 328:external/drivers/stm32c0xx/src/stm32c0xx_hal_exti.c ****     if ((regval & maskline) != 0U)
 506              		.loc 1 328 5 is_stmt 1 view .LVU203
 507              		.loc 1 328 8 is_stmt 0 view .LVU204
 508 005c 1042     		tst	r0, r2
 509 005e 02D0     		beq	.L29
 329:external/drivers/stm32c0xx/src/stm32c0xx_hal_exti.c ****     {
 330:external/drivers/stm32c0xx/src/stm32c0xx_hal_exti.c ****       pExtiConfig->Trigger |= EXTI_TRIGGER_FALLING;
 510              		.loc 1 330 7 is_stmt 1 view .LVU205
 511              		.loc 1 330 28 is_stmt 0 view .LVU206
 512 0060 0222     		movs	r2, #2
 513              	.LVL59:
 514              		.loc 1 330 28 view .LVU207
ARM GAS  /tmp/ccItwm8l.s 			page 17


 515 0062 1343     		orrs	r3, r2
 516 0064 8B60     		str	r3, [r1, #8]
 517              	.L29:
 331:external/drivers/stm32c0xx/src/stm32c0xx_hal_exti.c ****     }
 332:external/drivers/stm32c0xx/src/stm32c0xx_hal_exti.c **** 
 333:external/drivers/stm32c0xx/src/stm32c0xx_hal_exti.c ****     /* Get Gpio port selection for gpio lines */
 334:external/drivers/stm32c0xx/src/stm32c0xx_hal_exti.c ****     if ((pExtiConfig->Line & EXTI_GPIO) == EXTI_GPIO)
 518              		.loc 1 334 5 is_stmt 1 view .LVU208
 519              		.loc 1 334 28 is_stmt 0 view .LVU209
 520 0066 C023     		movs	r3, #192
 521 0068 2200     		movs	r2, r4
 522 006a DB04     		lsls	r3, r3, #19
 523 006c 1A40     		ands	r2, r3
 524              		.loc 1 334 8 view .LVU210
 525 006e 9A42     		cmp	r2, r3
 526 0070 03D0     		beq	.L40
 527              	.LVL60:
 528              	.L28:
 335:external/drivers/stm32c0xx/src/stm32c0xx_hal_exti.c ****     {
 336:external/drivers/stm32c0xx/src/stm32c0xx_hal_exti.c ****       assert_param(IS_EXTI_GPIO_PIN(linepos));
 337:external/drivers/stm32c0xx/src/stm32c0xx_hal_exti.c **** 
 338:external/drivers/stm32c0xx/src/stm32c0xx_hal_exti.c ****       regval = EXTI->EXTICR[(linepos >> 2U) & 0x03UL];
 339:external/drivers/stm32c0xx/src/stm32c0xx_hal_exti.c ****       pExtiConfig->GPIOSel = (regval >> (EXTI_EXTICR1_EXTI1_Pos * (linepos & 0x03u))) & EXTI_EXTICR
 340:external/drivers/stm32c0xx/src/stm32c0xx_hal_exti.c ****     }
 341:external/drivers/stm32c0xx/src/stm32c0xx_hal_exti.c ****   }
 342:external/drivers/stm32c0xx/src/stm32c0xx_hal_exti.c **** 
 343:external/drivers/stm32c0xx/src/stm32c0xx_hal_exti.c ****   return HAL_OK;
 529              		.loc 1 343 10 view .LVU211
 530 0072 0020     		movs	r0, #0
 531 0074 00E0     		b	.L25
 532              	.LVL61:
 533              	.L32:
 269:external/drivers/stm32c0xx/src/stm32c0xx_hal_exti.c ****   }
 534              		.loc 1 269 12 view .LVU212
 535 0076 0120     		movs	r0, #1
 536              	.LVL62:
 537              	.L25:
 344:external/drivers/stm32c0xx/src/stm32c0xx_hal_exti.c **** }
 538              		.loc 1 344 1 view .LVU213
 539              		@ sp needed
 540 0078 F0BD     		pop	{r4, r5, r6, r7, pc}
 541              	.LVL63:
 542              	.L40:
 336:external/drivers/stm32c0xx/src/stm32c0xx_hal_exti.c **** 
 543              		.loc 1 336 7 is_stmt 1 view .LVU214
 338:external/drivers/stm32c0xx/src/stm32c0xx_hal_exti.c ****       pExtiConfig->GPIOSel = (regval >> (EXTI_EXTICR1_EXTI1_Pos * (linepos & 0x03u))) & EXTI_EXTICR
 544              		.loc 1 338 7 view .LVU215
 338:external/drivers/stm32c0xx/src/stm32c0xx_hal_exti.c ****       pExtiConfig->GPIOSel = (regval >> (EXTI_EXTICR1_EXTI1_Pos * (linepos & 0x03u))) & EXTI_EXTICR
 545              		.loc 1 338 45 is_stmt 0 view .LVU216
 546 007a 0322     		movs	r2, #3
 338:external/drivers/stm32c0xx/src/stm32c0xx_hal_exti.c ****       pExtiConfig->GPIOSel = (regval >> (EXTI_EXTICR1_EXTI1_Pos * (linepos & 0x03u))) & EXTI_EXTICR
 547              		.loc 1 338 38 view .LVU217
 548 007c AB08     		lsrs	r3, r5, #2
 338:external/drivers/stm32c0xx/src/stm32c0xx_hal_exti.c ****       pExtiConfig->GPIOSel = (regval >> (EXTI_EXTICR1_EXTI1_Pos * (linepos & 0x03u))) & EXTI_EXTICR
 549              		.loc 1 338 45 view .LVU218
 550 007e 1340     		ands	r3, r2
 338:external/drivers/stm32c0xx/src/stm32c0xx_hal_exti.c ****       pExtiConfig->GPIOSel = (regval >> (EXTI_EXTICR1_EXTI1_Pos * (linepos & 0x03u))) & EXTI_EXTICR
ARM GAS  /tmp/ccItwm8l.s 			page 18


 551              		.loc 1 338 14 view .LVU219
 552 0080 0848     		ldr	r0, .L41+8
 553              	.LVL64:
 338:external/drivers/stm32c0xx/src/stm32c0xx_hal_exti.c ****       pExtiConfig->GPIOSel = (regval >> (EXTI_EXTICR1_EXTI1_Pos * (linepos & 0x03u))) & EXTI_EXTICR
 554              		.loc 1 338 14 view .LVU220
 555 0082 1833     		adds	r3, r3, #24
 556 0084 9B00     		lsls	r3, r3, #2
 557 0086 1B58     		ldr	r3, [r3, r0]
 558              	.LVL65:
 339:external/drivers/stm32c0xx/src/stm32c0xx_hal_exti.c ****     }
 559              		.loc 1 339 7 is_stmt 1 view .LVU221
 339:external/drivers/stm32c0xx/src/stm32c0xx_hal_exti.c ****     }
 560              		.loc 1 339 76 is_stmt 0 view .LVU222
 561 0088 2240     		ands	r2, r4
 339:external/drivers/stm32c0xx/src/stm32c0xx_hal_exti.c ****     }
 562              		.loc 1 339 65 view .LVU223
 563 008a D200     		lsls	r2, r2, #3
 339:external/drivers/stm32c0xx/src/stm32c0xx_hal_exti.c ****     }
 564              		.loc 1 339 38 view .LVU224
 565 008c D340     		lsrs	r3, r3, r2
 566              	.LVL66:
 339:external/drivers/stm32c0xx/src/stm32c0xx_hal_exti.c ****     }
 567              		.loc 1 339 38 view .LVU225
 568 008e 1A00     		movs	r2, r3
 339:external/drivers/stm32c0xx/src/stm32c0xx_hal_exti.c ****     }
 569              		.loc 1 339 87 view .LVU226
 570 0090 0723     		movs	r3, #7
 571 0092 1340     		ands	r3, r2
 343:external/drivers/stm32c0xx/src/stm32c0xx_hal_exti.c **** }
 572              		.loc 1 343 10 view .LVU227
 573 0094 0020     		movs	r0, #0
 339:external/drivers/stm32c0xx/src/stm32c0xx_hal_exti.c ****     }
 574              		.loc 1 339 28 view .LVU228
 575 0096 CB60     		str	r3, [r1, #12]
 576 0098 EEE7     		b	.L25
 577              	.L42:
 578 009a C046     		.align	2
 579              	.L41:
 580 009c 80180240 		.word	1073879168
 581 00a0 84180240 		.word	1073879172
 582 00a4 00180240 		.word	1073879040
 583 00a8 04180240 		.word	1073879044
 584              		.cfi_endproc
 585              	.LFE215:
 587              		.section	.text.HAL_EXTI_ClearConfigLine,"ax",%progbits
 588              		.align	1
 589              		.p2align 2,,3
 590              		.global	HAL_EXTI_ClearConfigLine
 591              		.syntax unified
 592              		.code	16
 593              		.thumb_func
 595              	HAL_EXTI_ClearConfigLine:
 596              	.LVL67:
 597              	.LFB216:
 345:external/drivers/stm32c0xx/src/stm32c0xx_hal_exti.c **** 
 346:external/drivers/stm32c0xx/src/stm32c0xx_hal_exti.c **** 
 347:external/drivers/stm32c0xx/src/stm32c0xx_hal_exti.c **** /**
ARM GAS  /tmp/ccItwm8l.s 			page 19


 348:external/drivers/stm32c0xx/src/stm32c0xx_hal_exti.c ****   * @brief  Clear whole configuration of a dedicated Exti line.
 349:external/drivers/stm32c0xx/src/stm32c0xx_hal_exti.c ****   * @param  hexti Exti handle.
 350:external/drivers/stm32c0xx/src/stm32c0xx_hal_exti.c ****   * @retval HAL Status.
 351:external/drivers/stm32c0xx/src/stm32c0xx_hal_exti.c ****   */
 352:external/drivers/stm32c0xx/src/stm32c0xx_hal_exti.c **** HAL_StatusTypeDef HAL_EXTI_ClearConfigLine(const EXTI_HandleTypeDef *hexti)
 353:external/drivers/stm32c0xx/src/stm32c0xx_hal_exti.c **** {
 598              		.loc 1 353 1 is_stmt 1 view -0
 599              		.cfi_startproc
 600              		@ args = 0, pretend = 0, frame = 0
 601              		@ frame_needed = 0, uses_anonymous_args = 0
 354:external/drivers/stm32c0xx/src/stm32c0xx_hal_exti.c ****   __IO uint32_t *regaddr;
 602              		.loc 1 354 3 view .LVU230
 355:external/drivers/stm32c0xx/src/stm32c0xx_hal_exti.c ****   uint32_t regval;
 603              		.loc 1 355 3 view .LVU231
 356:external/drivers/stm32c0xx/src/stm32c0xx_hal_exti.c ****   uint32_t linepos;
 604              		.loc 1 356 3 view .LVU232
 357:external/drivers/stm32c0xx/src/stm32c0xx_hal_exti.c ****   uint32_t maskline;
 605              		.loc 1 357 3 view .LVU233
 358:external/drivers/stm32c0xx/src/stm32c0xx_hal_exti.c ****   uint32_t offset;
 606              		.loc 1 358 3 view .LVU234
 359:external/drivers/stm32c0xx/src/stm32c0xx_hal_exti.c **** 
 360:external/drivers/stm32c0xx/src/stm32c0xx_hal_exti.c ****   /* Check null pointer */
 361:external/drivers/stm32c0xx/src/stm32c0xx_hal_exti.c ****   if (hexti == NULL)
 607              		.loc 1 361 3 view .LVU235
 353:external/drivers/stm32c0xx/src/stm32c0xx_hal_exti.c ****   __IO uint32_t *regaddr;
 608              		.loc 1 353 1 is_stmt 0 view .LVU236
 609 0000 F0B5     		push	{r4, r5, r6, r7, lr}
 610              	.LCFI3:
 611              		.cfi_def_cfa_offset 20
 612              		.cfi_offset 4, -20
 613              		.cfi_offset 5, -16
 614              		.cfi_offset 6, -12
 615              		.cfi_offset 7, -8
 616              		.cfi_offset 14, -4
 617 0002 C646     		mov	lr, r8
 618 0004 00B5     		push	{lr}
 619              	.LCFI4:
 620              		.cfi_def_cfa_offset 24
 621              		.cfi_offset 8, -24
 622              		.loc 1 361 6 view .LVU237
 623 0006 0028     		cmp	r0, #0
 624 0008 40D0     		beq	.L48
 362:external/drivers/stm32c0xx/src/stm32c0xx_hal_exti.c ****   {
 363:external/drivers/stm32c0xx/src/stm32c0xx_hal_exti.c ****     return HAL_ERROR;
 364:external/drivers/stm32c0xx/src/stm32c0xx_hal_exti.c ****   }
 365:external/drivers/stm32c0xx/src/stm32c0xx_hal_exti.c **** 
 366:external/drivers/stm32c0xx/src/stm32c0xx_hal_exti.c ****   /* Check the parameter */
 367:external/drivers/stm32c0xx/src/stm32c0xx_hal_exti.c ****   assert_param(IS_EXTI_LINE(hexti->Line));
 625              		.loc 1 367 3 is_stmt 1 view .LVU238
 368:external/drivers/stm32c0xx/src/stm32c0xx_hal_exti.c **** 
 369:external/drivers/stm32c0xx/src/stm32c0xx_hal_exti.c ****   /* compute line register offset and line mask */
 370:external/drivers/stm32c0xx/src/stm32c0xx_hal_exti.c ****   offset = ((hexti->Line & EXTI_REG_MASK) >> EXTI_REG_SHIFT);
 626              		.loc 1 370 3 view .LVU239
 371:external/drivers/stm32c0xx/src/stm32c0xx_hal_exti.c ****   linepos = (hexti->Line & EXTI_PIN_MASK);
 627              		.loc 1 371 11 is_stmt 0 view .LVU240
 628 000a 1F24     		movs	r4, #31
 370:external/drivers/stm32c0xx/src/stm32c0xx_hal_exti.c ****   linepos = (hexti->Line & EXTI_PIN_MASK);
ARM GAS  /tmp/ccItwm8l.s 			page 20


 629              		.loc 1 370 10 view .LVU241
 630 000c 0122     		movs	r2, #1
 370:external/drivers/stm32c0xx/src/stm32c0xx_hal_exti.c ****   linepos = (hexti->Line & EXTI_PIN_MASK);
 631              		.loc 1 370 19 view .LVU242
 632 000e 0668     		ldr	r6, [r0]
 372:external/drivers/stm32c0xx/src/stm32c0xx_hal_exti.c ****   maskline = (1UL << linepos);
 373:external/drivers/stm32c0xx/src/stm32c0xx_hal_exti.c **** 
 374:external/drivers/stm32c0xx/src/stm32c0xx_hal_exti.c ****   /* 1] Clear interrupt mode */
 375:external/drivers/stm32c0xx/src/stm32c0xx_hal_exti.c ****   regaddr = (__IO uint32_t *)(&EXTI->IMR1 + (EXTI_MODE_OFFSET * offset));
 633              		.loc 1 375 11 view .LVU243
 634 0010 1F4D     		ldr	r5, .L49
 370:external/drivers/stm32c0xx/src/stm32c0xx_hal_exti.c ****   linepos = (hexti->Line & EXTI_PIN_MASK);
 635              		.loc 1 370 43 view .LVU244
 636 0012 330C     		lsrs	r3, r6, #16
 371:external/drivers/stm32c0xx/src/stm32c0xx_hal_exti.c ****   maskline = (1UL << linepos);
 637              		.loc 1 371 11 view .LVU245
 638 0014 3440     		ands	r4, r6
 370:external/drivers/stm32c0xx/src/stm32c0xx_hal_exti.c ****   linepos = (hexti->Line & EXTI_PIN_MASK);
 639              		.loc 1 370 10 view .LVU246
 640 0016 1340     		ands	r3, r2
 641              	.LVL68:
 371:external/drivers/stm32c0xx/src/stm32c0xx_hal_exti.c ****   maskline = (1UL << linepos);
 642              		.loc 1 371 3 is_stmt 1 view .LVU247
 372:external/drivers/stm32c0xx/src/stm32c0xx_hal_exti.c ****   maskline = (1UL << linepos);
 643              		.loc 1 372 3 view .LVU248
 644              		.loc 1 375 3 view .LVU249
 372:external/drivers/stm32c0xx/src/stm32c0xx_hal_exti.c ****   maskline = (1UL << linepos);
 645              		.loc 1 372 12 is_stmt 0 view .LVU250
 646 0018 A240     		lsls	r2, r2, r4
 647              	.LVL69:
 648              		.loc 1 375 11 view .LVU251
 649 001a AC46     		mov	ip, r5
 376:external/drivers/stm32c0xx/src/stm32c0xx_hal_exti.c ****   regval = (*regaddr & ~maskline);
 650              		.loc 1 376 24 view .LVU252
 651 001c D743     		mvns	r7, r2
 375:external/drivers/stm32c0xx/src/stm32c0xx_hal_exti.c ****   regval = (*regaddr & ~maskline);
 652              		.loc 1 375 13 view .LVU253
 653 001e 1901     		lsls	r1, r3, #4
 375:external/drivers/stm32c0xx/src/stm32c0xx_hal_exti.c ****   regval = (*regaddr & ~maskline);
 654              		.loc 1 375 11 view .LVU254
 655 0020 8C44     		add	ip, ip, r1
 656              	.LVL70:
 657              		.loc 1 376 3 is_stmt 1 view .LVU255
 658              		.loc 1 376 13 is_stmt 0 view .LVU256
 659 0022 6546     		mov	r5, ip
 660              		.loc 1 376 24 view .LVU257
 661 0024 B846     		mov	r8, r7
 377:external/drivers/stm32c0xx/src/stm32c0xx_hal_exti.c ****   *regaddr = regval;
 662              		.loc 1 377 12 view .LVU258
 663 0026 6746     		mov	r7, ip
 376:external/drivers/stm32c0xx/src/stm32c0xx_hal_exti.c ****   regval = (*regaddr & ~maskline);
 664              		.loc 1 376 13 view .LVU259
 665 0028 2D68     		ldr	r5, [r5]
 376:external/drivers/stm32c0xx/src/stm32c0xx_hal_exti.c ****   regval = (*regaddr & ~maskline);
 666              		.loc 1 376 10 view .LVU260
 667 002a 9543     		bics	r5, r2
 668              	.LVL71:
ARM GAS  /tmp/ccItwm8l.s 			page 21


 669              		.loc 1 377 3 is_stmt 1 view .LVU261
 670              		.loc 1 377 12 is_stmt 0 view .LVU262
 671 002c 3D60     		str	r5, [r7]
 378:external/drivers/stm32c0xx/src/stm32c0xx_hal_exti.c **** 
 379:external/drivers/stm32c0xx/src/stm32c0xx_hal_exti.c ****   /* 2] Clear event mode */
 380:external/drivers/stm32c0xx/src/stm32c0xx_hal_exti.c ****   regaddr = (__IO uint32_t *)(&EXTI->EMR1 + (EXTI_MODE_OFFSET * offset));
 672              		.loc 1 380 3 is_stmt 1 view .LVU263
 673              		.loc 1 380 11 is_stmt 0 view .LVU264
 674 002e 194D     		ldr	r5, .L49+4
 675              	.LVL72:
 676              		.loc 1 380 11 view .LVU265
 677 0030 AC46     		mov	ip, r5
 678              	.LVL73:
 679              		.loc 1 380 11 view .LVU266
 680 0032 6144     		add	r1, r1, ip
 681              	.LVL74:
 381:external/drivers/stm32c0xx/src/stm32c0xx_hal_exti.c ****   regval = (*regaddr & ~maskline);
 682              		.loc 1 381 3 is_stmt 1 view .LVU267
 683              		.loc 1 381 13 is_stmt 0 view .LVU268
 684 0034 0D68     		ldr	r5, [r1]
 685              		.loc 1 381 10 view .LVU269
 686 0036 9543     		bics	r5, r2
 687              	.LVL75:
 382:external/drivers/stm32c0xx/src/stm32c0xx_hal_exti.c ****   *regaddr = regval;
 688              		.loc 1 382 3 is_stmt 1 view .LVU270
 689              		.loc 1 382 12 is_stmt 0 view .LVU271
 690 0038 0D60     		str	r5, [r1]
 383:external/drivers/stm32c0xx/src/stm32c0xx_hal_exti.c **** 
 384:external/drivers/stm32c0xx/src/stm32c0xx_hal_exti.c ****   /* 3] Clear triggers in case of configurable lines */
 385:external/drivers/stm32c0xx/src/stm32c0xx_hal_exti.c ****   if ((hexti->Line & EXTI_CONFIG) != 0U)
 691              		.loc 1 385 3 is_stmt 1 view .LVU272
 692              		.loc 1 385 20 is_stmt 0 view .LVU273
 693 003a 0268     		ldr	r2, [r0]
 694              	.LVL76:
 695              		.loc 1 385 6 view .LVU274
 696 003c 9201     		lsls	r2, r2, #6
 697 003e 03D4     		bmi	.L45
 698              	.LVL77:
 699              	.L47:
 386:external/drivers/stm32c0xx/src/stm32c0xx_hal_exti.c ****   {
 387:external/drivers/stm32c0xx/src/stm32c0xx_hal_exti.c ****     regaddr = (__IO uint32_t *)(&EXTI->RTSR1 + (EXTI_CONFIG_OFFSET * offset));
 388:external/drivers/stm32c0xx/src/stm32c0xx_hal_exti.c ****     regval = (*regaddr & ~maskline);
 389:external/drivers/stm32c0xx/src/stm32c0xx_hal_exti.c ****     *regaddr = regval;
 390:external/drivers/stm32c0xx/src/stm32c0xx_hal_exti.c **** 
 391:external/drivers/stm32c0xx/src/stm32c0xx_hal_exti.c ****     regaddr = (__IO uint32_t *)(&EXTI->FTSR1 + (EXTI_CONFIG_OFFSET * offset));
 392:external/drivers/stm32c0xx/src/stm32c0xx_hal_exti.c ****     regval = (*regaddr & ~maskline);
 393:external/drivers/stm32c0xx/src/stm32c0xx_hal_exti.c ****     *regaddr = regval;
 394:external/drivers/stm32c0xx/src/stm32c0xx_hal_exti.c **** 
 395:external/drivers/stm32c0xx/src/stm32c0xx_hal_exti.c ****     /* Get Gpio port selection for gpio lines */
 396:external/drivers/stm32c0xx/src/stm32c0xx_hal_exti.c ****     if ((hexti->Line & EXTI_GPIO) == EXTI_GPIO)
 397:external/drivers/stm32c0xx/src/stm32c0xx_hal_exti.c ****     {
 398:external/drivers/stm32c0xx/src/stm32c0xx_hal_exti.c ****       assert_param(IS_EXTI_GPIO_PIN(linepos));
 399:external/drivers/stm32c0xx/src/stm32c0xx_hal_exti.c **** 
 400:external/drivers/stm32c0xx/src/stm32c0xx_hal_exti.c ****       regval = EXTI->EXTICR[(linepos >> 2U) & 0x03UL];
 401:external/drivers/stm32c0xx/src/stm32c0xx_hal_exti.c ****       regval &= ~(EXTI_EXTICR1_EXTI0 << (EXTI_EXTICR1_EXTI1_Pos * (linepos & 0x03U)));
 402:external/drivers/stm32c0xx/src/stm32c0xx_hal_exti.c ****       EXTI->EXTICR[(linepos >> 2U) & 0x03UL] = regval;
 403:external/drivers/stm32c0xx/src/stm32c0xx_hal_exti.c ****     }
ARM GAS  /tmp/ccItwm8l.s 			page 22


 404:external/drivers/stm32c0xx/src/stm32c0xx_hal_exti.c ****   }
 405:external/drivers/stm32c0xx/src/stm32c0xx_hal_exti.c **** 
 406:external/drivers/stm32c0xx/src/stm32c0xx_hal_exti.c ****   return HAL_OK;
 700              		.loc 1 406 10 view .LVU275
 701 0040 0020     		movs	r0, #0
 702              	.LVL78:
 703              	.L44:
 407:external/drivers/stm32c0xx/src/stm32c0xx_hal_exti.c **** }
 704              		.loc 1 407 1 view .LVU276
 705              		@ sp needed
 706 0042 80BC     		pop	{r7}
 707 0044 B846     		mov	r8, r7
 708 0046 F0BD     		pop	{r4, r5, r6, r7, pc}
 709              	.LVL79:
 710              	.L45:
 387:external/drivers/stm32c0xx/src/stm32c0xx_hal_exti.c ****     regval = (*regaddr & ~maskline);
 711              		.loc 1 387 5 is_stmt 1 view .LVU277
 388:external/drivers/stm32c0xx/src/stm32c0xx_hal_exti.c ****     *regaddr = regval;
 712              		.loc 1 388 12 is_stmt 0 view .LVU278
 713 0048 4546     		mov	r5, r8
 714              	.LVL80:
 387:external/drivers/stm32c0xx/src/stm32c0xx_hal_exti.c ****     regval = (*regaddr & ~maskline);
 715              		.loc 1 387 13 view .LVU279
 716 004a 134A     		ldr	r2, .L49+8
 387:external/drivers/stm32c0xx/src/stm32c0xx_hal_exti.c ****     regval = (*regaddr & ~maskline);
 717              		.loc 1 387 15 view .LVU280
 718 004c 5B01     		lsls	r3, r3, #5
 719              	.LVL81:
 387:external/drivers/stm32c0xx/src/stm32c0xx_hal_exti.c ****     regval = (*regaddr & ~maskline);
 720              		.loc 1 387 13 view .LVU281
 721 004e 9918     		adds	r1, r3, r2
 722              	.LVL82:
 388:external/drivers/stm32c0xx/src/stm32c0xx_hal_exti.c ****     *regaddr = regval;
 723              		.loc 1 388 5 is_stmt 1 view .LVU282
 388:external/drivers/stm32c0xx/src/stm32c0xx_hal_exti.c ****     *regaddr = regval;
 724              		.loc 1 388 15 is_stmt 0 view .LVU283
 725 0050 0A68     		ldr	r2, [r1]
 388:external/drivers/stm32c0xx/src/stm32c0xx_hal_exti.c ****     *regaddr = regval;
 726              		.loc 1 388 12 view .LVU284
 727 0052 2A40     		ands	r2, r5
 728              	.LVL83:
 389:external/drivers/stm32c0xx/src/stm32c0xx_hal_exti.c **** 
 729              		.loc 1 389 5 is_stmt 1 view .LVU285
 389:external/drivers/stm32c0xx/src/stm32c0xx_hal_exti.c **** 
 730              		.loc 1 389 14 is_stmt 0 view .LVU286
 731 0054 0A60     		str	r2, [r1]
 391:external/drivers/stm32c0xx/src/stm32c0xx_hal_exti.c ****     regval = (*regaddr & ~maskline);
 732              		.loc 1 391 5 is_stmt 1 view .LVU287
 391:external/drivers/stm32c0xx/src/stm32c0xx_hal_exti.c ****     regval = (*regaddr & ~maskline);
 733              		.loc 1 391 13 is_stmt 0 view .LVU288
 734 0056 114A     		ldr	r2, .L49+12
 735              	.LVL84:
 391:external/drivers/stm32c0xx/src/stm32c0xx_hal_exti.c ****     regval = (*regaddr & ~maskline);
 736              		.loc 1 391 13 view .LVU289
 737 0058 9446     		mov	ip, r2
 738 005a 6344     		add	r3, r3, ip
 739              	.LVL85:
ARM GAS  /tmp/ccItwm8l.s 			page 23


 392:external/drivers/stm32c0xx/src/stm32c0xx_hal_exti.c ****     *regaddr = regval;
 740              		.loc 1 392 5 is_stmt 1 view .LVU290
 392:external/drivers/stm32c0xx/src/stm32c0xx_hal_exti.c ****     *regaddr = regval;
 741              		.loc 1 392 15 is_stmt 0 view .LVU291
 742 005c 1A68     		ldr	r2, [r3]
 392:external/drivers/stm32c0xx/src/stm32c0xx_hal_exti.c ****     *regaddr = regval;
 743              		.loc 1 392 12 view .LVU292
 744 005e 2A40     		ands	r2, r5
 745              	.LVL86:
 393:external/drivers/stm32c0xx/src/stm32c0xx_hal_exti.c **** 
 746              		.loc 1 393 5 is_stmt 1 view .LVU293
 393:external/drivers/stm32c0xx/src/stm32c0xx_hal_exti.c **** 
 747              		.loc 1 393 14 is_stmt 0 view .LVU294
 748 0060 1A60     		str	r2, [r3]
 396:external/drivers/stm32c0xx/src/stm32c0xx_hal_exti.c ****     {
 749              		.loc 1 396 5 is_stmt 1 view .LVU295
 396:external/drivers/stm32c0xx/src/stm32c0xx_hal_exti.c ****     {
 750              		.loc 1 396 22 is_stmt 0 view .LVU296
 751 0062 C022     		movs	r2, #192
 752              	.LVL87:
 396:external/drivers/stm32c0xx/src/stm32c0xx_hal_exti.c ****     {
 753              		.loc 1 396 22 view .LVU297
 754 0064 0368     		ldr	r3, [r0]
 755              	.LVL88:
 396:external/drivers/stm32c0xx/src/stm32c0xx_hal_exti.c ****     {
 756              		.loc 1 396 22 view .LVU298
 757 0066 D204     		lsls	r2, r2, #19
 758 0068 1340     		ands	r3, r2
 396:external/drivers/stm32c0xx/src/stm32c0xx_hal_exti.c ****     {
 759              		.loc 1 396 8 view .LVU299
 760 006a 9342     		cmp	r3, r2
 761 006c E8D1     		bne	.L47
 762              	.LVL89:
 398:external/drivers/stm32c0xx/src/stm32c0xx_hal_exti.c **** 
 763              		.loc 1 398 7 is_stmt 1 view .LVU300
 400:external/drivers/stm32c0xx/src/stm32c0xx_hal_exti.c ****       regval &= ~(EXTI_EXTICR1_EXTI0 << (EXTI_EXTICR1_EXTI1_Pos * (linepos & 0x03U)));
 764              		.loc 1 400 7 view .LVU301
 400:external/drivers/stm32c0xx/src/stm32c0xx_hal_exti.c ****       regval &= ~(EXTI_EXTICR1_EXTI0 << (EXTI_EXTICR1_EXTI1_Pos * (linepos & 0x03U)));
 765              		.loc 1 400 45 is_stmt 0 view .LVU302
 766 006e 0323     		movs	r3, #3
 401:external/drivers/stm32c0xx/src/stm32c0xx_hal_exti.c ****       EXTI->EXTICR[(linepos >> 2U) & 0x03UL] = regval;
 767              		.loc 1 401 38 view .LVU303
 768 0070 0721     		movs	r1, #7
 769              	.LVL90:
 401:external/drivers/stm32c0xx/src/stm32c0xx_hal_exti.c ****       EXTI->EXTICR[(linepos >> 2U) & 0x03UL] = regval;
 770              		.loc 1 401 38 view .LVU304
 771 0072 094A     		ldr	r2, .L49+8
 400:external/drivers/stm32c0xx/src/stm32c0xx_hal_exti.c ****       regval &= ~(EXTI_EXTICR1_EXTI0 << (EXTI_EXTICR1_EXTI1_Pos * (linepos & 0x03U)));
 772              		.loc 1 400 38 view .LVU305
 773 0074 A408     		lsrs	r4, r4, #2
 774              	.LVL91:
 400:external/drivers/stm32c0xx/src/stm32c0xx_hal_exti.c ****       regval &= ~(EXTI_EXTICR1_EXTI0 << (EXTI_EXTICR1_EXTI1_Pos * (linepos & 0x03U)));
 775              		.loc 1 400 38 view .LVU306
 776 0076 9446     		mov	ip, r2
 777              	.LVL92:
 400:external/drivers/stm32c0xx/src/stm32c0xx_hal_exti.c ****       regval &= ~(EXTI_EXTICR1_EXTI0 << (EXTI_EXTICR1_EXTI1_Pos * (linepos & 0x03U)));
 778              		.loc 1 400 45 view .LVU307
ARM GAS  /tmp/ccItwm8l.s 			page 24


 779 0078 1C40     		ands	r4, r3
 401:external/drivers/stm32c0xx/src/stm32c0xx_hal_exti.c ****       EXTI->EXTICR[(linepos >> 2U) & 0x03UL] = regval;
 780              		.loc 1 401 76 view .LVU308
 781 007a 3340     		ands	r3, r6
 401:external/drivers/stm32c0xx/src/stm32c0xx_hal_exti.c ****       EXTI->EXTICR[(linepos >> 2U) & 0x03UL] = regval;
 782              		.loc 1 401 65 view .LVU309
 783 007c DB00     		lsls	r3, r3, #3
 401:external/drivers/stm32c0xx/src/stm32c0xx_hal_exti.c ****       EXTI->EXTICR[(linepos >> 2U) & 0x03UL] = regval;
 784              		.loc 1 401 38 view .LVU310
 785 007e 9940     		lsls	r1, r1, r3
 786 0080 A400     		lsls	r4, r4, #2
 787 0082 6444     		add	r4, r4, ip
 400:external/drivers/stm32c0xx/src/stm32c0xx_hal_exti.c ****       regval &= ~(EXTI_EXTICR1_EXTI0 << (EXTI_EXTICR1_EXTI1_Pos * (linepos & 0x03U)));
 788              		.loc 1 400 14 view .LVU311
 789 0084 226E     		ldr	r2, [r4, #96]
 790              	.LVL93:
 401:external/drivers/stm32c0xx/src/stm32c0xx_hal_exti.c ****       EXTI->EXTICR[(linepos >> 2U) & 0x03UL] = regval;
 791              		.loc 1 401 7 is_stmt 1 view .LVU312
 401:external/drivers/stm32c0xx/src/stm32c0xx_hal_exti.c ****       EXTI->EXTICR[(linepos >> 2U) & 0x03UL] = regval;
 792              		.loc 1 401 14 is_stmt 0 view .LVU313
 793 0086 8A43     		bics	r2, r1
 794              	.LVL94:
 402:external/drivers/stm32c0xx/src/stm32c0xx_hal_exti.c ****     }
 795              		.loc 1 402 7 is_stmt 1 view .LVU314
 402:external/drivers/stm32c0xx/src/stm32c0xx_hal_exti.c ****     }
 796              		.loc 1 402 46 is_stmt 0 view .LVU315
 797 0088 2266     		str	r2, [r4, #96]
 798 008a D9E7     		b	.L47
 799              	.LVL95:
 800              	.L48:
 363:external/drivers/stm32c0xx/src/stm32c0xx_hal_exti.c ****   }
 801              		.loc 1 363 12 view .LVU316
 802 008c 0120     		movs	r0, #1
 803              	.LVL96:
 363:external/drivers/stm32c0xx/src/stm32c0xx_hal_exti.c ****   }
 804              		.loc 1 363 12 view .LVU317
 805 008e D8E7     		b	.L44
 806              	.L50:
 807              		.align	2
 808              	.L49:
 809 0090 80180240 		.word	1073879168
 810 0094 84180240 		.word	1073879172
 811 0098 00180240 		.word	1073879040
 812 009c 04180240 		.word	1073879044
 813              		.cfi_endproc
 814              	.LFE216:
 816              		.section	.text.HAL_EXTI_RegisterCallback,"ax",%progbits
 817              		.align	1
 818              		.p2align 2,,3
 819              		.global	HAL_EXTI_RegisterCallback
 820              		.syntax unified
 821              		.code	16
 822              		.thumb_func
 824              	HAL_EXTI_RegisterCallback:
 825              	.LVL97:
 826              	.LFB217:
 408:external/drivers/stm32c0xx/src/stm32c0xx_hal_exti.c **** 
ARM GAS  /tmp/ccItwm8l.s 			page 25


 409:external/drivers/stm32c0xx/src/stm32c0xx_hal_exti.c **** 
 410:external/drivers/stm32c0xx/src/stm32c0xx_hal_exti.c **** /**
 411:external/drivers/stm32c0xx/src/stm32c0xx_hal_exti.c ****   * @brief  Register callback for a dedicaated Exti line.
 412:external/drivers/stm32c0xx/src/stm32c0xx_hal_exti.c ****   * @param  hexti Exti handle.
 413:external/drivers/stm32c0xx/src/stm32c0xx_hal_exti.c ****   * @param  CallbackID User callback identifier.
 414:external/drivers/stm32c0xx/src/stm32c0xx_hal_exti.c ****   *         This parameter can be one of @arg @ref EXTI_CallbackIDTypeDef values.
 415:external/drivers/stm32c0xx/src/stm32c0xx_hal_exti.c ****   * @param  pPendingCbfn function pointer to be stored as callback.
 416:external/drivers/stm32c0xx/src/stm32c0xx_hal_exti.c ****   * @retval HAL Status.
 417:external/drivers/stm32c0xx/src/stm32c0xx_hal_exti.c ****   */
 418:external/drivers/stm32c0xx/src/stm32c0xx_hal_exti.c **** HAL_StatusTypeDef HAL_EXTI_RegisterCallback(EXTI_HandleTypeDef *hexti, EXTI_CallbackIDTypeDef Callb
 419:external/drivers/stm32c0xx/src/stm32c0xx_hal_exti.c ****                                             void (*pPendingCbfn)(void))
 420:external/drivers/stm32c0xx/src/stm32c0xx_hal_exti.c **** {
 827              		.loc 1 420 1 is_stmt 1 view -0
 828              		.cfi_startproc
 829              		@ args = 0, pretend = 0, frame = 0
 830              		@ frame_needed = 0, uses_anonymous_args = 0
 831              		@ link register save eliminated.
 421:external/drivers/stm32c0xx/src/stm32c0xx_hal_exti.c ****   HAL_StatusTypeDef status = HAL_OK;
 832              		.loc 1 421 3 view .LVU319
 422:external/drivers/stm32c0xx/src/stm32c0xx_hal_exti.c **** 
 423:external/drivers/stm32c0xx/src/stm32c0xx_hal_exti.c ****   switch (CallbackID)
 833              		.loc 1 423 3 view .LVU320
 420:external/drivers/stm32c0xx/src/stm32c0xx_hal_exti.c ****   HAL_StatusTypeDef status = HAL_OK;
 834              		.loc 1 420 1 is_stmt 0 view .LVU321
 835 0000 0300     		movs	r3, r0
 836              		.loc 1 423 3 view .LVU322
 837 0002 0129     		cmp	r1, #1
 838 0004 05D0     		beq	.L52
 839 0006 0229     		cmp	r1, #2
 840 0008 0AD0     		beq	.L53
 841 000a 0120     		movs	r0, #1
 842              	.LVL98:
 843              		.loc 1 423 3 view .LVU323
 844 000c 0029     		cmp	r1, #0
 845 000e 03D0     		beq	.L57
 846              	.L54:
 847              	.LVL99:
 424:external/drivers/stm32c0xx/src/stm32c0xx_hal_exti.c ****   {
 425:external/drivers/stm32c0xx/src/stm32c0xx_hal_exti.c ****     case  HAL_EXTI_COMMON_CB_ID:
 426:external/drivers/stm32c0xx/src/stm32c0xx_hal_exti.c ****       hexti->RisingCallback = pPendingCbfn;
 427:external/drivers/stm32c0xx/src/stm32c0xx_hal_exti.c ****       hexti->FallingCallback = pPendingCbfn;
 428:external/drivers/stm32c0xx/src/stm32c0xx_hal_exti.c ****       break;
 429:external/drivers/stm32c0xx/src/stm32c0xx_hal_exti.c **** 
 430:external/drivers/stm32c0xx/src/stm32c0xx_hal_exti.c ****     case  HAL_EXTI_RISING_CB_ID:
 431:external/drivers/stm32c0xx/src/stm32c0xx_hal_exti.c ****       hexti->RisingCallback = pPendingCbfn;
 432:external/drivers/stm32c0xx/src/stm32c0xx_hal_exti.c ****       break;
 433:external/drivers/stm32c0xx/src/stm32c0xx_hal_exti.c **** 
 434:external/drivers/stm32c0xx/src/stm32c0xx_hal_exti.c ****     case  HAL_EXTI_FALLING_CB_ID:
 435:external/drivers/stm32c0xx/src/stm32c0xx_hal_exti.c ****       hexti->FallingCallback = pPendingCbfn;
 436:external/drivers/stm32c0xx/src/stm32c0xx_hal_exti.c ****       break;
 437:external/drivers/stm32c0xx/src/stm32c0xx_hal_exti.c **** 
 438:external/drivers/stm32c0xx/src/stm32c0xx_hal_exti.c ****     default:
 439:external/drivers/stm32c0xx/src/stm32c0xx_hal_exti.c ****       status = HAL_ERROR;
 440:external/drivers/stm32c0xx/src/stm32c0xx_hal_exti.c ****       break;
 441:external/drivers/stm32c0xx/src/stm32c0xx_hal_exti.c ****   }
 442:external/drivers/stm32c0xx/src/stm32c0xx_hal_exti.c **** 
 443:external/drivers/stm32c0xx/src/stm32c0xx_hal_exti.c ****   return status;
ARM GAS  /tmp/ccItwm8l.s 			page 26


 848              		.loc 1 443 3 is_stmt 1 view .LVU324
 444:external/drivers/stm32c0xx/src/stm32c0xx_hal_exti.c **** }
 849              		.loc 1 444 1 is_stmt 0 view .LVU325
 850              		@ sp needed
 851 0010 7047     		bx	lr
 852              	.LVL100:
 853              	.L52:
 431:external/drivers/stm32c0xx/src/stm32c0xx_hal_exti.c ****       break;
 854              		.loc 1 431 7 is_stmt 1 view .LVU326
 431:external/drivers/stm32c0xx/src/stm32c0xx_hal_exti.c ****       break;
 855              		.loc 1 431 29 is_stmt 0 view .LVU327
 856 0012 4260     		str	r2, [r0, #4]
 432:external/drivers/stm32c0xx/src/stm32c0xx_hal_exti.c **** 
 857              		.loc 1 432 7 is_stmt 1 view .LVU328
 421:external/drivers/stm32c0xx/src/stm32c0xx_hal_exti.c **** 
 858              		.loc 1 421 21 is_stmt 0 view .LVU329
 859 0014 0020     		movs	r0, #0
 860              	.LVL101:
 421:external/drivers/stm32c0xx/src/stm32c0xx_hal_exti.c **** 
 861              		.loc 1 421 21 view .LVU330
 862 0016 FBE7     		b	.L54
 863              	.L57:
 426:external/drivers/stm32c0xx/src/stm32c0xx_hal_exti.c ****       hexti->FallingCallback = pPendingCbfn;
 864              		.loc 1 426 7 is_stmt 1 view .LVU331
 421:external/drivers/stm32c0xx/src/stm32c0xx_hal_exti.c **** 
 865              		.loc 1 421 21 is_stmt 0 view .LVU332
 866 0018 0020     		movs	r0, #0
 426:external/drivers/stm32c0xx/src/stm32c0xx_hal_exti.c ****       hexti->FallingCallback = pPendingCbfn;
 867              		.loc 1 426 29 view .LVU333
 868 001a 5A60     		str	r2, [r3, #4]
 427:external/drivers/stm32c0xx/src/stm32c0xx_hal_exti.c ****       break;
 869              		.loc 1 427 7 is_stmt 1 view .LVU334
 427:external/drivers/stm32c0xx/src/stm32c0xx_hal_exti.c ****       break;
 870              		.loc 1 427 30 is_stmt 0 view .LVU335
 871 001c 9A60     		str	r2, [r3, #8]
 428:external/drivers/stm32c0xx/src/stm32c0xx_hal_exti.c **** 
 872              		.loc 1 428 7 is_stmt 1 view .LVU336
 873 001e F7E7     		b	.L54
 874              	.LVL102:
 875              	.L53:
 435:external/drivers/stm32c0xx/src/stm32c0xx_hal_exti.c ****       break;
 876              		.loc 1 435 7 view .LVU337
 435:external/drivers/stm32c0xx/src/stm32c0xx_hal_exti.c ****       break;
 877              		.loc 1 435 30 is_stmt 0 view .LVU338
 878 0020 8260     		str	r2, [r0, #8]
 436:external/drivers/stm32c0xx/src/stm32c0xx_hal_exti.c **** 
 879              		.loc 1 436 7 is_stmt 1 view .LVU339
 421:external/drivers/stm32c0xx/src/stm32c0xx_hal_exti.c **** 
 880              		.loc 1 421 21 is_stmt 0 view .LVU340
 881 0022 0020     		movs	r0, #0
 882              	.LVL103:
 421:external/drivers/stm32c0xx/src/stm32c0xx_hal_exti.c **** 
 883              		.loc 1 421 21 view .LVU341
 884 0024 F4E7     		b	.L54
 885              		.cfi_endproc
 886              	.LFE217:
 888 0026 C046     		.section	.text.HAL_EXTI_GetHandle,"ax",%progbits
ARM GAS  /tmp/ccItwm8l.s 			page 27


 889              		.align	1
 890              		.p2align 2,,3
 891              		.global	HAL_EXTI_GetHandle
 892              		.syntax unified
 893              		.code	16
 894              		.thumb_func
 896              	HAL_EXTI_GetHandle:
 897              	.LVL104:
 898              	.LFB218:
 445:external/drivers/stm32c0xx/src/stm32c0xx_hal_exti.c **** 
 446:external/drivers/stm32c0xx/src/stm32c0xx_hal_exti.c **** 
 447:external/drivers/stm32c0xx/src/stm32c0xx_hal_exti.c **** /**
 448:external/drivers/stm32c0xx/src/stm32c0xx_hal_exti.c ****   * @brief  Store line number as handle private field.
 449:external/drivers/stm32c0xx/src/stm32c0xx_hal_exti.c ****   * @param  hexti Exti handle.
 450:external/drivers/stm32c0xx/src/stm32c0xx_hal_exti.c ****   * @param  ExtiLine Exti line number.
 451:external/drivers/stm32c0xx/src/stm32c0xx_hal_exti.c ****   *         This parameter can be from 0 to @ref EXTI_LINE_NB.
 452:external/drivers/stm32c0xx/src/stm32c0xx_hal_exti.c ****   * @retval HAL Status.
 453:external/drivers/stm32c0xx/src/stm32c0xx_hal_exti.c ****   */
 454:external/drivers/stm32c0xx/src/stm32c0xx_hal_exti.c **** HAL_StatusTypeDef HAL_EXTI_GetHandle(EXTI_HandleTypeDef *hexti, uint32_t ExtiLine)
 455:external/drivers/stm32c0xx/src/stm32c0xx_hal_exti.c **** {
 899              		.loc 1 455 1 is_stmt 1 view -0
 900              		.cfi_startproc
 901              		@ args = 0, pretend = 0, frame = 0
 902              		@ frame_needed = 0, uses_anonymous_args = 0
 903              		@ link register save eliminated.
 456:external/drivers/stm32c0xx/src/stm32c0xx_hal_exti.c ****   /* Check the parameters */
 457:external/drivers/stm32c0xx/src/stm32c0xx_hal_exti.c ****   assert_param(IS_EXTI_LINE(ExtiLine));
 904              		.loc 1 457 3 view .LVU343
 458:external/drivers/stm32c0xx/src/stm32c0xx_hal_exti.c **** 
 459:external/drivers/stm32c0xx/src/stm32c0xx_hal_exti.c ****   /* Check null pointer */
 460:external/drivers/stm32c0xx/src/stm32c0xx_hal_exti.c ****   if (hexti == NULL)
 905              		.loc 1 460 3 view .LVU344
 906              		.loc 1 460 6 is_stmt 0 view .LVU345
 907 0000 0028     		cmp	r0, #0
 908 0002 02D0     		beq	.L60
 461:external/drivers/stm32c0xx/src/stm32c0xx_hal_exti.c ****   {
 462:external/drivers/stm32c0xx/src/stm32c0xx_hal_exti.c ****     return HAL_ERROR;
 463:external/drivers/stm32c0xx/src/stm32c0xx_hal_exti.c ****   }
 464:external/drivers/stm32c0xx/src/stm32c0xx_hal_exti.c ****   else
 465:external/drivers/stm32c0xx/src/stm32c0xx_hal_exti.c ****   {
 466:external/drivers/stm32c0xx/src/stm32c0xx_hal_exti.c ****     /* Store line number as handle private field */
 467:external/drivers/stm32c0xx/src/stm32c0xx_hal_exti.c ****     hexti->Line = ExtiLine;
 909              		.loc 1 467 5 is_stmt 1 view .LVU346
 910              		.loc 1 467 17 is_stmt 0 view .LVU347
 911 0004 0160     		str	r1, [r0]
 468:external/drivers/stm32c0xx/src/stm32c0xx_hal_exti.c **** 
 469:external/drivers/stm32c0xx/src/stm32c0xx_hal_exti.c ****     return HAL_OK;
 912              		.loc 1 469 5 is_stmt 1 view .LVU348
 913              		.loc 1 469 12 is_stmt 0 view .LVU349
 914 0006 0020     		movs	r0, #0
 915              	.LVL105:
 916              	.L59:
 470:external/drivers/stm32c0xx/src/stm32c0xx_hal_exti.c ****   }
 471:external/drivers/stm32c0xx/src/stm32c0xx_hal_exti.c **** }
 917              		.loc 1 471 1 view .LVU350
 918              		@ sp needed
 919 0008 7047     		bx	lr
ARM GAS  /tmp/ccItwm8l.s 			page 28


 920              	.LVL106:
 921              	.L60:
 462:external/drivers/stm32c0xx/src/stm32c0xx_hal_exti.c ****   }
 922              		.loc 1 462 12 view .LVU351
 923 000a 0120     		movs	r0, #1
 924              	.LVL107:
 462:external/drivers/stm32c0xx/src/stm32c0xx_hal_exti.c ****   }
 925              		.loc 1 462 12 view .LVU352
 926 000c FCE7     		b	.L59
 927              		.cfi_endproc
 928              	.LFE218:
 930 000e C046     		.section	.text.HAL_EXTI_IRQHandler,"ax",%progbits
 931              		.align	1
 932              		.p2align 2,,3
 933              		.global	HAL_EXTI_IRQHandler
 934              		.syntax unified
 935              		.code	16
 936              		.thumb_func
 938              	HAL_EXTI_IRQHandler:
 939              	.LVL108:
 940              	.LFB219:
 472:external/drivers/stm32c0xx/src/stm32c0xx_hal_exti.c **** 
 473:external/drivers/stm32c0xx/src/stm32c0xx_hal_exti.c **** 
 474:external/drivers/stm32c0xx/src/stm32c0xx_hal_exti.c **** /**
 475:external/drivers/stm32c0xx/src/stm32c0xx_hal_exti.c ****   * @}
 476:external/drivers/stm32c0xx/src/stm32c0xx_hal_exti.c ****   */
 477:external/drivers/stm32c0xx/src/stm32c0xx_hal_exti.c **** 
 478:external/drivers/stm32c0xx/src/stm32c0xx_hal_exti.c **** /** @addtogroup EXTI_Exported_Functions_Group2
 479:external/drivers/stm32c0xx/src/stm32c0xx_hal_exti.c ****   *  @brief EXTI IO functions.
 480:external/drivers/stm32c0xx/src/stm32c0xx_hal_exti.c ****   *
 481:external/drivers/stm32c0xx/src/stm32c0xx_hal_exti.c **** @verbatim
 482:external/drivers/stm32c0xx/src/stm32c0xx_hal_exti.c ****  ===============================================================================
 483:external/drivers/stm32c0xx/src/stm32c0xx_hal_exti.c ****                        ##### IO operation functions #####
 484:external/drivers/stm32c0xx/src/stm32c0xx_hal_exti.c ****  ===============================================================================
 485:external/drivers/stm32c0xx/src/stm32c0xx_hal_exti.c **** 
 486:external/drivers/stm32c0xx/src/stm32c0xx_hal_exti.c **** @endverbatim
 487:external/drivers/stm32c0xx/src/stm32c0xx_hal_exti.c ****   * @{
 488:external/drivers/stm32c0xx/src/stm32c0xx_hal_exti.c ****   */
 489:external/drivers/stm32c0xx/src/stm32c0xx_hal_exti.c **** 
 490:external/drivers/stm32c0xx/src/stm32c0xx_hal_exti.c **** /**
 491:external/drivers/stm32c0xx/src/stm32c0xx_hal_exti.c ****   * @brief  Handle EXTI interrupt request.
 492:external/drivers/stm32c0xx/src/stm32c0xx_hal_exti.c ****   * @param  hexti Exti handle.
 493:external/drivers/stm32c0xx/src/stm32c0xx_hal_exti.c ****   * @retval none.
 494:external/drivers/stm32c0xx/src/stm32c0xx_hal_exti.c ****   */
 495:external/drivers/stm32c0xx/src/stm32c0xx_hal_exti.c **** void HAL_EXTI_IRQHandler(const EXTI_HandleTypeDef *hexti)
 496:external/drivers/stm32c0xx/src/stm32c0xx_hal_exti.c **** {
 941              		.loc 1 496 1 is_stmt 1 view -0
 942              		.cfi_startproc
 943              		@ args = 0, pretend = 0, frame = 0
 944              		@ frame_needed = 0, uses_anonymous_args = 0
 497:external/drivers/stm32c0xx/src/stm32c0xx_hal_exti.c ****   __IO uint32_t *regaddr;
 945              		.loc 1 497 3 view .LVU354
 498:external/drivers/stm32c0xx/src/stm32c0xx_hal_exti.c ****   uint32_t regval;
 946              		.loc 1 498 3 view .LVU355
 499:external/drivers/stm32c0xx/src/stm32c0xx_hal_exti.c ****   uint32_t maskline;
 947              		.loc 1 499 3 view .LVU356
 500:external/drivers/stm32c0xx/src/stm32c0xx_hal_exti.c ****   uint32_t offset;
ARM GAS  /tmp/ccItwm8l.s 			page 29


 948              		.loc 1 500 3 view .LVU357
 501:external/drivers/stm32c0xx/src/stm32c0xx_hal_exti.c **** 
 502:external/drivers/stm32c0xx/src/stm32c0xx_hal_exti.c ****   /* Compute line register offset and line mask */
 503:external/drivers/stm32c0xx/src/stm32c0xx_hal_exti.c ****   offset = ((hexti->Line & EXTI_REG_MASK) >> EXTI_REG_SHIFT);
 949              		.loc 1 503 3 view .LVU358
 496:external/drivers/stm32c0xx/src/stm32c0xx_hal_exti.c ****   __IO uint32_t *regaddr;
 950              		.loc 1 496 1 is_stmt 0 view .LVU359
 951 0000 70B5     		push	{r4, r5, r6, lr}
 952              	.LCFI5:
 953              		.cfi_def_cfa_offset 16
 954              		.cfi_offset 4, -16
 955              		.cfi_offset 5, -12
 956              		.cfi_offset 6, -8
 957              		.cfi_offset 14, -4
 504:external/drivers/stm32c0xx/src/stm32c0xx_hal_exti.c ****   maskline = (1UL << (hexti->Line & EXTI_PIN_MASK));
 958              		.loc 1 504 12 view .LVU360
 959 0002 0124     		movs	r4, #1
 960              		.loc 1 504 35 view .LVU361
 961 0004 1F22     		movs	r2, #31
 962              		.loc 1 504 12 view .LVU362
 963 0006 2600     		movs	r6, r4
 503:external/drivers/stm32c0xx/src/stm32c0xx_hal_exti.c ****   maskline = (1UL << (hexti->Line & EXTI_PIN_MASK));
 964              		.loc 1 503 19 view .LVU363
 965 0008 0368     		ldr	r3, [r0]
 966              	.LVL109:
 967              		.loc 1 504 3 is_stmt 1 view .LVU364
 496:external/drivers/stm32c0xx/src/stm32c0xx_hal_exti.c ****   __IO uint32_t *regaddr;
 968              		.loc 1 496 1 is_stmt 0 view .LVU365
 969 000a 0500     		movs	r5, r0
 970              		.loc 1 504 35 view .LVU366
 971 000c 1A40     		ands	r2, r3
 972              		.loc 1 504 12 view .LVU367
 973 000e 9640     		lsls	r6, r6, r2
 974              	.LVL110:
 505:external/drivers/stm32c0xx/src/stm32c0xx_hal_exti.c **** 
 506:external/drivers/stm32c0xx/src/stm32c0xx_hal_exti.c ****   /* Get rising edge pending bit  */
 507:external/drivers/stm32c0xx/src/stm32c0xx_hal_exti.c ****   regaddr = (__IO uint32_t *)(&EXTI->RPR1 + (EXTI_CONFIG_OFFSET * offset));
 975              		.loc 1 507 3 is_stmt 1 view .LVU368
 503:external/drivers/stm32c0xx/src/stm32c0xx_hal_exti.c ****   maskline = (1UL << (hexti->Line & EXTI_PIN_MASK));
 976              		.loc 1 503 43 is_stmt 0 view .LVU369
 977 0010 1B0C     		lsrs	r3, r3, #16
 978              	.LVL111:
 503:external/drivers/stm32c0xx/src/stm32c0xx_hal_exti.c ****   maskline = (1UL << (hexti->Line & EXTI_PIN_MASK));
 979              		.loc 1 503 10 view .LVU370
 980 0012 1C40     		ands	r4, r3
 981              	.LVL112:
 982              		.loc 1 507 11 view .LVU371
 983 0014 0B4B     		ldr	r3, .L74
 984              		.loc 1 507 13 view .LVU372
 985 0016 6401     		lsls	r4, r4, #5
 986              	.LVL113:
 987              		.loc 1 507 11 view .LVU373
 988 0018 E318     		adds	r3, r4, r3
 989              	.LVL114:
 508:external/drivers/stm32c0xx/src/stm32c0xx_hal_exti.c ****   regval = (*regaddr & maskline);
 990              		.loc 1 508 3 is_stmt 1 view .LVU374
 991              		.loc 1 508 13 is_stmt 0 view .LVU375
ARM GAS  /tmp/ccItwm8l.s 			page 30


 992 001a 1A68     		ldr	r2, [r3]
 993              	.LVL115:
 509:external/drivers/stm32c0xx/src/stm32c0xx_hal_exti.c **** 
 510:external/drivers/stm32c0xx/src/stm32c0xx_hal_exti.c ****   if (regval != 0U)
 994              		.loc 1 510 3 is_stmt 1 view .LVU376
 995              		.loc 1 510 6 is_stmt 0 view .LVU377
 996 001c 1642     		tst	r6, r2
 997 001e 04D0     		beq	.L63
 511:external/drivers/stm32c0xx/src/stm32c0xx_hal_exti.c ****   {
 512:external/drivers/stm32c0xx/src/stm32c0xx_hal_exti.c ****     /* Clear pending bit */
 513:external/drivers/stm32c0xx/src/stm32c0xx_hal_exti.c ****     *regaddr = maskline;
 998              		.loc 1 513 5 is_stmt 1 view .LVU378
 999              		.loc 1 513 14 is_stmt 0 view .LVU379
 1000 0020 1E60     		str	r6, [r3]
 1001              	.LVL116:
 514:external/drivers/stm32c0xx/src/stm32c0xx_hal_exti.c **** 
 515:external/drivers/stm32c0xx/src/stm32c0xx_hal_exti.c ****     /* Call rising callback */
 516:external/drivers/stm32c0xx/src/stm32c0xx_hal_exti.c ****     if (hexti->RisingCallback != NULL)
 1002              		.loc 1 516 5 is_stmt 1 view .LVU380
 1003              		.loc 1 516 14 is_stmt 0 view .LVU381
 1004 0022 4368     		ldr	r3, [r0, #4]
 1005              	.LVL117:
 1006              		.loc 1 516 8 view .LVU382
 1007 0024 002B     		cmp	r3, #0
 1008 0026 00D0     		beq	.L63
 517:external/drivers/stm32c0xx/src/stm32c0xx_hal_exti.c ****     {
 518:external/drivers/stm32c0xx/src/stm32c0xx_hal_exti.c ****       hexti->RisingCallback();
 1009              		.loc 1 518 7 is_stmt 1 view .LVU383
 1010 0028 9847     		blx	r3
 1011              	.LVL118:
 1012              	.L63:
 519:external/drivers/stm32c0xx/src/stm32c0xx_hal_exti.c ****     }
 520:external/drivers/stm32c0xx/src/stm32c0xx_hal_exti.c ****   }
 521:external/drivers/stm32c0xx/src/stm32c0xx_hal_exti.c **** 
 522:external/drivers/stm32c0xx/src/stm32c0xx_hal_exti.c ****   /* Get falling edge pending bit  */
 523:external/drivers/stm32c0xx/src/stm32c0xx_hal_exti.c ****   regaddr = (__IO uint32_t *)(&EXTI->FPR1 + (EXTI_CONFIG_OFFSET * offset));
 1013              		.loc 1 523 3 view .LVU384
 1014              		.loc 1 523 11 is_stmt 0 view .LVU385
 1015 002a 074B     		ldr	r3, .L74+4
 1016 002c 9C46     		mov	ip, r3
 1017 002e 6444     		add	r4, r4, ip
 1018              	.LVL119:
 524:external/drivers/stm32c0xx/src/stm32c0xx_hal_exti.c ****   regval = (*regaddr & maskline);
 1019              		.loc 1 524 3 is_stmt 1 view .LVU386
 1020              		.loc 1 524 13 is_stmt 0 view .LVU387
 1021 0030 2368     		ldr	r3, [r4]
 1022              	.LVL120:
 525:external/drivers/stm32c0xx/src/stm32c0xx_hal_exti.c **** 
 526:external/drivers/stm32c0xx/src/stm32c0xx_hal_exti.c ****   if (regval != 0U)
 1023              		.loc 1 526 3 is_stmt 1 view .LVU388
 1024              		.loc 1 526 6 is_stmt 0 view .LVU389
 1025 0032 1E42     		tst	r6, r3
 1026 0034 04D0     		beq	.L61
 527:external/drivers/stm32c0xx/src/stm32c0xx_hal_exti.c ****   {
 528:external/drivers/stm32c0xx/src/stm32c0xx_hal_exti.c ****     /* Clear pending bit */
 529:external/drivers/stm32c0xx/src/stm32c0xx_hal_exti.c ****     *regaddr = maskline;
 1027              		.loc 1 529 5 is_stmt 1 view .LVU390
ARM GAS  /tmp/ccItwm8l.s 			page 31


 530:external/drivers/stm32c0xx/src/stm32c0xx_hal_exti.c **** 
 531:external/drivers/stm32c0xx/src/stm32c0xx_hal_exti.c ****     /* Call rising callback */
 532:external/drivers/stm32c0xx/src/stm32c0xx_hal_exti.c ****     if (hexti->FallingCallback != NULL)
 1028              		.loc 1 532 14 is_stmt 0 view .LVU391
 1029 0036 AB68     		ldr	r3, [r5, #8]
 1030              	.LVL121:
 529:external/drivers/stm32c0xx/src/stm32c0xx_hal_exti.c **** 
 1031              		.loc 1 529 14 view .LVU392
 1032 0038 2660     		str	r6, [r4]
 1033              		.loc 1 532 5 is_stmt 1 view .LVU393
 1034              		.loc 1 532 8 is_stmt 0 view .LVU394
 1035 003a 002B     		cmp	r3, #0
 1036 003c 00D0     		beq	.L61
 533:external/drivers/stm32c0xx/src/stm32c0xx_hal_exti.c ****     {
 534:external/drivers/stm32c0xx/src/stm32c0xx_hal_exti.c ****       hexti->FallingCallback();
 1037              		.loc 1 534 7 is_stmt 1 view .LVU395
 1038 003e 9847     		blx	r3
 1039              	.LVL122:
 1040              	.L61:
 535:external/drivers/stm32c0xx/src/stm32c0xx_hal_exti.c ****     }
 536:external/drivers/stm32c0xx/src/stm32c0xx_hal_exti.c ****   }
 537:external/drivers/stm32c0xx/src/stm32c0xx_hal_exti.c **** }
 1041              		.loc 1 537 1 is_stmt 0 view .LVU396
 1042              		@ sp needed
 1043              	.LVL123:
 1044              	.LVL124:
 1045              	.LVL125:
 1046              		.loc 1 537 1 view .LVU397
 1047 0040 70BD     		pop	{r4, r5, r6, pc}
 1048              	.L75:
 1049 0042 C046     		.align	2
 1050              	.L74:
 1051 0044 0C180240 		.word	1073879052
 1052 0048 10180240 		.word	1073879056
 1053              		.cfi_endproc
 1054              	.LFE219:
 1056              		.section	.text.HAL_EXTI_GetPending,"ax",%progbits
 1057              		.align	1
 1058              		.p2align 2,,3
 1059              		.global	HAL_EXTI_GetPending
 1060              		.syntax unified
 1061              		.code	16
 1062              		.thumb_func
 1064              	HAL_EXTI_GetPending:
 1065              	.LVL126:
 1066              	.LFB220:
 538:external/drivers/stm32c0xx/src/stm32c0xx_hal_exti.c **** 
 539:external/drivers/stm32c0xx/src/stm32c0xx_hal_exti.c **** 
 540:external/drivers/stm32c0xx/src/stm32c0xx_hal_exti.c **** /**
 541:external/drivers/stm32c0xx/src/stm32c0xx_hal_exti.c ****   * @brief  Get interrupt pending bit of a dedicated line.
 542:external/drivers/stm32c0xx/src/stm32c0xx_hal_exti.c ****   * @param  hexti Exti handle.
 543:external/drivers/stm32c0xx/src/stm32c0xx_hal_exti.c ****   * @param  Edge Specify which pending edge as to be checked.
 544:external/drivers/stm32c0xx/src/stm32c0xx_hal_exti.c ****   *         This parameter can be one of the following values:
 545:external/drivers/stm32c0xx/src/stm32c0xx_hal_exti.c ****   *           @arg @ref EXTI_TRIGGER_RISING
 546:external/drivers/stm32c0xx/src/stm32c0xx_hal_exti.c ****   *           @arg @ref EXTI_TRIGGER_FALLING
 547:external/drivers/stm32c0xx/src/stm32c0xx_hal_exti.c ****   * @retval 1 if interrupt is pending else 0.
 548:external/drivers/stm32c0xx/src/stm32c0xx_hal_exti.c ****   */
ARM GAS  /tmp/ccItwm8l.s 			page 32


 549:external/drivers/stm32c0xx/src/stm32c0xx_hal_exti.c **** uint32_t HAL_EXTI_GetPending(const EXTI_HandleTypeDef *hexti, uint32_t Edge)
 550:external/drivers/stm32c0xx/src/stm32c0xx_hal_exti.c **** {
 1067              		.loc 1 550 1 is_stmt 1 view -0
 1068              		.cfi_startproc
 1069              		@ args = 0, pretend = 0, frame = 0
 1070              		@ frame_needed = 0, uses_anonymous_args = 0
 551:external/drivers/stm32c0xx/src/stm32c0xx_hal_exti.c ****   __IO uint32_t *regaddr;
 1071              		.loc 1 551 3 view .LVU399
 552:external/drivers/stm32c0xx/src/stm32c0xx_hal_exti.c ****   uint32_t regval;
 1072              		.loc 1 552 3 view .LVU400
 553:external/drivers/stm32c0xx/src/stm32c0xx_hal_exti.c ****   uint32_t linepos;
 1073              		.loc 1 553 3 view .LVU401
 554:external/drivers/stm32c0xx/src/stm32c0xx_hal_exti.c ****   uint32_t maskline;
 1074              		.loc 1 554 3 view .LVU402
 555:external/drivers/stm32c0xx/src/stm32c0xx_hal_exti.c ****   uint32_t offset;
 1075              		.loc 1 555 3 view .LVU403
 556:external/drivers/stm32c0xx/src/stm32c0xx_hal_exti.c **** 
 557:external/drivers/stm32c0xx/src/stm32c0xx_hal_exti.c ****   /* Check the parameters */
 558:external/drivers/stm32c0xx/src/stm32c0xx_hal_exti.c ****   assert_param(IS_EXTI_LINE(hexti->Line));
 1076              		.loc 1 558 3 view .LVU404
 559:external/drivers/stm32c0xx/src/stm32c0xx_hal_exti.c ****   assert_param(IS_EXTI_CONFIG_LINE(hexti->Line));
 1077              		.loc 1 559 3 view .LVU405
 560:external/drivers/stm32c0xx/src/stm32c0xx_hal_exti.c ****   assert_param(IS_EXTI_PENDING_EDGE(Edge));
 1078              		.loc 1 560 3 view .LVU406
 561:external/drivers/stm32c0xx/src/stm32c0xx_hal_exti.c **** 
 562:external/drivers/stm32c0xx/src/stm32c0xx_hal_exti.c ****   /* compute line register offset and line mask */
 563:external/drivers/stm32c0xx/src/stm32c0xx_hal_exti.c ****   offset = ((hexti->Line & EXTI_REG_MASK) >> EXTI_REG_SHIFT);
 1079              		.loc 1 563 3 view .LVU407
 564:external/drivers/stm32c0xx/src/stm32c0xx_hal_exti.c ****   linepos = (hexti->Line & EXTI_PIN_MASK);
 1080              		.loc 1 564 11 is_stmt 0 view .LVU408
 1081 0000 1F22     		movs	r2, #31
 550:external/drivers/stm32c0xx/src/stm32c0xx_hal_exti.c ****   __IO uint32_t *regaddr;
 1082              		.loc 1 550 1 view .LVU409
 1083 0002 10B5     		push	{r4, lr}
 1084              	.LCFI6:
 1085              		.cfi_def_cfa_offset 8
 1086              		.cfi_offset 4, -8
 1087              		.cfi_offset 14, -4
 563:external/drivers/stm32c0xx/src/stm32c0xx_hal_exti.c ****   linepos = (hexti->Line & EXTI_PIN_MASK);
 1088              		.loc 1 563 19 view .LVU410
 1089 0004 0468     		ldr	r4, [r0]
 563:external/drivers/stm32c0xx/src/stm32c0xx_hal_exti.c ****   linepos = (hexti->Line & EXTI_PIN_MASK);
 1090              		.loc 1 563 10 view .LVU411
 1091 0006 0120     		movs	r0, #1
 1092              	.LVL127:
 563:external/drivers/stm32c0xx/src/stm32c0xx_hal_exti.c ****   linepos = (hexti->Line & EXTI_PIN_MASK);
 1093              		.loc 1 563 43 view .LVU412
 1094 0008 230C     		lsrs	r3, r4, #16
 563:external/drivers/stm32c0xx/src/stm32c0xx_hal_exti.c ****   linepos = (hexti->Line & EXTI_PIN_MASK);
 1095              		.loc 1 563 10 view .LVU413
 1096 000a 0340     		ands	r3, r0
 1097              	.LVL128:
 1098              		.loc 1 564 3 is_stmt 1 view .LVU414
 1099              		.loc 1 564 11 is_stmt 0 view .LVU415
 1100 000c 2240     		ands	r2, r4
 1101              	.LVL129:
 565:external/drivers/stm32c0xx/src/stm32c0xx_hal_exti.c ****   maskline = (1UL << linepos);
ARM GAS  /tmp/ccItwm8l.s 			page 33


 1102              		.loc 1 565 3 is_stmt 1 view .LVU416
 1103              		.loc 1 565 12 is_stmt 0 view .LVU417
 1104 000e 9040     		lsls	r0, r0, r2
 1105              	.LVL130:
 566:external/drivers/stm32c0xx/src/stm32c0xx_hal_exti.c **** 
 567:external/drivers/stm32c0xx/src/stm32c0xx_hal_exti.c ****   if (Edge != EXTI_TRIGGER_RISING)
 1106              		.loc 1 567 3 is_stmt 1 view .LVU418
 568:external/drivers/stm32c0xx/src/stm32c0xx_hal_exti.c ****   {
 569:external/drivers/stm32c0xx/src/stm32c0xx_hal_exti.c ****     /* Get falling edge pending bit */
 570:external/drivers/stm32c0xx/src/stm32c0xx_hal_exti.c ****     regaddr = (__IO uint32_t *)(&EXTI->FPR1 + (EXTI_CONFIG_OFFSET * offset));
 1107              		.loc 1 570 15 is_stmt 0 view .LVU419
 1108 0010 5B01     		lsls	r3, r3, #5
 1109              	.LVL131:
 567:external/drivers/stm32c0xx/src/stm32c0xx_hal_exti.c ****   {
 1110              		.loc 1 567 6 view .LVU420
 1111 0012 0129     		cmp	r1, #1
 1112 0014 06D0     		beq	.L77
 1113              		.loc 1 570 5 is_stmt 1 view .LVU421
 1114              		.loc 1 570 13 is_stmt 0 view .LVU422
 1115 0016 0549     		ldr	r1, .L79
 1116              	.LVL132:
 1117              		.loc 1 570 13 view .LVU423
 1118 0018 8C46     		mov	ip, r1
 1119 001a 6344     		add	r3, r3, ip
 1120              	.LVL133:
 1121              	.L78:
 571:external/drivers/stm32c0xx/src/stm32c0xx_hal_exti.c ****   }
 572:external/drivers/stm32c0xx/src/stm32c0xx_hal_exti.c ****   else
 573:external/drivers/stm32c0xx/src/stm32c0xx_hal_exti.c ****   {
 574:external/drivers/stm32c0xx/src/stm32c0xx_hal_exti.c ****     /* Get rising edge pending bit */
 575:external/drivers/stm32c0xx/src/stm32c0xx_hal_exti.c ****     regaddr = (__IO uint32_t *)(&EXTI->RPR1 + (EXTI_CONFIG_OFFSET * offset));
 576:external/drivers/stm32c0xx/src/stm32c0xx_hal_exti.c ****   }
 577:external/drivers/stm32c0xx/src/stm32c0xx_hal_exti.c **** 
 578:external/drivers/stm32c0xx/src/stm32c0xx_hal_exti.c ****   /* return 1 if bit is set else 0 */
 579:external/drivers/stm32c0xx/src/stm32c0xx_hal_exti.c ****   regval = ((*regaddr & maskline) >> linepos);
 1122              		.loc 1 579 3 is_stmt 1 view .LVU424
 1123              		.loc 1 579 14 is_stmt 0 view .LVU425
 1124 001c 1B68     		ldr	r3, [r3]
 1125              	.LVL134:
 580:external/drivers/stm32c0xx/src/stm32c0xx_hal_exti.c ****   return regval;
 1126              		.loc 1 580 3 is_stmt 1 view .LVU426
 581:external/drivers/stm32c0xx/src/stm32c0xx_hal_exti.c **** }
 1127              		.loc 1 581 1 is_stmt 0 view .LVU427
 1128              		@ sp needed
 579:external/drivers/stm32c0xx/src/stm32c0xx_hal_exti.c ****   return regval;
 1129              		.loc 1 579 23 view .LVU428
 1130 001e 1840     		ands	r0, r3
 1131              	.LVL135:
 579:external/drivers/stm32c0xx/src/stm32c0xx_hal_exti.c ****   return regval;
 1132              		.loc 1 579 10 view .LVU429
 1133 0020 D040     		lsrs	r0, r0, r2
 1134              	.LVL136:
 1135              	.LVL137:
 1136              		.loc 1 581 1 view .LVU430
 1137 0022 10BD     		pop	{r4, pc}
 1138              	.LVL138:
 1139              	.L77:
ARM GAS  /tmp/ccItwm8l.s 			page 34


 575:external/drivers/stm32c0xx/src/stm32c0xx_hal_exti.c ****   }
 1140              		.loc 1 575 5 is_stmt 1 view .LVU431
 575:external/drivers/stm32c0xx/src/stm32c0xx_hal_exti.c ****   }
 1141              		.loc 1 575 13 is_stmt 0 view .LVU432
 1142 0024 0249     		ldr	r1, .L79+4
 1143              	.LVL139:
 575:external/drivers/stm32c0xx/src/stm32c0xx_hal_exti.c ****   }
 1144              		.loc 1 575 13 view .LVU433
 1145 0026 8C46     		mov	ip, r1
 1146 0028 6344     		add	r3, r3, ip
 1147              	.LVL140:
 575:external/drivers/stm32c0xx/src/stm32c0xx_hal_exti.c ****   }
 1148              		.loc 1 575 13 view .LVU434
 1149 002a F7E7     		b	.L78
 1150              	.L80:
 1151              		.align	2
 1152              	.L79:
 1153 002c 10180240 		.word	1073879056
 1154 0030 0C180240 		.word	1073879052
 1155              		.cfi_endproc
 1156              	.LFE220:
 1158              		.section	.text.HAL_EXTI_ClearPending,"ax",%progbits
 1159              		.align	1
 1160              		.p2align 2,,3
 1161              		.global	HAL_EXTI_ClearPending
 1162              		.syntax unified
 1163              		.code	16
 1164              		.thumb_func
 1166              	HAL_EXTI_ClearPending:
 1167              	.LVL141:
 1168              	.LFB221:
 582:external/drivers/stm32c0xx/src/stm32c0xx_hal_exti.c **** 
 583:external/drivers/stm32c0xx/src/stm32c0xx_hal_exti.c **** 
 584:external/drivers/stm32c0xx/src/stm32c0xx_hal_exti.c **** /**
 585:external/drivers/stm32c0xx/src/stm32c0xx_hal_exti.c ****   * @brief  Clear interrupt pending bit of a dedicated line.
 586:external/drivers/stm32c0xx/src/stm32c0xx_hal_exti.c ****   * @param  hexti Exti handle.
 587:external/drivers/stm32c0xx/src/stm32c0xx_hal_exti.c ****   * @param  Edge Specify which pending edge as to be clear.
 588:external/drivers/stm32c0xx/src/stm32c0xx_hal_exti.c ****   *         This parameter can be one of the following values:
 589:external/drivers/stm32c0xx/src/stm32c0xx_hal_exti.c ****   *           @arg @ref EXTI_TRIGGER_RISING
 590:external/drivers/stm32c0xx/src/stm32c0xx_hal_exti.c ****   *           @arg @ref EXTI_TRIGGER_FALLING
 591:external/drivers/stm32c0xx/src/stm32c0xx_hal_exti.c ****   * @retval None.
 592:external/drivers/stm32c0xx/src/stm32c0xx_hal_exti.c ****   */
 593:external/drivers/stm32c0xx/src/stm32c0xx_hal_exti.c **** void HAL_EXTI_ClearPending(const EXTI_HandleTypeDef *hexti, uint32_t Edge)
 594:external/drivers/stm32c0xx/src/stm32c0xx_hal_exti.c **** {
 1169              		.loc 1 594 1 is_stmt 1 view -0
 1170              		.cfi_startproc
 1171              		@ args = 0, pretend = 0, frame = 0
 1172              		@ frame_needed = 0, uses_anonymous_args = 0
 595:external/drivers/stm32c0xx/src/stm32c0xx_hal_exti.c ****   __IO uint32_t *regaddr;
 1173              		.loc 1 595 3 view .LVU436
 596:external/drivers/stm32c0xx/src/stm32c0xx_hal_exti.c ****   uint32_t maskline;
 1174              		.loc 1 596 3 view .LVU437
 597:external/drivers/stm32c0xx/src/stm32c0xx_hal_exti.c ****   uint32_t offset;
 1175              		.loc 1 597 3 view .LVU438
 598:external/drivers/stm32c0xx/src/stm32c0xx_hal_exti.c **** 
 599:external/drivers/stm32c0xx/src/stm32c0xx_hal_exti.c ****   /* Check the parameters */
 600:external/drivers/stm32c0xx/src/stm32c0xx_hal_exti.c ****   assert_param(IS_EXTI_LINE(hexti->Line));
ARM GAS  /tmp/ccItwm8l.s 			page 35


 1176              		.loc 1 600 3 view .LVU439
 601:external/drivers/stm32c0xx/src/stm32c0xx_hal_exti.c ****   assert_param(IS_EXTI_CONFIG_LINE(hexti->Line));
 1177              		.loc 1 601 3 view .LVU440
 602:external/drivers/stm32c0xx/src/stm32c0xx_hal_exti.c ****   assert_param(IS_EXTI_PENDING_EDGE(Edge));
 1178              		.loc 1 602 3 view .LVU441
 603:external/drivers/stm32c0xx/src/stm32c0xx_hal_exti.c **** 
 604:external/drivers/stm32c0xx/src/stm32c0xx_hal_exti.c ****   /* compute line register offset and line mask */
 605:external/drivers/stm32c0xx/src/stm32c0xx_hal_exti.c ****   offset = ((hexti->Line & EXTI_REG_MASK) >> EXTI_REG_SHIFT);
 1179              		.loc 1 605 3 view .LVU442
 1180              		.loc 1 605 10 is_stmt 0 view .LVU443
 1181 0000 0122     		movs	r2, #1
 594:external/drivers/stm32c0xx/src/stm32c0xx_hal_exti.c ****   __IO uint32_t *regaddr;
 1182              		.loc 1 594 1 view .LVU444
 1183 0002 10B5     		push	{r4, lr}
 1184              	.LCFI7:
 1185              		.cfi_def_cfa_offset 8
 1186              		.cfi_offset 4, -8
 1187              		.cfi_offset 14, -4
 1188              		.loc 1 605 19 view .LVU445
 1189 0004 0468     		ldr	r4, [r0]
 606:external/drivers/stm32c0xx/src/stm32c0xx_hal_exti.c ****   maskline = (1UL << (hexti->Line & EXTI_PIN_MASK));
 1190              		.loc 1 606 35 view .LVU446
 1191 0006 1F20     		movs	r0, #31
 1192              	.LVL142:
 605:external/drivers/stm32c0xx/src/stm32c0xx_hal_exti.c ****   maskline = (1UL << (hexti->Line & EXTI_PIN_MASK));
 1193              		.loc 1 605 43 view .LVU447
 1194 0008 230C     		lsrs	r3, r4, #16
 605:external/drivers/stm32c0xx/src/stm32c0xx_hal_exti.c ****   maskline = (1UL << (hexti->Line & EXTI_PIN_MASK));
 1195              		.loc 1 605 10 view .LVU448
 1196 000a 1340     		ands	r3, r2
 1197              	.LVL143:
 1198              		.loc 1 606 3 is_stmt 1 view .LVU449
 1199              		.loc 1 606 35 is_stmt 0 view .LVU450
 1200 000c 2040     		ands	r0, r4
 1201              		.loc 1 606 12 view .LVU451
 1202 000e 8240     		lsls	r2, r2, r0
 1203              	.LVL144:
 607:external/drivers/stm32c0xx/src/stm32c0xx_hal_exti.c **** 
 608:external/drivers/stm32c0xx/src/stm32c0xx_hal_exti.c ****   if (Edge != EXTI_TRIGGER_RISING)
 1204              		.loc 1 608 3 is_stmt 1 view .LVU452
 609:external/drivers/stm32c0xx/src/stm32c0xx_hal_exti.c ****   {
 610:external/drivers/stm32c0xx/src/stm32c0xx_hal_exti.c ****     /* Get falling edge pending register address */
 611:external/drivers/stm32c0xx/src/stm32c0xx_hal_exti.c ****     regaddr = (__IO uint32_t *)(&EXTI->FPR1 + (EXTI_CONFIG_OFFSET * offset));
 1205              		.loc 1 611 15 is_stmt 0 view .LVU453
 1206 0010 5B01     		lsls	r3, r3, #5
 1207              	.LVL145:
 608:external/drivers/stm32c0xx/src/stm32c0xx_hal_exti.c ****   {
 1208              		.loc 1 608 6 view .LVU454
 1209 0012 0129     		cmp	r1, #1
 1210 0014 04D0     		beq	.L82
 1211              		.loc 1 611 5 is_stmt 1 view .LVU455
 1212              		.loc 1 611 13 is_stmt 0 view .LVU456
 1213 0016 0449     		ldr	r1, .L84
 1214              	.LVL146:
 1215              		.loc 1 611 13 view .LVU457
 1216 0018 8C46     		mov	ip, r1
 1217 001a 6344     		add	r3, r3, ip
ARM GAS  /tmp/ccItwm8l.s 			page 36


 1218              	.LVL147:
 1219              	.L83:
 612:external/drivers/stm32c0xx/src/stm32c0xx_hal_exti.c ****   }
 613:external/drivers/stm32c0xx/src/stm32c0xx_hal_exti.c ****   else
 614:external/drivers/stm32c0xx/src/stm32c0xx_hal_exti.c ****   {
 615:external/drivers/stm32c0xx/src/stm32c0xx_hal_exti.c ****     /* Get falling edge pending register address */
 616:external/drivers/stm32c0xx/src/stm32c0xx_hal_exti.c ****     regaddr = (__IO uint32_t *)(&EXTI->RPR1 + (EXTI_CONFIG_OFFSET * offset));
 617:external/drivers/stm32c0xx/src/stm32c0xx_hal_exti.c ****   }
 618:external/drivers/stm32c0xx/src/stm32c0xx_hal_exti.c **** 
 619:external/drivers/stm32c0xx/src/stm32c0xx_hal_exti.c ****   /* Clear Pending bit */
 620:external/drivers/stm32c0xx/src/stm32c0xx_hal_exti.c ****   *regaddr =  maskline;
 1220              		.loc 1 620 3 is_stmt 1 view .LVU458
 1221              		.loc 1 620 12 is_stmt 0 view .LVU459
 1222 001c 1A60     		str	r2, [r3]
 621:external/drivers/stm32c0xx/src/stm32c0xx_hal_exti.c **** }
 1223              		.loc 1 621 1 view .LVU460
 1224              		@ sp needed
 1225              	.LVL148:
 1226              		.loc 1 621 1 view .LVU461
 1227 001e 10BD     		pop	{r4, pc}
 1228              	.LVL149:
 1229              	.L82:
 616:external/drivers/stm32c0xx/src/stm32c0xx_hal_exti.c ****   }
 1230              		.loc 1 616 5 is_stmt 1 view .LVU462
 616:external/drivers/stm32c0xx/src/stm32c0xx_hal_exti.c ****   }
 1231              		.loc 1 616 13 is_stmt 0 view .LVU463
 1232 0020 0249     		ldr	r1, .L84+4
 1233              	.LVL150:
 616:external/drivers/stm32c0xx/src/stm32c0xx_hal_exti.c ****   }
 1234              		.loc 1 616 13 view .LVU464
 1235 0022 8C46     		mov	ip, r1
 1236 0024 6344     		add	r3, r3, ip
 1237              	.LVL151:
 616:external/drivers/stm32c0xx/src/stm32c0xx_hal_exti.c ****   }
 1238              		.loc 1 616 13 view .LVU465
 1239 0026 F9E7     		b	.L83
 1240              	.L85:
 1241              		.align	2
 1242              	.L84:
 1243 0028 10180240 		.word	1073879056
 1244 002c 0C180240 		.word	1073879052
 1245              		.cfi_endproc
 1246              	.LFE221:
 1248              		.section	.text.HAL_EXTI_GenerateSWI,"ax",%progbits
 1249              		.align	1
 1250              		.p2align 2,,3
 1251              		.global	HAL_EXTI_GenerateSWI
 1252              		.syntax unified
 1253              		.code	16
 1254              		.thumb_func
 1256              	HAL_EXTI_GenerateSWI:
 1257              	.LVL152:
 1258              	.LFB222:
 622:external/drivers/stm32c0xx/src/stm32c0xx_hal_exti.c **** 
 623:external/drivers/stm32c0xx/src/stm32c0xx_hal_exti.c **** 
 624:external/drivers/stm32c0xx/src/stm32c0xx_hal_exti.c **** /**
 625:external/drivers/stm32c0xx/src/stm32c0xx_hal_exti.c ****   * @brief  Generate a software interrupt for a dedicated line.
ARM GAS  /tmp/ccItwm8l.s 			page 37


 626:external/drivers/stm32c0xx/src/stm32c0xx_hal_exti.c ****   * @param  hexti Exti handle.
 627:external/drivers/stm32c0xx/src/stm32c0xx_hal_exti.c ****   * @retval None.
 628:external/drivers/stm32c0xx/src/stm32c0xx_hal_exti.c ****   */
 629:external/drivers/stm32c0xx/src/stm32c0xx_hal_exti.c **** void HAL_EXTI_GenerateSWI(const EXTI_HandleTypeDef *hexti)
 630:external/drivers/stm32c0xx/src/stm32c0xx_hal_exti.c **** {
 1259              		.loc 1 630 1 is_stmt 1 view -0
 1260              		.cfi_startproc
 1261              		@ args = 0, pretend = 0, frame = 0
 1262              		@ frame_needed = 0, uses_anonymous_args = 0
 1263              		@ link register save eliminated.
 631:external/drivers/stm32c0xx/src/stm32c0xx_hal_exti.c ****   __IO uint32_t *regaddr;
 1264              		.loc 1 631 3 view .LVU467
 632:external/drivers/stm32c0xx/src/stm32c0xx_hal_exti.c ****   uint32_t maskline;
 1265              		.loc 1 632 3 view .LVU468
 633:external/drivers/stm32c0xx/src/stm32c0xx_hal_exti.c ****   uint32_t offset;
 1266              		.loc 1 633 3 view .LVU469
 634:external/drivers/stm32c0xx/src/stm32c0xx_hal_exti.c **** 
 635:external/drivers/stm32c0xx/src/stm32c0xx_hal_exti.c ****   /* Check the parameters */
 636:external/drivers/stm32c0xx/src/stm32c0xx_hal_exti.c ****   assert_param(IS_EXTI_LINE(hexti->Line));
 1267              		.loc 1 636 3 view .LVU470
 637:external/drivers/stm32c0xx/src/stm32c0xx_hal_exti.c ****   assert_param(IS_EXTI_CONFIG_LINE(hexti->Line));
 1268              		.loc 1 637 3 view .LVU471
 638:external/drivers/stm32c0xx/src/stm32c0xx_hal_exti.c **** 
 639:external/drivers/stm32c0xx/src/stm32c0xx_hal_exti.c ****   /* compute line register offset and line mask */
 640:external/drivers/stm32c0xx/src/stm32c0xx_hal_exti.c ****   offset = ((hexti->Line & EXTI_REG_MASK) >> EXTI_REG_SHIFT);
 1269              		.loc 1 640 3 view .LVU472
 641:external/drivers/stm32c0xx/src/stm32c0xx_hal_exti.c ****   maskline = (1UL << (hexti->Line & EXTI_PIN_MASK));
 1270              		.loc 1 641 12 is_stmt 0 view .LVU473
 1271 0000 0123     		movs	r3, #1
 642:external/drivers/stm32c0xx/src/stm32c0xx_hal_exti.c **** 
 643:external/drivers/stm32c0xx/src/stm32c0xx_hal_exti.c ****   regaddr = (__IO uint32_t *)(&EXTI->SWIER1 + (EXTI_CONFIG_OFFSET * offset));
 644:external/drivers/stm32c0xx/src/stm32c0xx_hal_exti.c ****   *regaddr = maskline;
 645:external/drivers/stm32c0xx/src/stm32c0xx_hal_exti.c **** }
 1272              		.loc 1 645 1 view .LVU474
 1273              		@ sp needed
 641:external/drivers/stm32c0xx/src/stm32c0xx_hal_exti.c ****   maskline = (1UL << (hexti->Line & EXTI_PIN_MASK));
 1274              		.loc 1 641 35 view .LVU475
 1275 0002 1F21     		movs	r1, #31
 640:external/drivers/stm32c0xx/src/stm32c0xx_hal_exti.c ****   maskline = (1UL << (hexti->Line & EXTI_PIN_MASK));
 1276              		.loc 1 640 19 view .LVU476
 1277 0004 0268     		ldr	r2, [r0]
 1278              	.LVL153:
 641:external/drivers/stm32c0xx/src/stm32c0xx_hal_exti.c ****   maskline = (1UL << (hexti->Line & EXTI_PIN_MASK));
 1279              		.loc 1 641 3 is_stmt 1 view .LVU477
 641:external/drivers/stm32c0xx/src/stm32c0xx_hal_exti.c ****   maskline = (1UL << (hexti->Line & EXTI_PIN_MASK));
 1280              		.loc 1 641 12 is_stmt 0 view .LVU478
 1281 0006 1800     		movs	r0, r3
 1282              	.LVL154:
 641:external/drivers/stm32c0xx/src/stm32c0xx_hal_exti.c ****   maskline = (1UL << (hexti->Line & EXTI_PIN_MASK));
 1283              		.loc 1 641 35 view .LVU479
 1284 0008 1140     		ands	r1, r2
 640:external/drivers/stm32c0xx/src/stm32c0xx_hal_exti.c ****   maskline = (1UL << (hexti->Line & EXTI_PIN_MASK));
 1285              		.loc 1 640 43 view .LVU480
 1286 000a 120C     		lsrs	r2, r2, #16
 1287              	.LVL155:
 640:external/drivers/stm32c0xx/src/stm32c0xx_hal_exti.c ****   maskline = (1UL << (hexti->Line & EXTI_PIN_MASK));
 1288              		.loc 1 640 10 view .LVU481
ARM GAS  /tmp/ccItwm8l.s 			page 38


 1289 000c 1340     		ands	r3, r2
 1290              	.LVL156:
 643:external/drivers/stm32c0xx/src/stm32c0xx_hal_exti.c ****   *regaddr = maskline;
 1291              		.loc 1 643 11 view .LVU482
 1292 000e 034A     		ldr	r2, .L87
 641:external/drivers/stm32c0xx/src/stm32c0xx_hal_exti.c **** 
 1293              		.loc 1 641 12 view .LVU483
 1294 0010 8840     		lsls	r0, r0, r1
 1295              	.LVL157:
 643:external/drivers/stm32c0xx/src/stm32c0xx_hal_exti.c ****   *regaddr = maskline;
 1296              		.loc 1 643 3 is_stmt 1 view .LVU484
 643:external/drivers/stm32c0xx/src/stm32c0xx_hal_exti.c ****   *regaddr = maskline;
 1297              		.loc 1 643 11 is_stmt 0 view .LVU485
 1298 0012 9446     		mov	ip, r2
 643:external/drivers/stm32c0xx/src/stm32c0xx_hal_exti.c ****   *regaddr = maskline;
 1299              		.loc 1 643 13 view .LVU486
 1300 0014 5B01     		lsls	r3, r3, #5
 1301              	.LVL158:
 643:external/drivers/stm32c0xx/src/stm32c0xx_hal_exti.c ****   *regaddr = maskline;
 1302              		.loc 1 643 11 view .LVU487
 1303 0016 6344     		add	r3, r3, ip
 1304              	.LVL159:
 644:external/drivers/stm32c0xx/src/stm32c0xx_hal_exti.c **** }
 1305              		.loc 1 644 3 is_stmt 1 view .LVU488
 644:external/drivers/stm32c0xx/src/stm32c0xx_hal_exti.c **** }
 1306              		.loc 1 644 12 is_stmt 0 view .LVU489
 1307 0018 1860     		str	r0, [r3]
 1308              	.LVL160:
 1309              		.loc 1 645 1 view .LVU490
 1310 001a 7047     		bx	lr
 1311              	.L88:
 1312              		.align	2
 1313              	.L87:
 1314 001c 08180240 		.word	1073879048
 1315              		.cfi_endproc
 1316              	.LFE222:
 1318              		.text
 1319              	.Letext0:
 1320              		.file 2 "external/drivers/cmsis/include/stm32c031xx.h"
 1321              		.file 3 "/usr/lib/gcc/arm-none-eabi/12.2.1/include/stdint.h"
 1322              		.file 4 "external/drivers/stm32c0xx/include/stm32c0xx_hal_def.h"
 1323              		.file 5 "external/drivers/stm32c0xx/include/stm32c0xx_hal_exti.h"
ARM GAS  /tmp/ccItwm8l.s 			page 39

