ARM GAS  /tmp/ccmyXNLq.s 			page 1


   1              		.cpu cortex-m0plus
   2              		.arch armv6s-m
   3              		.fpu softvfp
   4              		.eabi_attribute 20, 1
   5              		.eabi_attribute 21, 1
   6              		.eabi_attribute 23, 3
   7              		.eabi_attribute 24, 1
   8              		.eabi_attribute 25, 1
   9              		.eabi_attribute 26, 1
  10              		.eabi_attribute 30, 2
  11              		.eabi_attribute 34, 0
  12              		.eabi_attribute 18, 4
  13              		.file	"stm32c0xx_hal_dma_ex.c"
  14              		.text
  15              	.Ltext0:
  16              		.cfi_sections	.debug_frame
  17              		.file 1 "external/drivers/stm32c0xx/src/stm32c0xx_hal_dma_ex.c"
  18              		.section	.text.HAL_DMAEx_ConfigMuxSync,"ax",%progbits
  19              		.align	1
  20              		.p2align 2,,3
  21              		.global	HAL_DMAEx_ConfigMuxSync
  22              		.syntax unified
  23              		.code	16
  24              		.thumb_func
  26              	HAL_DMAEx_ConfigMuxSync:
  27              	.LVL0:
  28              	.LFB214:
   1:external/drivers/stm32c0xx/src/stm32c0xx_hal_dma_ex.c **** /**
   2:external/drivers/stm32c0xx/src/stm32c0xx_hal_dma_ex.c ****   ******************************************************************************
   3:external/drivers/stm32c0xx/src/stm32c0xx_hal_dma_ex.c ****   * @file    stm32c0xx_hal_dma_ex.c
   4:external/drivers/stm32c0xx/src/stm32c0xx_hal_dma_ex.c ****   * @author  MCD Application Team
   5:external/drivers/stm32c0xx/src/stm32c0xx_hal_dma_ex.c ****   * @brief   DMA Extension HAL module driver
   6:external/drivers/stm32c0xx/src/stm32c0xx_hal_dma_ex.c ****   *         This file provides firmware functions to manage the following
   7:external/drivers/stm32c0xx/src/stm32c0xx_hal_dma_ex.c ****   *         functionalities of the DMA Extension peripheral:
   8:external/drivers/stm32c0xx/src/stm32c0xx_hal_dma_ex.c ****   *           + Extended features functions
   9:external/drivers/stm32c0xx/src/stm32c0xx_hal_dma_ex.c ****   *
  10:external/drivers/stm32c0xx/src/stm32c0xx_hal_dma_ex.c ****   @verbatim
  11:external/drivers/stm32c0xx/src/stm32c0xx_hal_dma_ex.c ****   ******************************************************************************
  12:external/drivers/stm32c0xx/src/stm32c0xx_hal_dma_ex.c ****   * @attention
  13:external/drivers/stm32c0xx/src/stm32c0xx_hal_dma_ex.c ****   *
  14:external/drivers/stm32c0xx/src/stm32c0xx_hal_dma_ex.c ****   * Copyright (c) 2022 STMicroelectronics.
  15:external/drivers/stm32c0xx/src/stm32c0xx_hal_dma_ex.c ****   * All rights reserved.
  16:external/drivers/stm32c0xx/src/stm32c0xx_hal_dma_ex.c ****   *
  17:external/drivers/stm32c0xx/src/stm32c0xx_hal_dma_ex.c ****   * This software is licensed under terms that can be found in the LICENSE file
  18:external/drivers/stm32c0xx/src/stm32c0xx_hal_dma_ex.c ****   * in the root directory of this software component.
  19:external/drivers/stm32c0xx/src/stm32c0xx_hal_dma_ex.c ****   * If no LICENSE file comes with this software, it is provided AS-IS.
  20:external/drivers/stm32c0xx/src/stm32c0xx_hal_dma_ex.c ****   *
  21:external/drivers/stm32c0xx/src/stm32c0xx_hal_dma_ex.c ****   ******************************************************************************
  22:external/drivers/stm32c0xx/src/stm32c0xx_hal_dma_ex.c ****   ==============================================================================
  23:external/drivers/stm32c0xx/src/stm32c0xx_hal_dma_ex.c ****                         ##### How to use this driver #####
  24:external/drivers/stm32c0xx/src/stm32c0xx_hal_dma_ex.c ****   ==============================================================================
  25:external/drivers/stm32c0xx/src/stm32c0xx_hal_dma_ex.c ****   [..]
  26:external/drivers/stm32c0xx/src/stm32c0xx_hal_dma_ex.c ****   The DMA Extension HAL driver can be used as follows:
  27:external/drivers/stm32c0xx/src/stm32c0xx_hal_dma_ex.c **** 
  28:external/drivers/stm32c0xx/src/stm32c0xx_hal_dma_ex.c ****    (+) Configure the DMA_MUX Synchronization Block using HAL_DMAEx_ConfigMuxSync function.
  29:external/drivers/stm32c0xx/src/stm32c0xx_hal_dma_ex.c ****    (+) Configure the DMA_MUX Request Generator Block using HAL_DMAEx_ConfigMuxRequestGenerator func
  30:external/drivers/stm32c0xx/src/stm32c0xx_hal_dma_ex.c ****        Functions HAL_DMAEx_EnableMuxRequestGenerator and HAL_DMAEx_DisableMuxRequestGenerator can t
ARM GAS  /tmp/ccmyXNLq.s 			page 2


  31:external/drivers/stm32c0xx/src/stm32c0xx_hal_dma_ex.c ****        to respectively enable/disable the request generator.
  32:external/drivers/stm32c0xx/src/stm32c0xx_hal_dma_ex.c **** 
  33:external/drivers/stm32c0xx/src/stm32c0xx_hal_dma_ex.c ****    (+) To handle the DMAMUX Interrupts, the function  HAL_DMAEx_MUX_IRQHandler should be called fro
  34:external/drivers/stm32c0xx/src/stm32c0xx_hal_dma_ex.c ****        the DMAMUX IRQ handler i.e DMAMUX1_OVR_IRQHandler.
  35:external/drivers/stm32c0xx/src/stm32c0xx_hal_dma_ex.c ****        As only one interrupt line is available for all DMAMUX channels and request generators , HAL
  36:external/drivers/stm32c0xx/src/stm32c0xx_hal_dma_ex.c ****        should be called with, as parameter, the appropriate DMA handle as many as used DMAs in the 
  37:external/drivers/stm32c0xx/src/stm32c0xx_hal_dma_ex.c ****       (exception done if a given DMA is not using the DMAMUX SYNC block neither a request generator
  38:external/drivers/stm32c0xx/src/stm32c0xx_hal_dma_ex.c **** 
  39:external/drivers/stm32c0xx/src/stm32c0xx_hal_dma_ex.c ****   @endverbatim
  40:external/drivers/stm32c0xx/src/stm32c0xx_hal_dma_ex.c ****   */
  41:external/drivers/stm32c0xx/src/stm32c0xx_hal_dma_ex.c **** 
  42:external/drivers/stm32c0xx/src/stm32c0xx_hal_dma_ex.c **** /* Includes ------------------------------------------------------------------*/
  43:external/drivers/stm32c0xx/src/stm32c0xx_hal_dma_ex.c **** #include "stm32c0xx_hal.h"
  44:external/drivers/stm32c0xx/src/stm32c0xx_hal_dma_ex.c **** 
  45:external/drivers/stm32c0xx/src/stm32c0xx_hal_dma_ex.c **** /** @addtogroup STM32C0xx_HAL_Driver
  46:external/drivers/stm32c0xx/src/stm32c0xx_hal_dma_ex.c ****   * @{
  47:external/drivers/stm32c0xx/src/stm32c0xx_hal_dma_ex.c ****   */
  48:external/drivers/stm32c0xx/src/stm32c0xx_hal_dma_ex.c **** 
  49:external/drivers/stm32c0xx/src/stm32c0xx_hal_dma_ex.c **** /** @defgroup DMAEx DMAEx
  50:external/drivers/stm32c0xx/src/stm32c0xx_hal_dma_ex.c ****   * @brief DMA Extended HAL module driver
  51:external/drivers/stm32c0xx/src/stm32c0xx_hal_dma_ex.c ****   * @{
  52:external/drivers/stm32c0xx/src/stm32c0xx_hal_dma_ex.c ****   */
  53:external/drivers/stm32c0xx/src/stm32c0xx_hal_dma_ex.c **** 
  54:external/drivers/stm32c0xx/src/stm32c0xx_hal_dma_ex.c **** #ifdef HAL_DMA_MODULE_ENABLED
  55:external/drivers/stm32c0xx/src/stm32c0xx_hal_dma_ex.c **** 
  56:external/drivers/stm32c0xx/src/stm32c0xx_hal_dma_ex.c **** /* Private typedef -----------------------------------------------------------*/
  57:external/drivers/stm32c0xx/src/stm32c0xx_hal_dma_ex.c **** /* Private define ------------------------------------------------------------*/
  58:external/drivers/stm32c0xx/src/stm32c0xx_hal_dma_ex.c **** /* Private macro -------------------------------------------------------------*/
  59:external/drivers/stm32c0xx/src/stm32c0xx_hal_dma_ex.c **** /* Private variables ---------------------------------------------------------*/
  60:external/drivers/stm32c0xx/src/stm32c0xx_hal_dma_ex.c **** /* Private Constants ---------------------------------------------------------*/
  61:external/drivers/stm32c0xx/src/stm32c0xx_hal_dma_ex.c **** /* Private function prototypes -----------------------------------------------*/
  62:external/drivers/stm32c0xx/src/stm32c0xx_hal_dma_ex.c **** /* Private functions ---------------------------------------------------------*/
  63:external/drivers/stm32c0xx/src/stm32c0xx_hal_dma_ex.c **** 
  64:external/drivers/stm32c0xx/src/stm32c0xx_hal_dma_ex.c **** 
  65:external/drivers/stm32c0xx/src/stm32c0xx_hal_dma_ex.c **** /** @defgroup DMAEx_Exported_Functions DMAEx Exported Functions
  66:external/drivers/stm32c0xx/src/stm32c0xx_hal_dma_ex.c ****   * @{
  67:external/drivers/stm32c0xx/src/stm32c0xx_hal_dma_ex.c ****   */
  68:external/drivers/stm32c0xx/src/stm32c0xx_hal_dma_ex.c **** 
  69:external/drivers/stm32c0xx/src/stm32c0xx_hal_dma_ex.c **** /** @defgroup DMAEx_Exported_Functions_Group1 DMAEx Extended features functions
  70:external/drivers/stm32c0xx/src/stm32c0xx_hal_dma_ex.c ****   *  @brief   Extended features functions
  71:external/drivers/stm32c0xx/src/stm32c0xx_hal_dma_ex.c ****   *
  72:external/drivers/stm32c0xx/src/stm32c0xx_hal_dma_ex.c **** @verbatim
  73:external/drivers/stm32c0xx/src/stm32c0xx_hal_dma_ex.c ****  ===============================================================================
  74:external/drivers/stm32c0xx/src/stm32c0xx_hal_dma_ex.c ****                 #####  Extended features functions  #####
  75:external/drivers/stm32c0xx/src/stm32c0xx_hal_dma_ex.c ****  ===============================================================================
  76:external/drivers/stm32c0xx/src/stm32c0xx_hal_dma_ex.c ****     [..]  This section provides functions allowing to:
  77:external/drivers/stm32c0xx/src/stm32c0xx_hal_dma_ex.c **** 
  78:external/drivers/stm32c0xx/src/stm32c0xx_hal_dma_ex.c ****     (+) Configure the DMA_MUX Synchronization Block using HAL_DMAEx_ConfigMuxSync function.
  79:external/drivers/stm32c0xx/src/stm32c0xx_hal_dma_ex.c ****     (+) Configure the DMA_MUX Request Generator Block using HAL_DMAEx_ConfigMuxRequestGenerator fun
  80:external/drivers/stm32c0xx/src/stm32c0xx_hal_dma_ex.c ****        Functions HAL_DMAEx_EnableMuxRequestGenerator and HAL_DMAEx_DisableMuxRequestGenerator can t
  81:external/drivers/stm32c0xx/src/stm32c0xx_hal_dma_ex.c ****        to respectively enable/disable the request generator.
  82:external/drivers/stm32c0xx/src/stm32c0xx_hal_dma_ex.c **** 
  83:external/drivers/stm32c0xx/src/stm32c0xx_hal_dma_ex.c **** @endverbatim
  84:external/drivers/stm32c0xx/src/stm32c0xx_hal_dma_ex.c ****   * @{
  85:external/drivers/stm32c0xx/src/stm32c0xx_hal_dma_ex.c ****   */
  86:external/drivers/stm32c0xx/src/stm32c0xx_hal_dma_ex.c **** 
  87:external/drivers/stm32c0xx/src/stm32c0xx_hal_dma_ex.c **** /**
ARM GAS  /tmp/ccmyXNLq.s 			page 3


  88:external/drivers/stm32c0xx/src/stm32c0xx_hal_dma_ex.c ****   * @brief  Configure the DMAMUX synchronization parameters for a given DMA channel (instance).
  89:external/drivers/stm32c0xx/src/stm32c0xx_hal_dma_ex.c ****   * @param  hdma Pointer to a DMA_HandleTypeDef structure that contains
  90:external/drivers/stm32c0xx/src/stm32c0xx_hal_dma_ex.c ****   *                     the configuration information for the specified DMA channel.
  91:external/drivers/stm32c0xx/src/stm32c0xx_hal_dma_ex.c ****   * @param  pSyncConfig Pointer to HAL_DMA_MuxSyncConfigTypeDef : contains the DMAMUX synchronizati
  92:external/drivers/stm32c0xx/src/stm32c0xx_hal_dma_ex.c ****   * @retval HAL status
  93:external/drivers/stm32c0xx/src/stm32c0xx_hal_dma_ex.c ****   */
  94:external/drivers/stm32c0xx/src/stm32c0xx_hal_dma_ex.c **** HAL_StatusTypeDef HAL_DMAEx_ConfigMuxSync(DMA_HandleTypeDef *hdma, HAL_DMA_MuxSyncConfigTypeDef *pS
  95:external/drivers/stm32c0xx/src/stm32c0xx_hal_dma_ex.c **** {
  29              		.loc 1 95 1 view -0
  30              		.cfi_startproc
  31              		@ args = 0, pretend = 0, frame = 0
  32              		@ frame_needed = 0, uses_anonymous_args = 0
  96:external/drivers/stm32c0xx/src/stm32c0xx_hal_dma_ex.c ****   /* Check the parameters */
  97:external/drivers/stm32c0xx/src/stm32c0xx_hal_dma_ex.c ****   assert_param(IS_DMA_ALL_INSTANCE(hdma->Instance));
  33              		.loc 1 97 3 view .LVU1
  98:external/drivers/stm32c0xx/src/stm32c0xx_hal_dma_ex.c **** 
  99:external/drivers/stm32c0xx/src/stm32c0xx_hal_dma_ex.c ****   assert_param(IS_DMAMUX_SYNC_SIGNAL_ID(pSyncConfig->SyncSignalID));
  34              		.loc 1 99 3 view .LVU2
 100:external/drivers/stm32c0xx/src/stm32c0xx_hal_dma_ex.c **** 
 101:external/drivers/stm32c0xx/src/stm32c0xx_hal_dma_ex.c ****   assert_param(IS_DMAMUX_SYNC_POLARITY(pSyncConfig-> SyncPolarity));
  35              		.loc 1 101 3 view .LVU3
 102:external/drivers/stm32c0xx/src/stm32c0xx_hal_dma_ex.c ****   assert_param(IS_DMAMUX_SYNC_STATE(pSyncConfig->SyncEnable));
  36              		.loc 1 102 3 view .LVU4
 103:external/drivers/stm32c0xx/src/stm32c0xx_hal_dma_ex.c ****   assert_param(IS_DMAMUX_SYNC_EVENT(pSyncConfig->EventEnable));
  37              		.loc 1 103 3 view .LVU5
 104:external/drivers/stm32c0xx/src/stm32c0xx_hal_dma_ex.c ****   assert_param(IS_DMAMUX_SYNC_REQUEST_NUMBER(pSyncConfig->RequestNumber));
  38              		.loc 1 104 3 view .LVU6
 105:external/drivers/stm32c0xx/src/stm32c0xx_hal_dma_ex.c **** 
 106:external/drivers/stm32c0xx/src/stm32c0xx_hal_dma_ex.c ****   /*Check if the DMA state is ready */
 107:external/drivers/stm32c0xx/src/stm32c0xx_hal_dma_ex.c ****   if (hdma->State == HAL_DMA_STATE_READY)
  39              		.loc 1 107 3 view .LVU7
  40              		.loc 1 107 11 is_stmt 0 view .LVU8
  41 0000 2523     		movs	r3, #37
  95:external/drivers/stm32c0xx/src/stm32c0xx_hal_dma_ex.c ****   /* Check the parameters */
  42              		.loc 1 95 1 view .LVU9
  43 0002 70B5     		push	{r4, r5, r6, lr}
  44              	.LCFI0:
  45              		.cfi_def_cfa_offset 16
  46              		.cfi_offset 4, -16
  47              		.cfi_offset 5, -12
  48              		.cfi_offset 6, -8
  49              		.cfi_offset 14, -4
  50              		.loc 1 107 11 view .LVU10
  51 0004 C35C     		ldrb	r3, [r0, r3]
  95:external/drivers/stm32c0xx/src/stm32c0xx_hal_dma_ex.c ****   /* Check the parameters */
  52              		.loc 1 95 1 view .LVU11
  53 0006 0200     		movs	r2, r0
 108:external/drivers/stm32c0xx/src/stm32c0xx_hal_dma_ex.c ****   {
 109:external/drivers/stm32c0xx/src/stm32c0xx_hal_dma_ex.c ****     /* Process Locked */
 110:external/drivers/stm32c0xx/src/stm32c0xx_hal_dma_ex.c ****     __HAL_LOCK(hdma);
 111:external/drivers/stm32c0xx/src/stm32c0xx_hal_dma_ex.c **** 
 112:external/drivers/stm32c0xx/src/stm32c0xx_hal_dma_ex.c ****     /* Set the new synchronization parameters (and keep the request ID filled during the Init)*/
 113:external/drivers/stm32c0xx/src/stm32c0xx_hal_dma_ex.c ****     MODIFY_REG(hdma->DMAmuxChannel->CCR, \
 114:external/drivers/stm32c0xx/src/stm32c0xx_hal_dma_ex.c ****                (~DMAMUX_CxCR_DMAREQ_ID), \
 115:external/drivers/stm32c0xx/src/stm32c0xx_hal_dma_ex.c ****                ((pSyncConfig->SyncSignalID) << DMAMUX_CxCR_SYNC_ID_Pos) | ((pSyncConfig->RequestNum
 116:external/drivers/stm32c0xx/src/stm32c0xx_hal_dma_ex.c ****                                                                            DMAMUX_CxCR_NBREQ_Pos) |
 117:external/drivers/stm32c0xx/src/stm32c0xx_hal_dma_ex.c ****                pSyncConfig->SyncPolarity | \
ARM GAS  /tmp/ccmyXNLq.s 			page 4


 118:external/drivers/stm32c0xx/src/stm32c0xx_hal_dma_ex.c ****                ((uint32_t)pSyncConfig->SyncEnable << \
 119:external/drivers/stm32c0xx/src/stm32c0xx_hal_dma_ex.c ****                 DMAMUX_CxCR_SE_Pos) | \
 120:external/drivers/stm32c0xx/src/stm32c0xx_hal_dma_ex.c ****                ((uint32_t)pSyncConfig->EventEnable << \
 121:external/drivers/stm32c0xx/src/stm32c0xx_hal_dma_ex.c ****                 DMAMUX_CxCR_EGE_Pos));
 122:external/drivers/stm32c0xx/src/stm32c0xx_hal_dma_ex.c **** 
 123:external/drivers/stm32c0xx/src/stm32c0xx_hal_dma_ex.c ****     /* Process UnLocked */
 124:external/drivers/stm32c0xx/src/stm32c0xx_hal_dma_ex.c ****     __HAL_UNLOCK(hdma);
 125:external/drivers/stm32c0xx/src/stm32c0xx_hal_dma_ex.c **** 
 126:external/drivers/stm32c0xx/src/stm32c0xx_hal_dma_ex.c ****     return HAL_OK;
 127:external/drivers/stm32c0xx/src/stm32c0xx_hal_dma_ex.c ****   }
 128:external/drivers/stm32c0xx/src/stm32c0xx_hal_dma_ex.c ****   else
 129:external/drivers/stm32c0xx/src/stm32c0xx_hal_dma_ex.c ****   {
 130:external/drivers/stm32c0xx/src/stm32c0xx_hal_dma_ex.c ****     /*DMA State not Ready*/
 131:external/drivers/stm32c0xx/src/stm32c0xx_hal_dma_ex.c ****     return HAL_ERROR;
  54              		.loc 1 131 12 view .LVU12
  55 0008 0120     		movs	r0, #1
  56              	.LVL1:
 107:external/drivers/stm32c0xx/src/stm32c0xx_hal_dma_ex.c ****   {
  57              		.loc 1 107 6 view .LVU13
  58 000a 012B     		cmp	r3, #1
  59 000c 1AD1     		bne	.L2
 110:external/drivers/stm32c0xx/src/stm32c0xx_hal_dma_ex.c **** 
  60              		.loc 1 110 5 is_stmt 1 view .LVU14
 110:external/drivers/stm32c0xx/src/stm32c0xx_hal_dma_ex.c **** 
  61              		.loc 1 110 5 view .LVU15
  62 000e 2424     		movs	r4, #36
  63 0010 135D     		ldrb	r3, [r2, r4]
  64 0012 012B     		cmp	r3, #1
  65 0014 17D0     		beq	.L4
 110:external/drivers/stm32c0xx/src/stm32c0xx_hal_dma_ex.c **** 
  66              		.loc 1 110 5 discriminator 2 view .LVU16
 110:external/drivers/stm32c0xx/src/stm32c0xx_hal_dma_ex.c **** 
  67              		.loc 1 110 5 discriminator 2 view .LVU17
 113:external/drivers/stm32c0xx/src/stm32c0xx_hal_dma_ex.c ****                (~DMAMUX_CxCR_DMAREQ_ID), \
  68              		.loc 1 113 5 discriminator 2 view .LVU18
  69 0016 0B68     		ldr	r3, [r1]
  70 0018 4868     		ldr	r0, [r1, #4]
  71 001a 1B06     		lsls	r3, r3, #24
  72 001c 0343     		orrs	r3, r0
  73 001e C868     		ldr	r0, [r1, #12]
  74 0020 556C     		ldr	r5, [r2, #68]
  75 0022 0138     		subs	r0, r0, #1
  76 0024 C004     		lsls	r0, r0, #19
  77 0026 0343     		orrs	r3, r0
  78 0028 087A     		ldrb	r0, [r1, #8]
  79 002a 497A     		ldrb	r1, [r1, #9]
  80              	.LVL2:
 113:external/drivers/stm32c0xx/src/stm32c0xx_hal_dma_ex.c ****                (~DMAMUX_CxCR_DMAREQ_ID), \
  81              		.loc 1 113 5 is_stmt 0 discriminator 2 view .LVU19
  82 002c 0004     		lsls	r0, r0, #16
  83 002e 0343     		orrs	r3, r0
  84 0030 4902     		lsls	r1, r1, #9
  85 0032 0B43     		orrs	r3, r1
  86 0034 FF21     		movs	r1, #255
  87 0036 2E68     		ldr	r6, [r5]
 126:external/drivers/stm32c0xx/src/stm32c0xx_hal_dma_ex.c ****   }
  88              		.loc 1 126 12 discriminator 2 view .LVU20
ARM GAS  /tmp/ccmyXNLq.s 			page 5


  89 0038 0020     		movs	r0, #0
 113:external/drivers/stm32c0xx/src/stm32c0xx_hal_dma_ex.c ****                (~DMAMUX_CxCR_DMAREQ_ID), \
  90              		.loc 1 113 5 discriminator 2 view .LVU21
  91 003a 3140     		ands	r1, r6
  92 003c 0B43     		orrs	r3, r1
  93 003e 2B60     		str	r3, [r5]
 124:external/drivers/stm32c0xx/src/stm32c0xx_hal_dma_ex.c **** 
  94              		.loc 1 124 5 is_stmt 1 discriminator 2 view .LVU22
 124:external/drivers/stm32c0xx/src/stm32c0xx_hal_dma_ex.c **** 
  95              		.loc 1 124 5 discriminator 2 view .LVU23
  96 0040 0023     		movs	r3, #0
  97 0042 1355     		strb	r3, [r2, r4]
 124:external/drivers/stm32c0xx/src/stm32c0xx_hal_dma_ex.c **** 
  98              		.loc 1 124 5 discriminator 2 view .LVU24
 126:external/drivers/stm32c0xx/src/stm32c0xx_hal_dma_ex.c ****   }
  99              		.loc 1 126 5 discriminator 2 view .LVU25
 100              	.L2:
 132:external/drivers/stm32c0xx/src/stm32c0xx_hal_dma_ex.c ****   }
 133:external/drivers/stm32c0xx/src/stm32c0xx_hal_dma_ex.c **** }
 101              		.loc 1 133 1 is_stmt 0 view .LVU26
 102              		@ sp needed
 103 0044 70BD     		pop	{r4, r5, r6, pc}
 104              	.LVL3:
 105              	.L4:
 110:external/drivers/stm32c0xx/src/stm32c0xx_hal_dma_ex.c **** 
 106              		.loc 1 110 5 view .LVU27
 107 0046 0220     		movs	r0, #2
 108 0048 FCE7     		b	.L2
 109              		.cfi_endproc
 110              	.LFE214:
 112 004a C046     		.section	.text.HAL_DMAEx_ConfigMuxRequestGenerator,"ax",%progbits
 113              		.align	1
 114              		.p2align 2,,3
 115              		.global	HAL_DMAEx_ConfigMuxRequestGenerator
 116              		.syntax unified
 117              		.code	16
 118              		.thumb_func
 120              	HAL_DMAEx_ConfigMuxRequestGenerator:
 121              	.LVL4:
 122              	.LFB215:
 134:external/drivers/stm32c0xx/src/stm32c0xx_hal_dma_ex.c **** 
 135:external/drivers/stm32c0xx/src/stm32c0xx_hal_dma_ex.c **** /**
 136:external/drivers/stm32c0xx/src/stm32c0xx_hal_dma_ex.c ****   * @brief  Configure the DMAMUX request generator block used by the given DMA channel (instance).
 137:external/drivers/stm32c0xx/src/stm32c0xx_hal_dma_ex.c ****   * @param  hdma Pointer to a DMA_HandleTypeDef structure that contains
 138:external/drivers/stm32c0xx/src/stm32c0xx_hal_dma_ex.c ****   *                     the configuration information for the specified DMA channel.
 139:external/drivers/stm32c0xx/src/stm32c0xx_hal_dma_ex.c ****   * @param  pRequestGeneratorConfig Pointer to HAL_DMA_MuxRequestGeneratorConfigTypeDef :
 140:external/drivers/stm32c0xx/src/stm32c0xx_hal_dma_ex.c ****   *         contains the request generator parameters.
 141:external/drivers/stm32c0xx/src/stm32c0xx_hal_dma_ex.c ****   *
 142:external/drivers/stm32c0xx/src/stm32c0xx_hal_dma_ex.c ****   * @retval HAL status
 143:external/drivers/stm32c0xx/src/stm32c0xx_hal_dma_ex.c ****   */
 144:external/drivers/stm32c0xx/src/stm32c0xx_hal_dma_ex.c **** HAL_StatusTypeDef HAL_DMAEx_ConfigMuxRequestGenerator(DMA_HandleTypeDef *hdma,
 145:external/drivers/stm32c0xx/src/stm32c0xx_hal_dma_ex.c ****                                                       HAL_DMA_MuxRequestGeneratorConfigTypeDef *pRe
 146:external/drivers/stm32c0xx/src/stm32c0xx_hal_dma_ex.c **** {
 123              		.loc 1 146 1 is_stmt 1 view -0
 124              		.cfi_startproc
 125              		@ args = 0, pretend = 0, frame = 0
 126              		@ frame_needed = 0, uses_anonymous_args = 0
ARM GAS  /tmp/ccmyXNLq.s 			page 6


 147:external/drivers/stm32c0xx/src/stm32c0xx_hal_dma_ex.c ****   /* Check the parameters */
 148:external/drivers/stm32c0xx/src/stm32c0xx_hal_dma_ex.c ****   assert_param(IS_DMA_ALL_INSTANCE(hdma->Instance));
 127              		.loc 1 148 3 view .LVU29
 149:external/drivers/stm32c0xx/src/stm32c0xx_hal_dma_ex.c **** 
 150:external/drivers/stm32c0xx/src/stm32c0xx_hal_dma_ex.c ****   assert_param(IS_DMAMUX_REQUEST_GEN_SIGNAL_ID(pRequestGeneratorConfig->SignalID));
 128              		.loc 1 150 3 view .LVU30
 151:external/drivers/stm32c0xx/src/stm32c0xx_hal_dma_ex.c ****   assert_param(IS_DMAMUX_REQUEST_GEN_POLARITY(pRequestGeneratorConfig->Polarity));
 129              		.loc 1 151 3 view .LVU31
 152:external/drivers/stm32c0xx/src/stm32c0xx_hal_dma_ex.c ****   assert_param(IS_DMAMUX_REQUEST_GEN_REQUEST_NUMBER(pRequestGeneratorConfig->RequestNumber));
 130              		.loc 1 152 3 view .LVU32
 153:external/drivers/stm32c0xx/src/stm32c0xx_hal_dma_ex.c **** 
 154:external/drivers/stm32c0xx/src/stm32c0xx_hal_dma_ex.c ****   /* check if the DMA state is ready
 155:external/drivers/stm32c0xx/src/stm32c0xx_hal_dma_ex.c ****      and DMA is using a DMAMUX request generator block
 156:external/drivers/stm32c0xx/src/stm32c0xx_hal_dma_ex.c ****   */
 157:external/drivers/stm32c0xx/src/stm32c0xx_hal_dma_ex.c ****   if ((hdma->State == HAL_DMA_STATE_READY) && (hdma->DMAmuxRequestGen != 0U))
 131              		.loc 1 157 3 view .LVU33
 132              		.loc 1 157 12 is_stmt 0 view .LVU34
 133 0000 2522     		movs	r2, #37
 146:external/drivers/stm32c0xx/src/stm32c0xx_hal_dma_ex.c ****   /* Check the parameters */
 134              		.loc 1 146 1 view .LVU35
 135 0002 30B5     		push	{r4, r5, lr}
 136              	.LCFI1:
 137              		.cfi_def_cfa_offset 12
 138              		.cfi_offset 4, -12
 139              		.cfi_offset 5, -8
 140              		.cfi_offset 14, -4
 141              		.loc 1 157 12 view .LVU36
 142 0004 825C     		ldrb	r2, [r0, r2]
 146:external/drivers/stm32c0xx/src/stm32c0xx_hal_dma_ex.c ****   /* Check the parameters */
 143              		.loc 1 146 1 view .LVU37
 144 0006 0300     		movs	r3, r0
 145              		.loc 1 157 12 view .LVU38
 146 0008 D0B2     		uxtb	r0, r2
 147              	.LVL5:
 148              		.loc 1 157 6 view .LVU39
 149 000a 012A     		cmp	r2, #1
 150 000c 11D1     		bne	.L8
 151              		.loc 1 157 52 discriminator 1 view .LVU40
 152 000e 1C6D     		ldr	r4, [r3, #80]
 153              		.loc 1 157 44 discriminator 1 view .LVU41
 154 0010 002C     		cmp	r4, #0
 155 0012 0DD0     		beq	.L7
 158:external/drivers/stm32c0xx/src/stm32c0xx_hal_dma_ex.c ****   {
 159:external/drivers/stm32c0xx/src/stm32c0xx_hal_dma_ex.c ****     /* Process Locked */
 160:external/drivers/stm32c0xx/src/stm32c0xx_hal_dma_ex.c ****     __HAL_LOCK(hdma);
 156              		.loc 1 160 5 is_stmt 1 view .LVU42
 157              		.loc 1 160 5 view .LVU43
 158 0014 2425     		movs	r5, #36
 159 0016 5A5D     		ldrb	r2, [r3, r5]
 160 0018 012A     		cmp	r2, #1
 161 001a 0CD0     		beq	.L9
 162              		.loc 1 160 5 discriminator 2 view .LVU44
 163              		.loc 1 160 5 discriminator 2 view .LVU45
 161:external/drivers/stm32c0xx/src/stm32c0xx_hal_dma_ex.c **** 
 162:external/drivers/stm32c0xx/src/stm32c0xx_hal_dma_ex.c ****     /* Set the request generator new parameters*/
 163:external/drivers/stm32c0xx/src/stm32c0xx_hal_dma_ex.c ****     hdma->DMAmuxRequestGen->RGCR = pRequestGeneratorConfig->SignalID | \
 164              		.loc 1 163 5 discriminator 2 view .LVU46
ARM GAS  /tmp/ccmyXNLq.s 			page 7


 164:external/drivers/stm32c0xx/src/stm32c0xx_hal_dma_ex.c ****                                    ((pRequestGeneratorConfig->RequestNumber - 1U) << DMAMUX_RGxCR_G
 165              		.loc 1 164 77 is_stmt 0 discriminator 2 view .LVU47
 166 001c 8A68     		ldr	r2, [r1, #8]
 167              		.loc 1 164 111 discriminator 2 view .LVU48
 168 001e 03C9     		ldmia	r1, {r0, r1}
 169              	.LVL6:
 170              		.loc 1 164 77 discriminator 2 view .LVU49
 171 0020 013A     		subs	r2, r2, #1
 172              		.loc 1 164 111 discriminator 2 view .LVU50
 173 0022 0143     		orrs	r1, r0
 174              		.loc 1 164 83 discriminator 2 view .LVU51
 175 0024 D204     		lsls	r2, r2, #19
 176              		.loc 1 164 111 discriminator 2 view .LVU52
 177 0026 0A43     		orrs	r2, r1
 163:external/drivers/stm32c0xx/src/stm32c0xx_hal_dma_ex.c ****                                    ((pRequestGeneratorConfig->RequestNumber - 1U) << DMAMUX_RGxCR_G
 178              		.loc 1 163 34 discriminator 2 view .LVU53
 179 0028 2260     		str	r2, [r4]
 165:external/drivers/stm32c0xx/src/stm32c0xx_hal_dma_ex.c ****                                    pRequestGeneratorConfig->Polarity;
 166:external/drivers/stm32c0xx/src/stm32c0xx_hal_dma_ex.c ****     /* Process UnLocked */
 167:external/drivers/stm32c0xx/src/stm32c0xx_hal_dma_ex.c ****     __HAL_UNLOCK(hdma);
 180              		.loc 1 167 5 is_stmt 1 discriminator 2 view .LVU54
 181              		.loc 1 167 5 discriminator 2 view .LVU55
 182 002a 0022     		movs	r2, #0
 168:external/drivers/stm32c0xx/src/stm32c0xx_hal_dma_ex.c **** 
 169:external/drivers/stm32c0xx/src/stm32c0xx_hal_dma_ex.c ****     return HAL_OK;
 183              		.loc 1 169 12 is_stmt 0 discriminator 2 view .LVU56
 184 002c 0020     		movs	r0, #0
 167:external/drivers/stm32c0xx/src/stm32c0xx_hal_dma_ex.c **** 
 185              		.loc 1 167 5 discriminator 2 view .LVU57
 186 002e 5A55     		strb	r2, [r3, r5]
 167:external/drivers/stm32c0xx/src/stm32c0xx_hal_dma_ex.c **** 
 187              		.loc 1 167 5 is_stmt 1 discriminator 2 view .LVU58
 188              		.loc 1 169 5 discriminator 2 view .LVU59
 189              	.L7:
 170:external/drivers/stm32c0xx/src/stm32c0xx_hal_dma_ex.c ****   }
 171:external/drivers/stm32c0xx/src/stm32c0xx_hal_dma_ex.c ****   else
 172:external/drivers/stm32c0xx/src/stm32c0xx_hal_dma_ex.c ****   {
 173:external/drivers/stm32c0xx/src/stm32c0xx_hal_dma_ex.c ****     return HAL_ERROR;
 174:external/drivers/stm32c0xx/src/stm32c0xx_hal_dma_ex.c ****   }
 175:external/drivers/stm32c0xx/src/stm32c0xx_hal_dma_ex.c **** }
 190              		.loc 1 175 1 is_stmt 0 view .LVU60
 191              		@ sp needed
 192 0030 30BD     		pop	{r4, r5, pc}
 193              	.LVL7:
 194              	.L8:
 173:external/drivers/stm32c0xx/src/stm32c0xx_hal_dma_ex.c ****   }
 195              		.loc 1 173 12 view .LVU61
 196 0032 0120     		movs	r0, #1
 197 0034 FCE7     		b	.L7
 198              	.L9:
 160:external/drivers/stm32c0xx/src/stm32c0xx_hal_dma_ex.c **** 
 199              		.loc 1 160 5 view .LVU62
 200 0036 0220     		movs	r0, #2
 201 0038 FAE7     		b	.L7
 202              		.cfi_endproc
 203              	.LFE215:
 205 003a C046     		.section	.text.HAL_DMAEx_EnableMuxRequestGenerator,"ax",%progbits
ARM GAS  /tmp/ccmyXNLq.s 			page 8


 206              		.align	1
 207              		.p2align 2,,3
 208              		.global	HAL_DMAEx_EnableMuxRequestGenerator
 209              		.syntax unified
 210              		.code	16
 211              		.thumb_func
 213              	HAL_DMAEx_EnableMuxRequestGenerator:
 214              	.LVL8:
 215              	.LFB216:
 176:external/drivers/stm32c0xx/src/stm32c0xx_hal_dma_ex.c **** 
 177:external/drivers/stm32c0xx/src/stm32c0xx_hal_dma_ex.c **** /**
 178:external/drivers/stm32c0xx/src/stm32c0xx_hal_dma_ex.c ****   * @brief  Enable the DMAMUX request generator block used by the given DMA channel (instance).
 179:external/drivers/stm32c0xx/src/stm32c0xx_hal_dma_ex.c ****   * @param  hdma Pointer to a DMA_HandleTypeDef structure that contains
 180:external/drivers/stm32c0xx/src/stm32c0xx_hal_dma_ex.c ****   *                     the configuration information for the specified DMA channel.
 181:external/drivers/stm32c0xx/src/stm32c0xx_hal_dma_ex.c ****   * @retval HAL status
 182:external/drivers/stm32c0xx/src/stm32c0xx_hal_dma_ex.c ****   */
 183:external/drivers/stm32c0xx/src/stm32c0xx_hal_dma_ex.c **** HAL_StatusTypeDef HAL_DMAEx_EnableMuxRequestGenerator(DMA_HandleTypeDef *hdma)
 184:external/drivers/stm32c0xx/src/stm32c0xx_hal_dma_ex.c **** {
 216              		.loc 1 184 1 is_stmt 1 view -0
 217              		.cfi_startproc
 218              		@ args = 0, pretend = 0, frame = 0
 219              		@ frame_needed = 0, uses_anonymous_args = 0
 220              		@ link register save eliminated.
 185:external/drivers/stm32c0xx/src/stm32c0xx_hal_dma_ex.c ****   /* Check the parameters */
 186:external/drivers/stm32c0xx/src/stm32c0xx_hal_dma_ex.c ****   assert_param(IS_DMA_ALL_INSTANCE(hdma->Instance));
 221              		.loc 1 186 3 view .LVU64
 187:external/drivers/stm32c0xx/src/stm32c0xx_hal_dma_ex.c **** 
 188:external/drivers/stm32c0xx/src/stm32c0xx_hal_dma_ex.c ****   /* check if the DMA state is ready
 189:external/drivers/stm32c0xx/src/stm32c0xx_hal_dma_ex.c ****      and DMA is using a DMAMUX request generator block
 190:external/drivers/stm32c0xx/src/stm32c0xx_hal_dma_ex.c ****   */
 191:external/drivers/stm32c0xx/src/stm32c0xx_hal_dma_ex.c ****   if ((hdma->State != HAL_DMA_STATE_RESET) && (hdma->DMAmuxRequestGen != 0))
 222              		.loc 1 191 3 view .LVU65
 223              		.loc 1 191 12 is_stmt 0 view .LVU66
 224 0000 2523     		movs	r3, #37
 225 0002 C35C     		ldrb	r3, [r0, r3]
 226              		.loc 1 191 6 view .LVU67
 227 0004 002B     		cmp	r3, #0
 228 0006 09D0     		beq	.L16
 229              		.loc 1 191 52 discriminator 1 view .LVU68
 230 0008 036D     		ldr	r3, [r0, #80]
 231              		.loc 1 191 44 discriminator 1 view .LVU69
 232 000a 002B     		cmp	r3, #0
 233 000c 06D0     		beq	.L16
 192:external/drivers/stm32c0xx/src/stm32c0xx_hal_dma_ex.c ****   {
 193:external/drivers/stm32c0xx/src/stm32c0xx_hal_dma_ex.c **** 
 194:external/drivers/stm32c0xx/src/stm32c0xx_hal_dma_ex.c ****     /* Enable the request generator*/
 195:external/drivers/stm32c0xx/src/stm32c0xx_hal_dma_ex.c ****     hdma->DMAmuxRequestGen->RGCR |= DMAMUX_RGxCR_GE;
 234              		.loc 1 195 5 is_stmt 1 view .LVU70
 235              		.loc 1 195 34 is_stmt 0 view .LVU71
 236 000e 8022     		movs	r2, #128
 237              		.loc 1 195 27 view .LVU72
 238 0010 1968     		ldr	r1, [r3]
 239              		.loc 1 195 34 view .LVU73
 240 0012 5202     		lsls	r2, r2, #9
 241 0014 0A43     		orrs	r2, r1
 196:external/drivers/stm32c0xx/src/stm32c0xx_hal_dma_ex.c **** 
 197:external/drivers/stm32c0xx/src/stm32c0xx_hal_dma_ex.c ****     return HAL_OK;
ARM GAS  /tmp/ccmyXNLq.s 			page 9


 242              		.loc 1 197 12 view .LVU74
 243 0016 0020     		movs	r0, #0
 244              	.LVL9:
 195:external/drivers/stm32c0xx/src/stm32c0xx_hal_dma_ex.c **** 
 245              		.loc 1 195 34 view .LVU75
 246 0018 1A60     		str	r2, [r3]
 247              		.loc 1 197 5 is_stmt 1 view .LVU76
 248              		.loc 1 197 12 is_stmt 0 view .LVU77
 249 001a 00E0     		b	.L14
 250              	.LVL10:
 251              	.L16:
 198:external/drivers/stm32c0xx/src/stm32c0xx_hal_dma_ex.c ****   }
 199:external/drivers/stm32c0xx/src/stm32c0xx_hal_dma_ex.c ****   else
 200:external/drivers/stm32c0xx/src/stm32c0xx_hal_dma_ex.c ****   {
 201:external/drivers/stm32c0xx/src/stm32c0xx_hal_dma_ex.c ****     return HAL_ERROR;
 252              		.loc 1 201 12 view .LVU78
 253 001c 0120     		movs	r0, #1
 254              	.LVL11:
 255              	.L14:
 202:external/drivers/stm32c0xx/src/stm32c0xx_hal_dma_ex.c ****   }
 203:external/drivers/stm32c0xx/src/stm32c0xx_hal_dma_ex.c **** }
 256              		.loc 1 203 1 view .LVU79
 257              		@ sp needed
 258 001e 7047     		bx	lr
 259              		.cfi_endproc
 260              	.LFE216:
 262              		.section	.text.HAL_DMAEx_DisableMuxRequestGenerator,"ax",%progbits
 263              		.align	1
 264              		.p2align 2,,3
 265              		.global	HAL_DMAEx_DisableMuxRequestGenerator
 266              		.syntax unified
 267              		.code	16
 268              		.thumb_func
 270              	HAL_DMAEx_DisableMuxRequestGenerator:
 271              	.LVL12:
 272              	.LFB217:
 204:external/drivers/stm32c0xx/src/stm32c0xx_hal_dma_ex.c **** 
 205:external/drivers/stm32c0xx/src/stm32c0xx_hal_dma_ex.c **** /**
 206:external/drivers/stm32c0xx/src/stm32c0xx_hal_dma_ex.c ****   * @brief  Disable the DMAMUX request generator block used by the given DMA channel (instance).
 207:external/drivers/stm32c0xx/src/stm32c0xx_hal_dma_ex.c ****   * @param  hdma Pointer to a DMA_HandleTypeDef structure that contains
 208:external/drivers/stm32c0xx/src/stm32c0xx_hal_dma_ex.c ****   *                     the configuration information for the specified DMA channel.
 209:external/drivers/stm32c0xx/src/stm32c0xx_hal_dma_ex.c ****   * @retval HAL status
 210:external/drivers/stm32c0xx/src/stm32c0xx_hal_dma_ex.c ****   */
 211:external/drivers/stm32c0xx/src/stm32c0xx_hal_dma_ex.c **** HAL_StatusTypeDef HAL_DMAEx_DisableMuxRequestGenerator(DMA_HandleTypeDef *hdma)
 212:external/drivers/stm32c0xx/src/stm32c0xx_hal_dma_ex.c **** {
 273              		.loc 1 212 1 is_stmt 1 view -0
 274              		.cfi_startproc
 275              		@ args = 0, pretend = 0, frame = 0
 276              		@ frame_needed = 0, uses_anonymous_args = 0
 277              		@ link register save eliminated.
 213:external/drivers/stm32c0xx/src/stm32c0xx_hal_dma_ex.c ****   /* Check the parameters */
 214:external/drivers/stm32c0xx/src/stm32c0xx_hal_dma_ex.c ****   assert_param(IS_DMA_ALL_INSTANCE(hdma->Instance));
 278              		.loc 1 214 3 view .LVU81
 215:external/drivers/stm32c0xx/src/stm32c0xx_hal_dma_ex.c **** 
 216:external/drivers/stm32c0xx/src/stm32c0xx_hal_dma_ex.c ****   /* check if the DMA state is ready
 217:external/drivers/stm32c0xx/src/stm32c0xx_hal_dma_ex.c ****      and DMA is using a DMAMUX request generator block
 218:external/drivers/stm32c0xx/src/stm32c0xx_hal_dma_ex.c ****   */
ARM GAS  /tmp/ccmyXNLq.s 			page 10


 219:external/drivers/stm32c0xx/src/stm32c0xx_hal_dma_ex.c ****   if ((hdma->State != HAL_DMA_STATE_RESET) && (hdma->DMAmuxRequestGen != 0))
 279              		.loc 1 219 3 view .LVU82
 280              		.loc 1 219 12 is_stmt 0 view .LVU83
 281 0000 2523     		movs	r3, #37
 282 0002 C35C     		ldrb	r3, [r0, r3]
 283              		.loc 1 219 6 view .LVU84
 284 0004 002B     		cmp	r3, #0
 285 0006 08D0     		beq	.L20
 286              		.loc 1 219 52 discriminator 1 view .LVU85
 287 0008 036D     		ldr	r3, [r0, #80]
 288              		.loc 1 219 44 discriminator 1 view .LVU86
 289 000a 002B     		cmp	r3, #0
 290 000c 05D0     		beq	.L20
 220:external/drivers/stm32c0xx/src/stm32c0xx_hal_dma_ex.c ****   {
 221:external/drivers/stm32c0xx/src/stm32c0xx_hal_dma_ex.c **** 
 222:external/drivers/stm32c0xx/src/stm32c0xx_hal_dma_ex.c ****     /* Disable the request generator*/
 223:external/drivers/stm32c0xx/src/stm32c0xx_hal_dma_ex.c ****     hdma->DMAmuxRequestGen->RGCR &= ~DMAMUX_RGxCR_GE;
 291              		.loc 1 223 5 is_stmt 1 view .LVU87
 292              		.loc 1 223 27 is_stmt 0 view .LVU88
 293 000e 1A68     		ldr	r2, [r3]
 294              		.loc 1 223 34 view .LVU89
 295 0010 0349     		ldr	r1, .L21
 224:external/drivers/stm32c0xx/src/stm32c0xx_hal_dma_ex.c **** 
 225:external/drivers/stm32c0xx/src/stm32c0xx_hal_dma_ex.c ****     return HAL_OK;
 296              		.loc 1 225 12 view .LVU90
 297 0012 0020     		movs	r0, #0
 298              	.LVL13:
 223:external/drivers/stm32c0xx/src/stm32c0xx_hal_dma_ex.c **** 
 299              		.loc 1 223 34 view .LVU91
 300 0014 0A40     		ands	r2, r1
 301 0016 1A60     		str	r2, [r3]
 302              		.loc 1 225 5 is_stmt 1 view .LVU92
 303              		.loc 1 225 12 is_stmt 0 view .LVU93
 304 0018 00E0     		b	.L18
 305              	.LVL14:
 306              	.L20:
 226:external/drivers/stm32c0xx/src/stm32c0xx_hal_dma_ex.c ****   }
 227:external/drivers/stm32c0xx/src/stm32c0xx_hal_dma_ex.c ****   else
 228:external/drivers/stm32c0xx/src/stm32c0xx_hal_dma_ex.c ****   {
 229:external/drivers/stm32c0xx/src/stm32c0xx_hal_dma_ex.c ****     return HAL_ERROR;
 307              		.loc 1 229 12 view .LVU94
 308 001a 0120     		movs	r0, #1
 309              	.LVL15:
 310              	.L18:
 230:external/drivers/stm32c0xx/src/stm32c0xx_hal_dma_ex.c ****   }
 231:external/drivers/stm32c0xx/src/stm32c0xx_hal_dma_ex.c **** }
 311              		.loc 1 231 1 view .LVU95
 312              		@ sp needed
 313 001c 7047     		bx	lr
 314              	.L22:
 315 001e C046     		.align	2
 316              	.L21:
 317 0020 FFFFFEFF 		.word	-65537
 318              		.cfi_endproc
 319              	.LFE217:
 321              		.section	.text.HAL_DMAEx_MUX_IRQHandler,"ax",%progbits
 322              		.align	1
ARM GAS  /tmp/ccmyXNLq.s 			page 11


 323              		.p2align 2,,3
 324              		.global	HAL_DMAEx_MUX_IRQHandler
 325              		.syntax unified
 326              		.code	16
 327              		.thumb_func
 329              	HAL_DMAEx_MUX_IRQHandler:
 330              	.LVL16:
 331              	.LFB218:
 232:external/drivers/stm32c0xx/src/stm32c0xx_hal_dma_ex.c **** 
 233:external/drivers/stm32c0xx/src/stm32c0xx_hal_dma_ex.c **** /**
 234:external/drivers/stm32c0xx/src/stm32c0xx_hal_dma_ex.c ****   * @brief  Handles DMAMUX interrupt request.
 235:external/drivers/stm32c0xx/src/stm32c0xx_hal_dma_ex.c ****   * @param  hdma Pointer to a DMA_HandleTypeDef structure that contains
 236:external/drivers/stm32c0xx/src/stm32c0xx_hal_dma_ex.c ****   *               the configuration information for the specified DMA channel.
 237:external/drivers/stm32c0xx/src/stm32c0xx_hal_dma_ex.c ****   * @retval None
 238:external/drivers/stm32c0xx/src/stm32c0xx_hal_dma_ex.c ****   */
 239:external/drivers/stm32c0xx/src/stm32c0xx_hal_dma_ex.c **** void HAL_DMAEx_MUX_IRQHandler(DMA_HandleTypeDef *hdma)
 240:external/drivers/stm32c0xx/src/stm32c0xx_hal_dma_ex.c **** {
 332              		.loc 1 240 1 is_stmt 1 view -0
 333              		.cfi_startproc
 334              		@ args = 0, pretend = 0, frame = 0
 335              		@ frame_needed = 0, uses_anonymous_args = 0
 241:external/drivers/stm32c0xx/src/stm32c0xx_hal_dma_ex.c ****   /* Check for DMAMUX Synchronization overrun */
 242:external/drivers/stm32c0xx/src/stm32c0xx_hal_dma_ex.c ****   if ((hdma->DMAmuxChannelStatus->CSR & hdma->DMAmuxChannelStatusMask) != 0U)
 336              		.loc 1 242 3 view .LVU97
 337              		.loc 1 242 12 is_stmt 0 view .LVU98
 338 0000 836C     		ldr	r3, [r0, #72]
 339              		.loc 1 242 45 view .LVU99
 340 0002 C26C     		ldr	r2, [r0, #76]
 341              		.loc 1 242 33 view .LVU100
 342 0004 1968     		ldr	r1, [r3]
 240:external/drivers/stm32c0xx/src/stm32c0xx_hal_dma_ex.c ****   /* Check for DMAMUX Synchronization overrun */
 343              		.loc 1 240 1 view .LVU101
 344 0006 70B5     		push	{r4, r5, r6, lr}
 345              	.LCFI2:
 346              		.cfi_def_cfa_offset 16
 347              		.cfi_offset 4, -16
 348              		.cfi_offset 5, -12
 349              		.cfi_offset 6, -8
 350              		.cfi_offset 14, -4
 240:external/drivers/stm32c0xx/src/stm32c0xx_hal_dma_ex.c ****   /* Check for DMAMUX Synchronization overrun */
 351              		.loc 1 240 1 view .LVU102
 352 0008 0400     		movs	r4, r0
 353              		.loc 1 242 6 view .LVU103
 354 000a 0A42     		tst	r2, r1
 355 000c 0FD0     		beq	.L25
 243:external/drivers/stm32c0xx/src/stm32c0xx_hal_dma_ex.c ****   {
 244:external/drivers/stm32c0xx/src/stm32c0xx_hal_dma_ex.c ****     /* Disable the synchro overrun interrupt */
 245:external/drivers/stm32c0xx/src/stm32c0xx_hal_dma_ex.c ****     hdma->DMAmuxChannel->CCR &= ~DMAMUX_CxCR_SOIE;
 356              		.loc 1 245 5 is_stmt 1 view .LVU104
 357              		.loc 1 245 9 is_stmt 0 view .LVU105
 358 000e 406C     		ldr	r0, [r0, #68]
 359              	.LVL17:
 360              		.loc 1 245 30 view .LVU106
 361 0010 134D     		ldr	r5, .L39
 362              		.loc 1 245 24 view .LVU107
 363 0012 0168     		ldr	r1, [r0]
 364              		.loc 1 245 30 view .LVU108
ARM GAS  /tmp/ccmyXNLq.s 			page 12


 365 0014 2940     		ands	r1, r5
 366 0016 0160     		str	r1, [r0]
 246:external/drivers/stm32c0xx/src/stm32c0xx_hal_dma_ex.c **** 
 247:external/drivers/stm32c0xx/src/stm32c0xx_hal_dma_ex.c ****     /* Clear the DMAMUX synchro overrun flag */
 248:external/drivers/stm32c0xx/src/stm32c0xx_hal_dma_ex.c ****     hdma->DMAmuxChannelStatus->CFR = hdma->DMAmuxChannelStatusMask;
 367              		.loc 1 248 5 is_stmt 1 view .LVU109
 368              		.loc 1 248 36 is_stmt 0 view .LVU110
 369 0018 5A60     		str	r2, [r3, #4]
 249:external/drivers/stm32c0xx/src/stm32c0xx_hal_dma_ex.c **** 
 250:external/drivers/stm32c0xx/src/stm32c0xx_hal_dma_ex.c ****     /* Update error code */
 251:external/drivers/stm32c0xx/src/stm32c0xx_hal_dma_ex.c ****     hdma->ErrorCode |= HAL_DMA_ERROR_SYNC;
 370              		.loc 1 251 5 is_stmt 1 view .LVU111
 371              		.loc 1 251 21 is_stmt 0 view .LVU112
 372 001a 8023     		movs	r3, #128
 373              		.loc 1 251 9 view .LVU113
 374 001c E26B     		ldr	r2, [r4, #60]
 375              		.loc 1 251 21 view .LVU114
 376 001e 9B00     		lsls	r3, r3, #2
 377 0020 1343     		orrs	r3, r2
 378 0022 E363     		str	r3, [r4, #60]
 252:external/drivers/stm32c0xx/src/stm32c0xx_hal_dma_ex.c **** 
 253:external/drivers/stm32c0xx/src/stm32c0xx_hal_dma_ex.c ****     if (hdma->XferErrorCallback != NULL)
 379              		.loc 1 253 5 is_stmt 1 view .LVU115
 380              		.loc 1 253 13 is_stmt 0 view .LVU116
 381 0024 636B     		ldr	r3, [r4, #52]
 382              		.loc 1 253 8 view .LVU117
 383 0026 002B     		cmp	r3, #0
 384 0028 01D0     		beq	.L25
 254:external/drivers/stm32c0xx/src/stm32c0xx_hal_dma_ex.c ****     {
 255:external/drivers/stm32c0xx/src/stm32c0xx_hal_dma_ex.c ****       /* Transfer error callback */
 256:external/drivers/stm32c0xx/src/stm32c0xx_hal_dma_ex.c ****       hdma->XferErrorCallback(hdma);
 385              		.loc 1 256 7 is_stmt 1 view .LVU118
 386 002a 2000     		movs	r0, r4
 387 002c 9847     		blx	r3
 388              	.LVL18:
 389              	.L25:
 257:external/drivers/stm32c0xx/src/stm32c0xx_hal_dma_ex.c ****     }
 258:external/drivers/stm32c0xx/src/stm32c0xx_hal_dma_ex.c ****   }
 259:external/drivers/stm32c0xx/src/stm32c0xx_hal_dma_ex.c **** 
 260:external/drivers/stm32c0xx/src/stm32c0xx_hal_dma_ex.c ****   if (hdma->DMAmuxRequestGen != 0)
 390              		.loc 1 260 3 view .LVU119
 391              		.loc 1 260 11 is_stmt 0 view .LVU120
 392 002e 236D     		ldr	r3, [r4, #80]
 393              		.loc 1 260 6 view .LVU121
 394 0030 002B     		cmp	r3, #0
 395 0032 13D0     		beq	.L23
 261:external/drivers/stm32c0xx/src/stm32c0xx_hal_dma_ex.c ****   {
 262:external/drivers/stm32c0xx/src/stm32c0xx_hal_dma_ex.c ****     /* if using a DMAMUX request generator block Check for DMAMUX request generator overrun */
 263:external/drivers/stm32c0xx/src/stm32c0xx_hal_dma_ex.c ****     if ((hdma->DMAmuxRequestGenStatus->RGSR & hdma->DMAmuxRequestGenStatusMask) != 0U)
 396              		.loc 1 263 5 is_stmt 1 view .LVU122
 397              		.loc 1 263 14 is_stmt 0 view .LVU123
 398 0034 626D     		ldr	r2, [r4, #84]
 399              		.loc 1 263 51 view .LVU124
 400 0036 A16D     		ldr	r1, [r4, #88]
 401              		.loc 1 263 38 view .LVU125
 402 0038 1068     		ldr	r0, [r2]
 403              		.loc 1 263 8 view .LVU126
ARM GAS  /tmp/ccmyXNLq.s 			page 13


 404 003a 0142     		tst	r1, r0
 405 003c 0ED0     		beq	.L23
 264:external/drivers/stm32c0xx/src/stm32c0xx_hal_dma_ex.c ****     {
 265:external/drivers/stm32c0xx/src/stm32c0xx_hal_dma_ex.c ****       /* Disable the request gen overrun interrupt */
 266:external/drivers/stm32c0xx/src/stm32c0xx_hal_dma_ex.c ****       hdma->DMAmuxRequestGen->RGCR &= ~DMAMUX_RGxCR_OIE;
 406              		.loc 1 266 7 is_stmt 1 view .LVU127
 407              		.loc 1 266 29 is_stmt 0 view .LVU128
 408 003e 1868     		ldr	r0, [r3]
 409              		.loc 1 266 36 view .LVU129
 410 0040 074D     		ldr	r5, .L39
 411 0042 2840     		ands	r0, r5
 412 0044 1860     		str	r0, [r3]
 267:external/drivers/stm32c0xx/src/stm32c0xx_hal_dma_ex.c **** 
 268:external/drivers/stm32c0xx/src/stm32c0xx_hal_dma_ex.c ****       /* Clear the DMAMUX request generator overrun flag */
 269:external/drivers/stm32c0xx/src/stm32c0xx_hal_dma_ex.c ****       hdma->DMAmuxRequestGenStatus->RGCFR = hdma->DMAmuxRequestGenStatusMask;
 413              		.loc 1 269 7 is_stmt 1 view .LVU130
 270:external/drivers/stm32c0xx/src/stm32c0xx_hal_dma_ex.c **** 
 271:external/drivers/stm32c0xx/src/stm32c0xx_hal_dma_ex.c ****       /* Update error code */
 272:external/drivers/stm32c0xx/src/stm32c0xx_hal_dma_ex.c ****       hdma->ErrorCode |= HAL_DMA_ERROR_REQGEN;
 414              		.loc 1 272 23 is_stmt 0 view .LVU131
 415 0046 8023     		movs	r3, #128
 269:external/drivers/stm32c0xx/src/stm32c0xx_hal_dma_ex.c **** 
 416              		.loc 1 269 43 view .LVU132
 417 0048 5160     		str	r1, [r2, #4]
 418              		.loc 1 272 7 is_stmt 1 view .LVU133
 419              		.loc 1 272 11 is_stmt 0 view .LVU134
 420 004a E26B     		ldr	r2, [r4, #60]
 421              		.loc 1 272 23 view .LVU135
 422 004c DB00     		lsls	r3, r3, #3
 423 004e 1343     		orrs	r3, r2
 424 0050 E363     		str	r3, [r4, #60]
 273:external/drivers/stm32c0xx/src/stm32c0xx_hal_dma_ex.c **** 
 274:external/drivers/stm32c0xx/src/stm32c0xx_hal_dma_ex.c ****       if (hdma->XferErrorCallback != NULL)
 425              		.loc 1 274 7 is_stmt 1 view .LVU136
 426              		.loc 1 274 15 is_stmt 0 view .LVU137
 427 0052 636B     		ldr	r3, [r4, #52]
 428              		.loc 1 274 10 view .LVU138
 429 0054 002B     		cmp	r3, #0
 430 0056 01D0     		beq	.L23
 275:external/drivers/stm32c0xx/src/stm32c0xx_hal_dma_ex.c ****       {
 276:external/drivers/stm32c0xx/src/stm32c0xx_hal_dma_ex.c ****         /* Transfer error callback */
 277:external/drivers/stm32c0xx/src/stm32c0xx_hal_dma_ex.c ****         hdma->XferErrorCallback(hdma);
 431              		.loc 1 277 9 is_stmt 1 view .LVU139
 432 0058 2000     		movs	r0, r4
 433 005a 9847     		blx	r3
 434              	.LVL19:
 435              	.L23:
 278:external/drivers/stm32c0xx/src/stm32c0xx_hal_dma_ex.c ****       }
 279:external/drivers/stm32c0xx/src/stm32c0xx_hal_dma_ex.c ****     }
 280:external/drivers/stm32c0xx/src/stm32c0xx_hal_dma_ex.c ****   }
 281:external/drivers/stm32c0xx/src/stm32c0xx_hal_dma_ex.c **** }
 436              		.loc 1 281 1 is_stmt 0 view .LVU140
 437              		@ sp needed
 438              	.LVL20:
 439              		.loc 1 281 1 view .LVU141
 440 005c 70BD     		pop	{r4, r5, r6, pc}
 441              	.L40:
ARM GAS  /tmp/ccmyXNLq.s 			page 14


 442 005e C046     		.align	2
 443              	.L39:
 444 0060 FFFEFFFF 		.word	-257
 445              		.cfi_endproc
 446              	.LFE218:
 448              		.text
 449              	.Letext0:
 450              		.file 2 "external/drivers/cmsis/include/stm32c031xx.h"
 451              		.file 3 "/usr/lib/gcc/arm-none-eabi/12.2.1/include/stdint.h"
 452              		.file 4 "external/drivers/cmsis/include/stm32c0xx.h"
 453              		.file 5 "external/drivers/stm32c0xx/include/stm32c0xx_hal_def.h"
 454              		.file 6 "external/drivers/stm32c0xx/include/stm32c0xx_hal_dma.h"
 455              		.file 7 "external/drivers/stm32c0xx/include/stm32c0xx_hal_dma_ex.h"
ARM GAS  /tmp/ccmyXNLq.s 			page 15


DEFINED SYMBOLS
                            *ABS*:00000000 stm32c0xx_hal_dma_ex.c
     /tmp/ccmyXNLq.s:19     .text.HAL_DMAEx_ConfigMuxSync:00000000 $t
     /tmp/ccmyXNLq.s:26     .text.HAL_DMAEx_ConfigMuxSync:00000000 HAL_DMAEx_ConfigMuxSync
     /tmp/ccmyXNLq.s:113    .text.HAL_DMAEx_ConfigMuxRequestGenerator:00000000 $t
     /tmp/ccmyXNLq.s:120    .text.HAL_DMAEx_ConfigMuxRequestGenerator:00000000 HAL_DMAEx_ConfigMuxRequestGenerator
     /tmp/ccmyXNLq.s:206    .text.HAL_DMAEx_EnableMuxRequestGenerator:00000000 $t
     /tmp/ccmyXNLq.s:213    .text.HAL_DMAEx_EnableMuxRequestGenerator:00000000 HAL_DMAEx_EnableMuxRequestGenerator
     /tmp/ccmyXNLq.s:263    .text.HAL_DMAEx_DisableMuxRequestGenerator:00000000 $t
     /tmp/ccmyXNLq.s:270    .text.HAL_DMAEx_DisableMuxRequestGenerator:00000000 HAL_DMAEx_DisableMuxRequestGenerator
     /tmp/ccmyXNLq.s:317    .text.HAL_DMAEx_DisableMuxRequestGenerator:00000020 $d
     /tmp/ccmyXNLq.s:322    .text.HAL_DMAEx_MUX_IRQHandler:00000000 $t
     /tmp/ccmyXNLq.s:329    .text.HAL_DMAEx_MUX_IRQHandler:00000000 HAL_DMAEx_MUX_IRQHandler
     /tmp/ccmyXNLq.s:444    .text.HAL_DMAEx_MUX_IRQHandler:00000060 $d

NO UNDEFINED SYMBOLS
