ARM GAS  /tmp/ccJHRQAf.s 			page 1


   1              		.cpu cortex-m0plus
   2              		.arch armv6s-m
   3              		.fpu softvfp
   4              		.eabi_attribute 20, 1
   5              		.eabi_attribute 21, 1
   6              		.eabi_attribute 23, 3
   7              		.eabi_attribute 24, 1
   8              		.eabi_attribute 25, 1
   9              		.eabi_attribute 26, 1
  10              		.eabi_attribute 30, 2
  11              		.eabi_attribute 34, 0
  12              		.eabi_attribute 18, 4
  13              		.file	"tim.c"
  14              		.text
  15              	.Ltext0:
  16              		.cfi_sections	.debug_frame
  17              		.file 1 "src/system/tim.c"
  18              		.section	.text.MX_TIM14_Init,"ax",%progbits
  19              		.align	1
  20              		.p2align 2,,3
  21              		.global	MX_TIM14_Init
  22              		.syntax unified
  23              		.code	16
  24              		.thumb_func
  26              	MX_TIM14_Init:
  27              	.LFB216:
   1:src/system/tim.c **** /* USER CODE BEGIN Header */
   2:src/system/tim.c **** /**
   3:src/system/tim.c ****   ******************************************************************************
   4:src/system/tim.c ****   * @file    tim.c
   5:src/system/tim.c ****   * @brief   This file provides code for the configuration
   6:src/system/tim.c ****   *          of the TIM instances.
   7:src/system/tim.c ****   ******************************************************************************
   8:src/system/tim.c ****   * @attention
   9:src/system/tim.c ****   *
  10:src/system/tim.c ****   * Copyright (c) 2025 STMicroelectronics.
  11:src/system/tim.c ****   * All rights reserved.
  12:src/system/tim.c ****   *
  13:src/system/tim.c ****   * This software is licensed under terms that can be found in the LICENSE file
  14:src/system/tim.c ****   * in the root directory of this software component.
  15:src/system/tim.c ****   * If no LICENSE file comes with this software, it is provided AS-IS.
  16:src/system/tim.c ****   *
  17:src/system/tim.c ****   ******************************************************************************
  18:src/system/tim.c ****   */
  19:src/system/tim.c **** /* USER CODE END Header */
  20:src/system/tim.c **** /* Includes ------------------------------------------------------------------*/
  21:src/system/tim.c **** #include "tim.h"
  22:src/system/tim.c **** 
  23:src/system/tim.c **** /* USER CODE BEGIN 0 */
  24:src/system/tim.c **** 
  25:src/system/tim.c **** /* USER CODE END 0 */
  26:src/system/tim.c **** 
  27:src/system/tim.c **** TIM_HandleTypeDef htim1;
  28:src/system/tim.c **** TIM_HandleTypeDef htim3;
  29:src/system/tim.c **** TIM_HandleTypeDef htim14;
  30:src/system/tim.c **** TIM_HandleTypeDef htim16;
  31:src/system/tim.c **** TIM_HandleTypeDef htim17;
ARM GAS  /tmp/ccJHRQAf.s 			page 2


  32:src/system/tim.c **** 
  33:src/system/tim.c **** /* TIM1 init function */
  34:src/system/tim.c **** void MX_TIM1_Init(void)
  35:src/system/tim.c **** {
  36:src/system/tim.c **** 
  37:src/system/tim.c ****   /* USER CODE BEGIN TIM1_Init 0 */
  38:src/system/tim.c **** 
  39:src/system/tim.c ****   /* USER CODE END TIM1_Init 0 */
  40:src/system/tim.c **** 
  41:src/system/tim.c ****   TIM_ClockConfigTypeDef sClockSourceConfig = {0};
  42:src/system/tim.c ****   TIM_MasterConfigTypeDef sMasterConfig = {0};
  43:src/system/tim.c ****   TIM_OC_InitTypeDef sConfigOC = {0};
  44:src/system/tim.c ****   TIM_BreakDeadTimeConfigTypeDef sBreakDeadTimeConfig = {0};
  45:src/system/tim.c **** 
  46:src/system/tim.c ****   /* USER CODE BEGIN TIM1_Init 1 */
  47:src/system/tim.c **** 
  48:src/system/tim.c ****   /* USER CODE END TIM1_Init 1 */
  49:src/system/tim.c ****   htim1.Instance = TIM1;
  50:src/system/tim.c ****   htim1.Init.Prescaler = 0;
  51:src/system/tim.c ****   htim1.Init.CounterMode = TIM_COUNTERMODE_UP;
  52:src/system/tim.c ****   htim1.Init.Period = 65535;
  53:src/system/tim.c ****   htim1.Init.ClockDivision = TIM_CLOCKDIVISION_DIV1;
  54:src/system/tim.c ****   htim1.Init.RepetitionCounter = 0;
  55:src/system/tim.c ****   htim1.Init.AutoReloadPreload = TIM_AUTORELOAD_PRELOAD_DISABLE;
  56:src/system/tim.c ****   if (HAL_TIM_Base_Init(&htim1) != HAL_OK)
  57:src/system/tim.c ****   {
  58:src/system/tim.c ****     Error_Handler();
  59:src/system/tim.c ****   }
  60:src/system/tim.c ****   sClockSourceConfig.ClockSource = TIM_CLOCKSOURCE_INTERNAL;
  61:src/system/tim.c ****   if (HAL_TIM_ConfigClockSource(&htim1, &sClockSourceConfig) != HAL_OK)
  62:src/system/tim.c ****   {
  63:src/system/tim.c ****     Error_Handler();
  64:src/system/tim.c ****   }
  65:src/system/tim.c ****   if (HAL_TIM_PWM_Init(&htim1) != HAL_OK)
  66:src/system/tim.c ****   {
  67:src/system/tim.c ****     Error_Handler();
  68:src/system/tim.c ****   }
  69:src/system/tim.c ****   sMasterConfig.MasterOutputTrigger = TIM_TRGO_RESET;
  70:src/system/tim.c ****   sMasterConfig.MasterOutputTrigger2 = TIM_TRGO2_RESET;
  71:src/system/tim.c ****   sMasterConfig.MasterSlaveMode = TIM_MASTERSLAVEMODE_DISABLE;
  72:src/system/tim.c ****   if (HAL_TIMEx_MasterConfigSynchronization(&htim1, &sMasterConfig) != HAL_OK)
  73:src/system/tim.c ****   {
  74:src/system/tim.c ****     Error_Handler();
  75:src/system/tim.c ****   }
  76:src/system/tim.c ****   sConfigOC.OCMode = TIM_OCMODE_PWM1;
  77:src/system/tim.c ****   sConfigOC.Pulse = 0;
  78:src/system/tim.c ****   sConfigOC.OCPolarity = TIM_OCPOLARITY_HIGH;
  79:src/system/tim.c ****   sConfigOC.OCNPolarity = TIM_OCNPOLARITY_HIGH;
  80:src/system/tim.c ****   sConfigOC.OCFastMode = TIM_OCFAST_DISABLE;
  81:src/system/tim.c ****   sConfigOC.OCIdleState = TIM_OCIDLESTATE_RESET;
  82:src/system/tim.c ****   sConfigOC.OCNIdleState = TIM_OCNIDLESTATE_RESET;
  83:src/system/tim.c ****   if (HAL_TIM_PWM_ConfigChannel(&htim1, &sConfigOC, TIM_CHANNEL_1) != HAL_OK)
  84:src/system/tim.c ****   {
  85:src/system/tim.c ****     Error_Handler();
  86:src/system/tim.c ****   }
  87:src/system/tim.c ****   if (HAL_TIM_PWM_ConfigChannel(&htim1, &sConfigOC, TIM_CHANNEL_2) != HAL_OK)
  88:src/system/tim.c ****   {
ARM GAS  /tmp/ccJHRQAf.s 			page 3


  89:src/system/tim.c ****     Error_Handler();
  90:src/system/tim.c ****   }
  91:src/system/tim.c ****   if (HAL_TIM_PWM_ConfigChannel(&htim1, &sConfigOC, TIM_CHANNEL_4) != HAL_OK)
  92:src/system/tim.c ****   {
  93:src/system/tim.c ****     Error_Handler();
  94:src/system/tim.c ****   }
  95:src/system/tim.c ****   sBreakDeadTimeConfig.OffStateRunMode = TIM_OSSR_DISABLE;
  96:src/system/tim.c ****   sBreakDeadTimeConfig.OffStateIDLEMode = TIM_OSSI_DISABLE;
  97:src/system/tim.c ****   sBreakDeadTimeConfig.LockLevel = TIM_LOCKLEVEL_OFF;
  98:src/system/tim.c ****   sBreakDeadTimeConfig.DeadTime = 0;
  99:src/system/tim.c ****   sBreakDeadTimeConfig.BreakState = TIM_BREAK_DISABLE;
 100:src/system/tim.c ****   sBreakDeadTimeConfig.BreakPolarity = TIM_BREAKPOLARITY_HIGH;
 101:src/system/tim.c ****   sBreakDeadTimeConfig.BreakFilter = 0;
 102:src/system/tim.c ****   sBreakDeadTimeConfig.BreakAFMode = TIM_BREAK_AFMODE_INPUT;
 103:src/system/tim.c ****   sBreakDeadTimeConfig.Break2State = TIM_BREAK2_DISABLE;
 104:src/system/tim.c ****   sBreakDeadTimeConfig.Break2Polarity = TIM_BREAK2POLARITY_HIGH;
 105:src/system/tim.c ****   sBreakDeadTimeConfig.Break2Filter = 0;
 106:src/system/tim.c ****   sBreakDeadTimeConfig.Break2AFMode = TIM_BREAK_AFMODE_INPUT;
 107:src/system/tim.c ****   sBreakDeadTimeConfig.AutomaticOutput = TIM_AUTOMATICOUTPUT_DISABLE;
 108:src/system/tim.c ****   if (HAL_TIMEx_ConfigBreakDeadTime(&htim1, &sBreakDeadTimeConfig) != HAL_OK)
 109:src/system/tim.c ****   {
 110:src/system/tim.c ****     Error_Handler();
 111:src/system/tim.c ****   }
 112:src/system/tim.c ****   /* USER CODE BEGIN TIM1_Init 2 */
 113:src/system/tim.c **** 
 114:src/system/tim.c ****   /* USER CODE END TIM1_Init 2 */
 115:src/system/tim.c ****   HAL_TIM_MspPostInit(&htim1);
 116:src/system/tim.c **** 
 117:src/system/tim.c **** }
 118:src/system/tim.c **** /* TIM3 init function */
 119:src/system/tim.c **** void MX_TIM3_Init(void)
 120:src/system/tim.c **** {
 121:src/system/tim.c **** 
 122:src/system/tim.c ****   /* USER CODE BEGIN TIM3_Init 0 */
 123:src/system/tim.c **** 
 124:src/system/tim.c ****   /* USER CODE END TIM3_Init 0 */
 125:src/system/tim.c **** 
 126:src/system/tim.c ****   TIM_ClockConfigTypeDef sClockSourceConfig = {0};
 127:src/system/tim.c ****   TIM_MasterConfigTypeDef sMasterConfig = {0};
 128:src/system/tim.c ****   TIM_OC_InitTypeDef sConfigOC = {0};
 129:src/system/tim.c **** 
 130:src/system/tim.c ****   /* USER CODE BEGIN TIM3_Init 1 */
 131:src/system/tim.c **** 
 132:src/system/tim.c ****   /* USER CODE END TIM3_Init 1 */
 133:src/system/tim.c ****   htim3.Instance = TIM3;
 134:src/system/tim.c ****   htim3.Init.Prescaler = 0;
 135:src/system/tim.c ****   htim3.Init.CounterMode = TIM_COUNTERMODE_UP;
 136:src/system/tim.c ****   htim3.Init.Period = 65535;
 137:src/system/tim.c ****   htim3.Init.ClockDivision = TIM_CLOCKDIVISION_DIV1;
 138:src/system/tim.c ****   htim3.Init.AutoReloadPreload = TIM_AUTORELOAD_PRELOAD_DISABLE;
 139:src/system/tim.c ****   if (HAL_TIM_Base_Init(&htim3) != HAL_OK)
 140:src/system/tim.c ****   {
 141:src/system/tim.c ****     Error_Handler();
 142:src/system/tim.c ****   }
 143:src/system/tim.c ****   sClockSourceConfig.ClockSource = TIM_CLOCKSOURCE_INTERNAL;
 144:src/system/tim.c ****   if (HAL_TIM_ConfigClockSource(&htim3, &sClockSourceConfig) != HAL_OK)
 145:src/system/tim.c ****   {
ARM GAS  /tmp/ccJHRQAf.s 			page 4


 146:src/system/tim.c ****     Error_Handler();
 147:src/system/tim.c ****   }
 148:src/system/tim.c ****   if (HAL_TIM_PWM_Init(&htim3) != HAL_OK)
 149:src/system/tim.c ****   {
 150:src/system/tim.c ****     Error_Handler();
 151:src/system/tim.c ****   }
 152:src/system/tim.c ****   sMasterConfig.MasterOutputTrigger = TIM_TRGO_RESET;
 153:src/system/tim.c ****   sMasterConfig.MasterSlaveMode = TIM_MASTERSLAVEMODE_DISABLE;
 154:src/system/tim.c ****   if (HAL_TIMEx_MasterConfigSynchronization(&htim3, &sMasterConfig) != HAL_OK)
 155:src/system/tim.c ****   {
 156:src/system/tim.c ****     Error_Handler();
 157:src/system/tim.c ****   }
 158:src/system/tim.c ****   sConfigOC.OCMode = TIM_OCMODE_PWM1;
 159:src/system/tim.c ****   sConfigOC.Pulse = 0;
 160:src/system/tim.c ****   sConfigOC.OCPolarity = TIM_OCPOLARITY_HIGH;
 161:src/system/tim.c ****   sConfigOC.OCFastMode = TIM_OCFAST_DISABLE;
 162:src/system/tim.c ****   if (HAL_TIM_PWM_ConfigChannel(&htim3, &sConfigOC, TIM_CHANNEL_1) != HAL_OK)
 163:src/system/tim.c ****   {
 164:src/system/tim.c ****     Error_Handler();
 165:src/system/tim.c ****   }
 166:src/system/tim.c ****   if (HAL_TIM_PWM_ConfigChannel(&htim3, &sConfigOC, TIM_CHANNEL_2) != HAL_OK)
 167:src/system/tim.c ****   {
 168:src/system/tim.c ****     Error_Handler();
 169:src/system/tim.c ****   }
 170:src/system/tim.c ****   if (HAL_TIM_PWM_ConfigChannel(&htim3, &sConfigOC, TIM_CHANNEL_3) != HAL_OK)
 171:src/system/tim.c ****   {
 172:src/system/tim.c ****     Error_Handler();
 173:src/system/tim.c ****   }
 174:src/system/tim.c ****   if (HAL_TIM_PWM_ConfigChannel(&htim3, &sConfigOC, TIM_CHANNEL_4) != HAL_OK)
 175:src/system/tim.c ****   {
 176:src/system/tim.c ****     Error_Handler();
 177:src/system/tim.c ****   }
 178:src/system/tim.c ****   /* USER CODE BEGIN TIM3_Init 2 */
 179:src/system/tim.c **** 
 180:src/system/tim.c ****   /* USER CODE END TIM3_Init 2 */
 181:src/system/tim.c ****   HAL_TIM_MspPostInit(&htim3);
 182:src/system/tim.c **** 
 183:src/system/tim.c **** }
 184:src/system/tim.c **** /* TIM14 init function */
 185:src/system/tim.c **** void MX_TIM14_Init(void)
 186:src/system/tim.c **** {
  28              		.loc 1 186 1 view -0
  29              		.cfi_startproc
  30              		@ args = 0, pretend = 0, frame = 88
  31              		@ frame_needed = 0, uses_anonymous_args = 0
 187:src/system/tim.c **** 
 188:src/system/tim.c ****   /* USER CODE BEGIN TIM14_Init 0 */
 189:src/system/tim.c **** 
 190:src/system/tim.c ****   /* USER CODE END TIM14_Init 0 */
 191:src/system/tim.c **** 
 192:src/system/tim.c ****   TIM_OC_InitTypeDef sConfigOC = {0};
  32              		.loc 1 192 3 view .LVU1
 186:src/system/tim.c **** 
  33              		.loc 1 186 1 is_stmt 0 view .LVU2
  34 0000 70B5     		push	{r4, r5, r6, lr}
  35              	.LCFI0:
  36              		.cfi_def_cfa_offset 16
ARM GAS  /tmp/ccJHRQAf.s 			page 5


  37              		.cfi_offset 4, -16
  38              		.cfi_offset 5, -12
  39              		.cfi_offset 6, -8
  40              		.cfi_offset 14, -4
  41 0002 96B0     		sub	sp, sp, #88
  42              	.LCFI1:
  43              		.cfi_def_cfa_offset 104
  44              		.loc 1 192 22 view .LVU3
  45 0004 1C22     		movs	r2, #28
  46 0006 0021     		movs	r1, #0
  47 0008 0EA8     		add	r0, sp, #56
  48 000a FFF7FEFF 		bl	memset
  49              	.LVL0:
 193:src/system/tim.c **** 
 194:src/system/tim.c ****   /* USER CODE BEGIN TIM14_Init 1 */
 195:src/system/tim.c **** 
 196:src/system/tim.c ****   /* USER CODE END TIM14_Init 1 */
 197:src/system/tim.c ****   htim14.Instance = TIM14;
  50              		.loc 1 197 3 is_stmt 1 view .LVU4
  51              		.loc 1 197 19 is_stmt 0 view .LVU5
  52 000e 744C     		ldr	r4, .L29
  53 0010 744B     		ldr	r3, .L29+4
 198:src/system/tim.c ****   htim14.Init.Prescaler = 0;
 199:src/system/tim.c ****   htim14.Init.CounterMode = TIM_COUNTERMODE_UP;
 200:src/system/tim.c ****   htim14.Init.Period = 65535;
  54              		.loc 1 200 22 view .LVU6
  55 0012 754A     		ldr	r2, .L29+8
 197:src/system/tim.c ****   htim14.Init.Prescaler = 0;
  56              		.loc 1 197 19 view .LVU7
  57 0014 2360     		str	r3, [r4]
 198:src/system/tim.c ****   htim14.Init.Prescaler = 0;
  58              		.loc 1 198 3 is_stmt 1 view .LVU8
 198:src/system/tim.c ****   htim14.Init.Prescaler = 0;
  59              		.loc 1 198 25 is_stmt 0 view .LVU9
  60 0016 0023     		movs	r3, #0
 201:src/system/tim.c ****   htim14.Init.ClockDivision = TIM_CLOCKDIVISION_DIV1;
 202:src/system/tim.c ****   htim14.Init.AutoReloadPreload = TIM_AUTORELOAD_PRELOAD_DISABLE;
 203:src/system/tim.c ****   if (HAL_TIM_Base_Init(&htim14) != HAL_OK)
  61              		.loc 1 203 7 view .LVU10
  62 0018 2000     		movs	r0, r4
 198:src/system/tim.c ****   htim14.Init.CounterMode = TIM_COUNTERMODE_UP;
  63              		.loc 1 198 25 view .LVU11
  64 001a 6360     		str	r3, [r4, #4]
 199:src/system/tim.c ****   htim14.Init.Period = 65535;
  65              		.loc 1 199 3 is_stmt 1 view .LVU12
 199:src/system/tim.c ****   htim14.Init.Period = 65535;
  66              		.loc 1 199 27 is_stmt 0 view .LVU13
  67 001c A360     		str	r3, [r4, #8]
 200:src/system/tim.c ****   htim14.Init.ClockDivision = TIM_CLOCKDIVISION_DIV1;
  68              		.loc 1 200 3 is_stmt 1 view .LVU14
 200:src/system/tim.c ****   htim14.Init.ClockDivision = TIM_CLOCKDIVISION_DIV1;
  69              		.loc 1 200 22 is_stmt 0 view .LVU15
  70 001e E260     		str	r2, [r4, #12]
 201:src/system/tim.c ****   htim14.Init.AutoReloadPreload = TIM_AUTORELOAD_PRELOAD_DISABLE;
  71              		.loc 1 201 3 is_stmt 1 view .LVU16
 201:src/system/tim.c ****   htim14.Init.AutoReloadPreload = TIM_AUTORELOAD_PRELOAD_DISABLE;
  72              		.loc 1 201 29 is_stmt 0 view .LVU17
ARM GAS  /tmp/ccJHRQAf.s 			page 6


  73 0020 2361     		str	r3, [r4, #16]
 202:src/system/tim.c ****   if (HAL_TIM_Base_Init(&htim14) != HAL_OK)
  74              		.loc 1 202 3 is_stmt 1 view .LVU18
 202:src/system/tim.c ****   if (HAL_TIM_Base_Init(&htim14) != HAL_OK)
  75              		.loc 1 202 33 is_stmt 0 view .LVU19
  76 0022 A361     		str	r3, [r4, #24]
  77              		.loc 1 203 3 is_stmt 1 view .LVU20
  78              		.loc 1 203 7 is_stmt 0 view .LVU21
  79 0024 FFF7FEFF 		bl	HAL_TIM_Base_Init
  80              	.LVL1:
  81              		.loc 1 203 6 view .LVU22
  82 0028 0028     		cmp	r0, #0
  83 002a 31D1     		bne	.L21
  84              	.L2:
 204:src/system/tim.c ****   {
 205:src/system/tim.c ****     Error_Handler();
 206:src/system/tim.c ****   }
 207:src/system/tim.c ****   if (HAL_TIM_PWM_Init(&htim14) != HAL_OK)
  85              		.loc 1 207 3 is_stmt 1 view .LVU23
  86              		.loc 1 207 7 is_stmt 0 view .LVU24
  87 002c 2000     		movs	r0, r4
  88 002e FFF7FEFF 		bl	HAL_TIM_PWM_Init
  89              	.LVL2:
  90              		.loc 1 207 6 view .LVU25
  91 0032 0028     		cmp	r0, #0
  92 0034 29D1     		bne	.L22
  93              	.L3:
 208:src/system/tim.c ****   {
 209:src/system/tim.c ****     Error_Handler();
 210:src/system/tim.c ****   }
 211:src/system/tim.c ****   sConfigOC.OCMode = TIM_OCMODE_PWM1;
  94              		.loc 1 211 3 is_stmt 1 view .LVU26
 212:src/system/tim.c ****   sConfigOC.Pulse = 0;
  95              		.loc 1 212 3 view .LVU27
 211:src/system/tim.c ****   sConfigOC.Pulse = 0;
  96              		.loc 1 211 20 is_stmt 0 view .LVU28
  97 0036 6022     		movs	r2, #96
  98 0038 0023     		movs	r3, #0
  99 003a 0E92     		str	r2, [sp, #56]
 100 003c 0F93     		str	r3, [sp, #60]
 213:src/system/tim.c ****   sConfigOC.OCPolarity = TIM_OCPOLARITY_HIGH;
 101              		.loc 1 213 3 is_stmt 1 view .LVU29
 102              		.loc 1 213 24 is_stmt 0 view .LVU30
 103 003e 0023     		movs	r3, #0
 214:src/system/tim.c ****   sConfigOC.OCFastMode = TIM_OCFAST_DISABLE;
 215:src/system/tim.c ****   if (HAL_TIM_PWM_ConfigChannel(&htim14, &sConfigOC, TIM_CHANNEL_1) != HAL_OK)
 104              		.loc 1 215 7 view .LVU31
 105 0040 0022     		movs	r2, #0
 106 0042 2000     		movs	r0, r4
 107 0044 0EA9     		add	r1, sp, #56
 213:src/system/tim.c ****   sConfigOC.OCPolarity = TIM_OCPOLARITY_HIGH;
 108              		.loc 1 213 24 view .LVU32
 109 0046 1093     		str	r3, [sp, #64]
 214:src/system/tim.c ****   sConfigOC.OCFastMode = TIM_OCFAST_DISABLE;
 110              		.loc 1 214 3 is_stmt 1 view .LVU33
 214:src/system/tim.c ****   sConfigOC.OCFastMode = TIM_OCFAST_DISABLE;
 111              		.loc 1 214 24 is_stmt 0 view .LVU34
ARM GAS  /tmp/ccJHRQAf.s 			page 7


 112 0048 1293     		str	r3, [sp, #72]
 113              		.loc 1 215 3 is_stmt 1 view .LVU35
 114              		.loc 1 215 7 is_stmt 0 view .LVU36
 115 004a FFF7FEFF 		bl	HAL_TIM_PWM_ConfigChannel
 116              	.LVL3:
 117              		.loc 1 215 6 view .LVU37
 118 004e 0028     		cmp	r0, #0
 119 0050 18D1     		bne	.L23
 120              	.L4:
 216:src/system/tim.c ****   {
 217:src/system/tim.c ****     Error_Handler();
 218:src/system/tim.c ****   }
 219:src/system/tim.c ****   /* USER CODE BEGIN TIM14_Init 2 */
 220:src/system/tim.c **** 
 221:src/system/tim.c ****   /* USER CODE END TIM14_Init 2 */
 222:src/system/tim.c ****   HAL_TIM_MspPostInit(&htim14);
 121              		.loc 1 222 3 is_stmt 1 view .LVU38
 122              	.LVL4:
 123              	.LBB12:
 124              	.LBI12:
 223:src/system/tim.c **** 
 224:src/system/tim.c **** }
 225:src/system/tim.c **** /* TIM16 init function */
 226:src/system/tim.c **** void MX_TIM16_Init(void)
 227:src/system/tim.c **** {
 228:src/system/tim.c **** 
 229:src/system/tim.c ****   /* USER CODE BEGIN TIM16_Init 0 */
 230:src/system/tim.c **** 
 231:src/system/tim.c ****   /* USER CODE END TIM16_Init 0 */
 232:src/system/tim.c **** 
 233:src/system/tim.c ****   TIM_OC_InitTypeDef sConfigOC = {0};
 234:src/system/tim.c ****   TIM_BreakDeadTimeConfigTypeDef sBreakDeadTimeConfig = {0};
 235:src/system/tim.c **** 
 236:src/system/tim.c ****   /* USER CODE BEGIN TIM16_Init 1 */
 237:src/system/tim.c **** 
 238:src/system/tim.c ****   /* USER CODE END TIM16_Init 1 */
 239:src/system/tim.c ****   htim16.Instance = TIM16;
 240:src/system/tim.c ****   htim16.Init.Prescaler = 0;
 241:src/system/tim.c ****   htim16.Init.CounterMode = TIM_COUNTERMODE_UP;
 242:src/system/tim.c ****   htim16.Init.Period = 65535;
 243:src/system/tim.c ****   htim16.Init.ClockDivision = TIM_CLOCKDIVISION_DIV1;
 244:src/system/tim.c ****   htim16.Init.RepetitionCounter = 0;
 245:src/system/tim.c ****   htim16.Init.AutoReloadPreload = TIM_AUTORELOAD_PRELOAD_DISABLE;
 246:src/system/tim.c ****   if (HAL_TIM_Base_Init(&htim16) != HAL_OK)
 247:src/system/tim.c ****   {
 248:src/system/tim.c ****     Error_Handler();
 249:src/system/tim.c ****   }
 250:src/system/tim.c ****   if (HAL_TIM_PWM_Init(&htim16) != HAL_OK)
 251:src/system/tim.c ****   {
 252:src/system/tim.c ****     Error_Handler();
 253:src/system/tim.c ****   }
 254:src/system/tim.c ****   sConfigOC.OCMode = TIM_OCMODE_PWM1;
 255:src/system/tim.c ****   sConfigOC.Pulse = 0;
 256:src/system/tim.c ****   sConfigOC.OCPolarity = TIM_OCPOLARITY_HIGH;
 257:src/system/tim.c ****   sConfigOC.OCNPolarity = TIM_OCNPOLARITY_HIGH;
 258:src/system/tim.c ****   sConfigOC.OCFastMode = TIM_OCFAST_DISABLE;
 259:src/system/tim.c ****   sConfigOC.OCIdleState = TIM_OCIDLESTATE_RESET;
ARM GAS  /tmp/ccJHRQAf.s 			page 8


 260:src/system/tim.c ****   sConfigOC.OCNIdleState = TIM_OCNIDLESTATE_RESET;
 261:src/system/tim.c ****   if (HAL_TIM_PWM_ConfigChannel(&htim16, &sConfigOC, TIM_CHANNEL_1) != HAL_OK)
 262:src/system/tim.c ****   {
 263:src/system/tim.c ****     Error_Handler();
 264:src/system/tim.c ****   }
 265:src/system/tim.c ****   sBreakDeadTimeConfig.OffStateRunMode = TIM_OSSR_DISABLE;
 266:src/system/tim.c ****   sBreakDeadTimeConfig.OffStateIDLEMode = TIM_OSSI_DISABLE;
 267:src/system/tim.c ****   sBreakDeadTimeConfig.LockLevel = TIM_LOCKLEVEL_OFF;
 268:src/system/tim.c ****   sBreakDeadTimeConfig.DeadTime = 0;
 269:src/system/tim.c ****   sBreakDeadTimeConfig.BreakState = TIM_BREAK_DISABLE;
 270:src/system/tim.c ****   sBreakDeadTimeConfig.BreakPolarity = TIM_BREAKPOLARITY_HIGH;
 271:src/system/tim.c ****   sBreakDeadTimeConfig.BreakFilter = 0;
 272:src/system/tim.c ****   sBreakDeadTimeConfig.AutomaticOutput = TIM_AUTOMATICOUTPUT_DISABLE;
 273:src/system/tim.c ****   if (HAL_TIMEx_ConfigBreakDeadTime(&htim16, &sBreakDeadTimeConfig) != HAL_OK)
 274:src/system/tim.c ****   {
 275:src/system/tim.c ****     Error_Handler();
 276:src/system/tim.c ****   }
 277:src/system/tim.c ****   /* USER CODE BEGIN TIM16_Init 2 */
 278:src/system/tim.c **** 
 279:src/system/tim.c ****   /* USER CODE END TIM16_Init 2 */
 280:src/system/tim.c ****   HAL_TIM_MspPostInit(&htim16);
 281:src/system/tim.c **** 
 282:src/system/tim.c **** }
 283:src/system/tim.c **** /* TIM17 init function */
 284:src/system/tim.c **** void MX_TIM17_Init(void)
 285:src/system/tim.c **** {
 286:src/system/tim.c **** 
 287:src/system/tim.c ****   /* USER CODE BEGIN TIM17_Init 0 */
 288:src/system/tim.c **** 
 289:src/system/tim.c ****   /* USER CODE END TIM17_Init 0 */
 290:src/system/tim.c **** 
 291:src/system/tim.c ****   TIM_OC_InitTypeDef sConfigOC = {0};
 292:src/system/tim.c ****   TIM_BreakDeadTimeConfigTypeDef sBreakDeadTimeConfig = {0};
 293:src/system/tim.c **** 
 294:src/system/tim.c ****   /* USER CODE BEGIN TIM17_Init 1 */
 295:src/system/tim.c **** 
 296:src/system/tim.c ****   /* USER CODE END TIM17_Init 1 */
 297:src/system/tim.c ****   htim17.Instance = TIM17;
 298:src/system/tim.c ****   htim17.Init.Prescaler = 0;
 299:src/system/tim.c ****   htim17.Init.CounterMode = TIM_COUNTERMODE_UP;
 300:src/system/tim.c ****   htim17.Init.Period = 65535;
 301:src/system/tim.c ****   htim17.Init.ClockDivision = TIM_CLOCKDIVISION_DIV1;
 302:src/system/tim.c ****   htim17.Init.RepetitionCounter = 0;
 303:src/system/tim.c ****   htim17.Init.AutoReloadPreload = TIM_AUTORELOAD_PRELOAD_DISABLE;
 304:src/system/tim.c ****   if (HAL_TIM_Base_Init(&htim17) != HAL_OK)
 305:src/system/tim.c ****   {
 306:src/system/tim.c ****     Error_Handler();
 307:src/system/tim.c ****   }
 308:src/system/tim.c ****   if (HAL_TIM_PWM_Init(&htim17) != HAL_OK)
 309:src/system/tim.c ****   {
 310:src/system/tim.c ****     Error_Handler();
 311:src/system/tim.c ****   }
 312:src/system/tim.c ****   sConfigOC.OCMode = TIM_OCMODE_PWM1;
 313:src/system/tim.c ****   sConfigOC.Pulse = 0;
 314:src/system/tim.c ****   sConfigOC.OCPolarity = TIM_OCPOLARITY_HIGH;
 315:src/system/tim.c ****   sConfigOC.OCNPolarity = TIM_OCNPOLARITY_HIGH;
 316:src/system/tim.c ****   sConfigOC.OCFastMode = TIM_OCFAST_DISABLE;
ARM GAS  /tmp/ccJHRQAf.s 			page 9


 317:src/system/tim.c ****   sConfigOC.OCIdleState = TIM_OCIDLESTATE_RESET;
 318:src/system/tim.c ****   sConfigOC.OCNIdleState = TIM_OCNIDLESTATE_RESET;
 319:src/system/tim.c ****   if (HAL_TIM_PWM_ConfigChannel(&htim17, &sConfigOC, TIM_CHANNEL_1) != HAL_OK)
 320:src/system/tim.c ****   {
 321:src/system/tim.c ****     Error_Handler();
 322:src/system/tim.c ****   }
 323:src/system/tim.c ****   sBreakDeadTimeConfig.OffStateRunMode = TIM_OSSR_DISABLE;
 324:src/system/tim.c ****   sBreakDeadTimeConfig.OffStateIDLEMode = TIM_OSSI_DISABLE;
 325:src/system/tim.c ****   sBreakDeadTimeConfig.LockLevel = TIM_LOCKLEVEL_OFF;
 326:src/system/tim.c ****   sBreakDeadTimeConfig.DeadTime = 0;
 327:src/system/tim.c ****   sBreakDeadTimeConfig.BreakState = TIM_BREAK_DISABLE;
 328:src/system/tim.c ****   sBreakDeadTimeConfig.BreakPolarity = TIM_BREAKPOLARITY_HIGH;
 329:src/system/tim.c ****   sBreakDeadTimeConfig.BreakFilter = 0;
 330:src/system/tim.c ****   sBreakDeadTimeConfig.AutomaticOutput = TIM_AUTOMATICOUTPUT_DISABLE;
 331:src/system/tim.c ****   if (HAL_TIMEx_ConfigBreakDeadTime(&htim17, &sBreakDeadTimeConfig) != HAL_OK)
 332:src/system/tim.c ****   {
 333:src/system/tim.c ****     Error_Handler();
 334:src/system/tim.c ****   }
 335:src/system/tim.c ****   /* USER CODE BEGIN TIM17_Init 2 */
 336:src/system/tim.c **** 
 337:src/system/tim.c ****   /* USER CODE END TIM17_Init 2 */
 338:src/system/tim.c ****   HAL_TIM_MspPostInit(&htim17);
 339:src/system/tim.c **** 
 340:src/system/tim.c **** }
 341:src/system/tim.c **** 
 342:src/system/tim.c **** void HAL_TIM_Base_MspInit(TIM_HandleTypeDef* tim_baseHandle)
 343:src/system/tim.c **** {
 344:src/system/tim.c **** 
 345:src/system/tim.c ****   if(tim_baseHandle->Instance==TIM1)
 346:src/system/tim.c ****   {
 347:src/system/tim.c ****   /* USER CODE BEGIN TIM1_MspInit 0 */
 348:src/system/tim.c **** 
 349:src/system/tim.c ****   /* USER CODE END TIM1_MspInit 0 */
 350:src/system/tim.c ****     /* TIM1 clock enable */
 351:src/system/tim.c ****     __HAL_RCC_TIM1_CLK_ENABLE();
 352:src/system/tim.c ****   /* USER CODE BEGIN TIM1_MspInit 1 */
 353:src/system/tim.c **** 
 354:src/system/tim.c ****   /* USER CODE END TIM1_MspInit 1 */
 355:src/system/tim.c ****   }
 356:src/system/tim.c ****   else if(tim_baseHandle->Instance==TIM3)
 357:src/system/tim.c ****   {
 358:src/system/tim.c ****   /* USER CODE BEGIN TIM3_MspInit 0 */
 359:src/system/tim.c **** 
 360:src/system/tim.c ****   /* USER CODE END TIM3_MspInit 0 */
 361:src/system/tim.c ****     /* TIM3 clock enable */
 362:src/system/tim.c ****     __HAL_RCC_TIM3_CLK_ENABLE();
 363:src/system/tim.c ****   /* USER CODE BEGIN TIM3_MspInit 1 */
 364:src/system/tim.c **** 
 365:src/system/tim.c ****   /* USER CODE END TIM3_MspInit 1 */
 366:src/system/tim.c ****   }
 367:src/system/tim.c ****   else if(tim_baseHandle->Instance==TIM14)
 368:src/system/tim.c ****   {
 369:src/system/tim.c ****   /* USER CODE BEGIN TIM14_MspInit 0 */
 370:src/system/tim.c **** 
 371:src/system/tim.c ****   /* USER CODE END TIM14_MspInit 0 */
 372:src/system/tim.c ****     /* TIM14 clock enable */
 373:src/system/tim.c ****     __HAL_RCC_TIM14_CLK_ENABLE();
ARM GAS  /tmp/ccJHRQAf.s 			page 10


 374:src/system/tim.c ****   /* USER CODE BEGIN TIM14_MspInit 1 */
 375:src/system/tim.c **** 
 376:src/system/tim.c ****   /* USER CODE END TIM14_MspInit 1 */
 377:src/system/tim.c ****   }
 378:src/system/tim.c ****   else if(tim_baseHandle->Instance==TIM16)
 379:src/system/tim.c ****   {
 380:src/system/tim.c ****   /* USER CODE BEGIN TIM16_MspInit 0 */
 381:src/system/tim.c **** 
 382:src/system/tim.c ****   /* USER CODE END TIM16_MspInit 0 */
 383:src/system/tim.c ****     /* TIM16 clock enable */
 384:src/system/tim.c ****     __HAL_RCC_TIM16_CLK_ENABLE();
 385:src/system/tim.c ****   /* USER CODE BEGIN TIM16_MspInit 1 */
 386:src/system/tim.c **** 
 387:src/system/tim.c ****   /* USER CODE END TIM16_MspInit 1 */
 388:src/system/tim.c ****   }
 389:src/system/tim.c ****   else if(tim_baseHandle->Instance==TIM17)
 390:src/system/tim.c ****   {
 391:src/system/tim.c ****   /* USER CODE BEGIN TIM17_MspInit 0 */
 392:src/system/tim.c **** 
 393:src/system/tim.c ****   /* USER CODE END TIM17_MspInit 0 */
 394:src/system/tim.c ****     /* TIM17 clock enable */
 395:src/system/tim.c ****     __HAL_RCC_TIM17_CLK_ENABLE();
 396:src/system/tim.c ****   /* USER CODE BEGIN TIM17_MspInit 1 */
 397:src/system/tim.c **** 
 398:src/system/tim.c ****   /* USER CODE END TIM17_MspInit 1 */
 399:src/system/tim.c ****   }
 400:src/system/tim.c **** }
 401:src/system/tim.c **** void HAL_TIM_MspPostInit(TIM_HandleTypeDef* timHandle)
 125              		.loc 1 401 6 view .LVU39
 126              	.LBB13:
 402:src/system/tim.c **** {
 403:src/system/tim.c **** 
 404:src/system/tim.c ****   GPIO_InitTypeDef GPIO_InitStruct = {0};
 127              		.loc 1 404 3 view .LVU40
 128              		.loc 1 404 20 is_stmt 0 view .LVU41
 129 0052 1422     		movs	r2, #20
 130 0054 0021     		movs	r1, #0
 131 0056 08A8     		add	r0, sp, #32
 132 0058 FFF7FEFF 		bl	memset
 133              	.LVL5:
 405:src/system/tim.c ****   if(timHandle->Instance==TIM1)
 134              		.loc 1 405 3 is_stmt 1 view .LVU42
 135              		.loc 1 405 15 is_stmt 0 view .LVU43
 136 005c 2368     		ldr	r3, [r4]
 137              		.loc 1 405 5 view .LVU44
 138 005e 634A     		ldr	r2, .L29+12
 139 0060 9342     		cmp	r3, r2
 140 0062 2CD0     		beq	.L24
 406:src/system/tim.c ****   {
 407:src/system/tim.c ****   /* USER CODE BEGIN TIM1_MspPostInit 0 */
 408:src/system/tim.c **** 
 409:src/system/tim.c ****   /* USER CODE END TIM1_MspPostInit 0 */
 410:src/system/tim.c ****     __HAL_RCC_GPIOF_CLK_ENABLE();
 411:src/system/tim.c ****     __HAL_RCC_GPIOA_CLK_ENABLE();
 412:src/system/tim.c ****     /**TIM1 GPIO Configuration
 413:src/system/tim.c ****     PF2-NRST     ------> TIM1_CH4
 414:src/system/tim.c ****     PA0     ------> TIM1_CH1
ARM GAS  /tmp/ccJHRQAf.s 			page 11


 415:src/system/tim.c ****     PA1     ------> TIM1_CH2
 416:src/system/tim.c ****     */
 417:src/system/tim.c ****     GPIO_InitStruct.Pin = GPIO_PIN_2;
 418:src/system/tim.c ****     GPIO_InitStruct.Mode = GPIO_MODE_AF_PP;
 419:src/system/tim.c ****     GPIO_InitStruct.Pull = GPIO_NOPULL;
 420:src/system/tim.c ****     GPIO_InitStruct.Speed = GPIO_SPEED_FREQ_LOW;
 421:src/system/tim.c ****     GPIO_InitStruct.Alternate = GPIO_AF1_TIM1;
 422:src/system/tim.c ****     HAL_GPIO_Init(GPIOF, &GPIO_InitStruct);
 423:src/system/tim.c **** 
 424:src/system/tim.c ****     GPIO_InitStruct.Pin = GPIO_PIN_0|GPIO_PIN_1;
 425:src/system/tim.c ****     GPIO_InitStruct.Mode = GPIO_MODE_AF_PP;
 426:src/system/tim.c ****     GPIO_InitStruct.Pull = GPIO_NOPULL;
 427:src/system/tim.c ****     GPIO_InitStruct.Speed = GPIO_SPEED_FREQ_LOW;
 428:src/system/tim.c ****     GPIO_InitStruct.Alternate = GPIO_AF5_TIM1;
 429:src/system/tim.c ****     HAL_GPIO_Init(GPIOA, &GPIO_InitStruct);
 430:src/system/tim.c **** 
 431:src/system/tim.c ****   /* USER CODE BEGIN TIM1_MspPostInit 1 */
 432:src/system/tim.c **** 
 433:src/system/tim.c ****   /* USER CODE END TIM1_MspPostInit 1 */
 434:src/system/tim.c ****   }
 435:src/system/tim.c ****   else if(timHandle->Instance==TIM3)
 141              		.loc 1 435 8 is_stmt 1 view .LVU45
 142              		.loc 1 435 10 is_stmt 0 view .LVU46
 143 0064 624A     		ldr	r2, .L29+16
 144 0066 9342     		cmp	r3, r2
 145 0068 52D0     		beq	.L25
 436:src/system/tim.c ****   {
 437:src/system/tim.c ****   /* USER CODE BEGIN TIM3_MspPostInit 0 */
 438:src/system/tim.c **** 
 439:src/system/tim.c ****   /* USER CODE END TIM3_MspPostInit 0 */
 440:src/system/tim.c **** 
 441:src/system/tim.c ****     __HAL_RCC_GPIOC_CLK_ENABLE();
 442:src/system/tim.c ****     __HAL_RCC_GPIOA_CLK_ENABLE();
 443:src/system/tim.c ****     __HAL_RCC_GPIOB_CLK_ENABLE();
 444:src/system/tim.c ****     /**TIM3 GPIO Configuration
 445:src/system/tim.c ****     PC14-OSCX_IN (PC14)     ------> TIM3_CH2
 446:src/system/tim.c ****     PC15-OSCX_OUT (PC15)     ------> TIM3_CH3
 447:src/system/tim.c ****     PA6     ------> TIM3_CH1
 448:src/system/tim.c ****     PB1     ------> TIM3_CH4
 449:src/system/tim.c ****     */
 450:src/system/tim.c ****     GPIO_InitStruct.Pin = GPIO_PIN_14;
 451:src/system/tim.c ****     GPIO_InitStruct.Mode = GPIO_MODE_AF_PP;
 452:src/system/tim.c ****     GPIO_InitStruct.Pull = GPIO_NOPULL;
 453:src/system/tim.c ****     GPIO_InitStruct.Speed = GPIO_SPEED_FREQ_LOW;
 454:src/system/tim.c ****     GPIO_InitStruct.Alternate = GPIO_AF11_TIM3;
 455:src/system/tim.c ****     HAL_GPIO_Init(GPIOC, &GPIO_InitStruct);
 456:src/system/tim.c **** 
 457:src/system/tim.c ****     GPIO_InitStruct.Pin = GPIO_PIN_15;
 458:src/system/tim.c ****     GPIO_InitStruct.Mode = GPIO_MODE_AF_PP;
 459:src/system/tim.c ****     GPIO_InitStruct.Pull = GPIO_NOPULL;
 460:src/system/tim.c ****     GPIO_InitStruct.Speed = GPIO_SPEED_FREQ_LOW;
 461:src/system/tim.c ****     GPIO_InitStruct.Alternate = GPIO_AF3_TIM3;
 462:src/system/tim.c ****     HAL_GPIO_Init(GPIOC, &GPIO_InitStruct);
 463:src/system/tim.c **** 
 464:src/system/tim.c ****     GPIO_InitStruct.Pin = GPIO_PIN_6;
 465:src/system/tim.c ****     GPIO_InitStruct.Mode = GPIO_MODE_AF_PP;
 466:src/system/tim.c ****     GPIO_InitStruct.Pull = GPIO_NOPULL;
ARM GAS  /tmp/ccJHRQAf.s 			page 12


 467:src/system/tim.c ****     GPIO_InitStruct.Speed = GPIO_SPEED_FREQ_LOW;
 468:src/system/tim.c ****     GPIO_InitStruct.Alternate = GPIO_AF1_TIM3;
 469:src/system/tim.c ****     HAL_GPIO_Init(GPIOA, &GPIO_InitStruct);
 470:src/system/tim.c **** 
 471:src/system/tim.c ****     GPIO_InitStruct.Pin = GPIO_PIN_1;
 472:src/system/tim.c ****     GPIO_InitStruct.Mode = GPIO_MODE_AF_PP;
 473:src/system/tim.c ****     GPIO_InitStruct.Pull = GPIO_NOPULL;
 474:src/system/tim.c ****     GPIO_InitStruct.Speed = GPIO_SPEED_FREQ_LOW;
 475:src/system/tim.c ****     GPIO_InitStruct.Alternate = GPIO_AF1_TIM3;
 476:src/system/tim.c ****     HAL_GPIO_Init(GPIOB, &GPIO_InitStruct);
 477:src/system/tim.c **** 
 478:src/system/tim.c ****   /* USER CODE BEGIN TIM3_MspPostInit 1 */
 479:src/system/tim.c **** 
 480:src/system/tim.c ****   /* USER CODE END TIM3_MspPostInit 1 */
 481:src/system/tim.c ****   }
 482:src/system/tim.c ****   else if(timHandle->Instance==TIM14)
 146              		.loc 1 482 8 is_stmt 1 view .LVU47
 147              		.loc 1 482 10 is_stmt 0 view .LVU48
 148 006a 5E4A     		ldr	r2, .L29+4
 149 006c 9342     		cmp	r3, r2
 150 006e 00D1     		bne	.LCB92
 151 0070 94E0     		b	.L26	@long jump
 152              	.LCB92:
 483:src/system/tim.c ****   {
 484:src/system/tim.c ****   /* USER CODE BEGIN TIM14_MspPostInit 0 */
 485:src/system/tim.c **** 
 486:src/system/tim.c ****   /* USER CODE END TIM14_MspPostInit 0 */
 487:src/system/tim.c **** 
 488:src/system/tim.c ****     __HAL_RCC_GPIOF_CLK_ENABLE();
 489:src/system/tim.c ****     /**TIM14 GPIO Configuration
 490:src/system/tim.c ****     PF0-OSC_IN (PF0)     ------> TIM14_CH1
 491:src/system/tim.c ****     */
 492:src/system/tim.c ****     GPIO_InitStruct.Pin = GPIO_PIN_0;
 493:src/system/tim.c ****     GPIO_InitStruct.Mode = GPIO_MODE_AF_PP;
 494:src/system/tim.c ****     GPIO_InitStruct.Pull = GPIO_NOPULL;
 495:src/system/tim.c ****     GPIO_InitStruct.Speed = GPIO_SPEED_FREQ_LOW;
 496:src/system/tim.c ****     GPIO_InitStruct.Alternate = GPIO_AF2_TIM14;
 497:src/system/tim.c ****     HAL_GPIO_Init(GPIOF, &GPIO_InitStruct);
 498:src/system/tim.c **** 
 499:src/system/tim.c ****   /* USER CODE BEGIN TIM14_MspPostInit 1 */
 500:src/system/tim.c **** 
 501:src/system/tim.c ****   /* USER CODE END TIM14_MspPostInit 1 */
 502:src/system/tim.c ****   }
 503:src/system/tim.c ****   else if(timHandle->Instance==TIM16)
 153              		.loc 1 503 8 is_stmt 1 view .LVU49
 154              		.loc 1 503 10 is_stmt 0 view .LVU50
 155 0072 604A     		ldr	r2, .L29+20
 156 0074 9342     		cmp	r3, r2
 157 0076 0ED0     		beq	.L27
 504:src/system/tim.c ****   {
 505:src/system/tim.c ****   /* USER CODE BEGIN TIM16_MspPostInit 0 */
 506:src/system/tim.c **** 
 507:src/system/tim.c ****   /* USER CODE END TIM16_MspPostInit 0 */
 508:src/system/tim.c **** 
 509:src/system/tim.c ****     __HAL_RCC_GPIOD_CLK_ENABLE();
 510:src/system/tim.c ****     /**TIM16 GPIO Configuration
 511:src/system/tim.c ****     PD0     ------> TIM16_CH1
ARM GAS  /tmp/ccJHRQAf.s 			page 13


 512:src/system/tim.c ****     */
 513:src/system/tim.c ****     GPIO_InitStruct.Pin = GPIO_PIN_0;
 514:src/system/tim.c ****     GPIO_InitStruct.Mode = GPIO_MODE_AF_PP;
 515:src/system/tim.c ****     GPIO_InitStruct.Pull = GPIO_NOPULL;
 516:src/system/tim.c ****     GPIO_InitStruct.Speed = GPIO_SPEED_FREQ_LOW;
 517:src/system/tim.c ****     GPIO_InitStruct.Alternate = GPIO_AF2_TIM16;
 518:src/system/tim.c ****     HAL_GPIO_Init(GPIOD, &GPIO_InitStruct);
 519:src/system/tim.c **** 
 520:src/system/tim.c ****   /* USER CODE BEGIN TIM16_MspPostInit 1 */
 521:src/system/tim.c **** 
 522:src/system/tim.c ****   /* USER CODE END TIM16_MspPostInit 1 */
 523:src/system/tim.c ****   }
 524:src/system/tim.c ****   else if(timHandle->Instance==TIM17)
 158              		.loc 1 524 8 is_stmt 1 view .LVU51
 159              		.loc 1 524 10 is_stmt 0 view .LVU52
 160 0078 5F4A     		ldr	r2, .L29+24
 161 007a 9342     		cmp	r3, r2
 162 007c 00D1     		bne	.LCB100
 163 007e A1E0     		b	.L28	@long jump
 164              	.LCB100:
 165              	.LVL6:
 166              	.L1:
 167              		.loc 1 524 10 view .LVU53
 168              	.LBE13:
 169              	.LBE12:
 224:src/system/tim.c **** /* TIM16 init function */
 170              		.loc 1 224 1 view .LVU54
 171 0080 16B0     		add	sp, sp, #88
 172              		@ sp needed
 173 0082 70BD     		pop	{r4, r5, r6, pc}
 174              	.L23:
 217:src/system/tim.c ****   }
 175              		.loc 1 217 5 is_stmt 1 view .LVU55
 176 0084 FFF7FEFF 		bl	Error_Handler
 177              	.LVL7:
 178 0088 E3E7     		b	.L4
 179              	.L22:
 209:src/system/tim.c ****   }
 180              		.loc 1 209 5 view .LVU56
 181 008a FFF7FEFF 		bl	Error_Handler
 182              	.LVL8:
 183 008e D2E7     		b	.L3
 184              	.L21:
 205:src/system/tim.c ****   }
 185              		.loc 1 205 5 view .LVU57
 186 0090 FFF7FEFF 		bl	Error_Handler
 187              	.LVL9:
 188 0094 CAE7     		b	.L2
 189              	.LVL10:
 190              	.L27:
 191              	.LBB42:
 192              	.LBB40:
 509:src/system/tim.c ****     /**TIM16 GPIO Configuration
 193              		.loc 1 509 5 view .LVU58
 194              	.LBB14:
 509:src/system/tim.c ****     /**TIM16 GPIO Configuration
 195              		.loc 1 509 5 view .LVU59
ARM GAS  /tmp/ccJHRQAf.s 			page 14


 509:src/system/tim.c ****     /**TIM16 GPIO Configuration
 196              		.loc 1 509 5 view .LVU60
 197 0096 0823     		movs	r3, #8
 198 0098 584A     		ldr	r2, .L29+28
 199              	.LBE14:
 518:src/system/tim.c **** 
 200              		.loc 1 518 5 is_stmt 0 view .LVU61
 201 009a 5948     		ldr	r0, .L29+32
 202              	.LBB15:
 509:src/system/tim.c ****     /**TIM16 GPIO Configuration
 203              		.loc 1 509 5 view .LVU62
 204 009c 516B     		ldr	r1, [r2, #52]
 205 009e 1943     		orrs	r1, r3
 206 00a0 5163     		str	r1, [r2, #52]
 509:src/system/tim.c ****     /**TIM16 GPIO Configuration
 207              		.loc 1 509 5 is_stmt 1 view .LVU63
 208 00a2 526B     		ldr	r2, [r2, #52]
 209              	.LBE15:
 518:src/system/tim.c **** 
 210              		.loc 1 518 5 is_stmt 0 view .LVU64
 211 00a4 08A9     		add	r1, sp, #32
 212              	.LBB16:
 509:src/system/tim.c ****     /**TIM16 GPIO Configuration
 213              		.loc 1 509 5 view .LVU65
 214 00a6 1340     		ands	r3, r2
 215 00a8 0693     		str	r3, [sp, #24]
 509:src/system/tim.c ****     /**TIM16 GPIO Configuration
 216              		.loc 1 509 5 is_stmt 1 view .LVU66
 217              	.LBE16:
 513:src/system/tim.c ****     GPIO_InitStruct.Mode = GPIO_MODE_AF_PP;
 218              		.loc 1 513 25 is_stmt 0 view .LVU67
 219 00aa 0122     		movs	r2, #1
 220              	.LBB17:
 509:src/system/tim.c ****     /**TIM16 GPIO Configuration
 221              		.loc 1 509 5 view .LVU68
 222 00ac 069B     		ldr	r3, [sp, #24]
 223              	.LBE17:
 509:src/system/tim.c ****     /**TIM16 GPIO Configuration
 224              		.loc 1 509 5 is_stmt 1 view .LVU69
 513:src/system/tim.c ****     GPIO_InitStruct.Mode = GPIO_MODE_AF_PP;
 225              		.loc 1 513 5 view .LVU70
 514:src/system/tim.c ****     GPIO_InitStruct.Pull = GPIO_NOPULL;
 226              		.loc 1 514 5 view .LVU71
 513:src/system/tim.c ****     GPIO_InitStruct.Mode = GPIO_MODE_AF_PP;
 227              		.loc 1 513 25 is_stmt 0 view .LVU72
 228 00ae 0223     		movs	r3, #2
 229 00b0 0892     		str	r2, [sp, #32]
 230 00b2 0993     		str	r3, [sp, #36]
 515:src/system/tim.c ****     GPIO_InitStruct.Speed = GPIO_SPEED_FREQ_LOW;
 231              		.loc 1 515 5 is_stmt 1 view .LVU73
 516:src/system/tim.c ****     GPIO_InitStruct.Alternate = GPIO_AF2_TIM16;
 232              		.loc 1 516 5 view .LVU74
 517:src/system/tim.c ****     HAL_GPIO_Init(GPIOD, &GPIO_InitStruct);
 233              		.loc 1 517 5 view .LVU75
 517:src/system/tim.c ****     HAL_GPIO_Init(GPIOD, &GPIO_InitStruct);
 234              		.loc 1 517 31 is_stmt 0 view .LVU76
 235 00b4 0223     		movs	r3, #2
ARM GAS  /tmp/ccJHRQAf.s 			page 15


 236 00b6 0C93     		str	r3, [sp, #48]
 518:src/system/tim.c **** 
 237              		.loc 1 518 5 is_stmt 1 view .LVU77
 238 00b8 FFF7FEFF 		bl	HAL_GPIO_Init
 239              	.LVL11:
 240 00bc E0E7     		b	.L1
 241              	.L24:
 410:src/system/tim.c ****     __HAL_RCC_GPIOA_CLK_ENABLE();
 242              		.loc 1 410 5 view .LVU78
 243              	.LBB18:
 410:src/system/tim.c ****     __HAL_RCC_GPIOA_CLK_ENABLE();
 244              		.loc 1 410 5 view .LVU79
 410:src/system/tim.c ****     __HAL_RCC_GPIOA_CLK_ENABLE();
 245              		.loc 1 410 5 view .LVU80
 246 00be 2022     		movs	r2, #32
 247 00c0 4E4B     		ldr	r3, .L29+28
 248              	.LBE18:
 417:src/system/tim.c ****     GPIO_InitStruct.Mode = GPIO_MODE_AF_PP;
 249              		.loc 1 417 25 is_stmt 0 view .LVU81
 250 00c2 0420     		movs	r0, #4
 251              	.LBB19:
 410:src/system/tim.c ****     __HAL_RCC_GPIOA_CLK_ENABLE();
 252              		.loc 1 410 5 view .LVU82
 253 00c4 596B     		ldr	r1, [r3, #52]
 254 00c6 1143     		orrs	r1, r2
 255 00c8 5963     		str	r1, [r3, #52]
 410:src/system/tim.c ****     __HAL_RCC_GPIOA_CLK_ENABLE();
 256              		.loc 1 410 5 is_stmt 1 view .LVU83
 257 00ca 596B     		ldr	r1, [r3, #52]
 258 00cc 0A40     		ands	r2, r1
 259 00ce 0092     		str	r2, [sp]
 410:src/system/tim.c ****     __HAL_RCC_GPIOA_CLK_ENABLE();
 260              		.loc 1 410 5 view .LVU84
 261 00d0 009A     		ldr	r2, [sp]
 262              	.LBE19:
 410:src/system/tim.c ****     __HAL_RCC_GPIOA_CLK_ENABLE();
 263              		.loc 1 410 5 view .LVU85
 411:src/system/tim.c ****     /**TIM1 GPIO Configuration
 264              		.loc 1 411 5 view .LVU86
 265              	.LBB20:
 411:src/system/tim.c ****     /**TIM1 GPIO Configuration
 266              		.loc 1 411 5 view .LVU87
 411:src/system/tim.c ****     /**TIM1 GPIO Configuration
 267              		.loc 1 411 5 view .LVU88
 268 00d2 0122     		movs	r2, #1
 269 00d4 596B     		ldr	r1, [r3, #52]
 270 00d6 1143     		orrs	r1, r2
 271 00d8 5963     		str	r1, [r3, #52]
 411:src/system/tim.c ****     /**TIM1 GPIO Configuration
 272              		.loc 1 411 5 view .LVU89
 273              	.LBE20:
 417:src/system/tim.c ****     GPIO_InitStruct.Mode = GPIO_MODE_AF_PP;
 274              		.loc 1 417 25 is_stmt 0 view .LVU90
 275 00da 0221     		movs	r1, #2
 276              	.LBB21:
 411:src/system/tim.c ****     /**TIM1 GPIO Configuration
 277              		.loc 1 411 5 view .LVU91
ARM GAS  /tmp/ccJHRQAf.s 			page 16


 278 00dc 5B6B     		ldr	r3, [r3, #52]
 279              	.LBE21:
 417:src/system/tim.c ****     GPIO_InitStruct.Mode = GPIO_MODE_AF_PP;
 280              		.loc 1 417 25 view .LVU92
 281 00de 0890     		str	r0, [sp, #32]
 282 00e0 0991     		str	r1, [sp, #36]
 283              	.LBB22:
 411:src/system/tim.c ****     /**TIM1 GPIO Configuration
 284              		.loc 1 411 5 view .LVU93
 285 00e2 1340     		ands	r3, r2
 286 00e4 0193     		str	r3, [sp, #4]
 411:src/system/tim.c ****     /**TIM1 GPIO Configuration
 287              		.loc 1 411 5 is_stmt 1 view .LVU94
 288              	.LBE22:
 422:src/system/tim.c **** 
 289              		.loc 1 422 5 is_stmt 0 view .LVU95
 290 00e6 4748     		ldr	r0, .L29+36
 291 00e8 08A9     		add	r1, sp, #32
 292              	.LBB23:
 411:src/system/tim.c ****     /**TIM1 GPIO Configuration
 293              		.loc 1 411 5 view .LVU96
 294 00ea 019B     		ldr	r3, [sp, #4]
 295              	.LBE23:
 411:src/system/tim.c ****     /**TIM1 GPIO Configuration
 296              		.loc 1 411 5 is_stmt 1 view .LVU97
 417:src/system/tim.c ****     GPIO_InitStruct.Mode = GPIO_MODE_AF_PP;
 297              		.loc 1 417 5 view .LVU98
 418:src/system/tim.c ****     GPIO_InitStruct.Pull = GPIO_NOPULL;
 298              		.loc 1 418 5 view .LVU99
 419:src/system/tim.c ****     GPIO_InitStruct.Speed = GPIO_SPEED_FREQ_LOW;
 299              		.loc 1 419 5 view .LVU100
 420:src/system/tim.c ****     GPIO_InitStruct.Alternate = GPIO_AF1_TIM1;
 300              		.loc 1 420 5 view .LVU101
 421:src/system/tim.c ****     HAL_GPIO_Init(GPIOF, &GPIO_InitStruct);
 301              		.loc 1 421 5 view .LVU102
 421:src/system/tim.c ****     HAL_GPIO_Init(GPIOF, &GPIO_InitStruct);
 302              		.loc 1 421 31 is_stmt 0 view .LVU103
 303 00ec 0C92     		str	r2, [sp, #48]
 422:src/system/tim.c **** 
 304              		.loc 1 422 5 is_stmt 1 view .LVU104
 305 00ee FFF7FEFF 		bl	HAL_GPIO_Init
 306              	.LVL12:
 424:src/system/tim.c ****     GPIO_InitStruct.Mode = GPIO_MODE_AF_PP;
 307              		.loc 1 424 5 view .LVU105
 424:src/system/tim.c ****     GPIO_InitStruct.Mode = GPIO_MODE_AF_PP;
 308              		.loc 1 424 25 is_stmt 0 view .LVU106
 309 00f2 0323     		movs	r3, #3
 310 00f4 0893     		str	r3, [sp, #32]
 425:src/system/tim.c ****     GPIO_InitStruct.Pull = GPIO_NOPULL;
 311              		.loc 1 425 5 is_stmt 1 view .LVU107
 425:src/system/tim.c ****     GPIO_InitStruct.Pull = GPIO_NOPULL;
 312              		.loc 1 425 26 is_stmt 0 view .LVU108
 313 00f6 013B     		subs	r3, r3, #1
 314 00f8 0993     		str	r3, [sp, #36]
 426:src/system/tim.c ****     GPIO_InitStruct.Speed = GPIO_SPEED_FREQ_LOW;
 315              		.loc 1 426 5 is_stmt 1 view .LVU109
 426:src/system/tim.c ****     GPIO_InitStruct.Speed = GPIO_SPEED_FREQ_LOW;
ARM GAS  /tmp/ccJHRQAf.s 			page 17


 316              		.loc 1 426 26 is_stmt 0 view .LVU110
 317 00fa 0023     		movs	r3, #0
 318 00fc 0A93     		str	r3, [sp, #40]
 427:src/system/tim.c ****     GPIO_InitStruct.Alternate = GPIO_AF5_TIM1;
 319              		.loc 1 427 5 is_stmt 1 view .LVU111
 427:src/system/tim.c ****     GPIO_InitStruct.Alternate = GPIO_AF5_TIM1;
 320              		.loc 1 427 27 is_stmt 0 view .LVU112
 321 00fe 0B93     		str	r3, [sp, #44]
 428:src/system/tim.c ****     HAL_GPIO_Init(GPIOA, &GPIO_InitStruct);
 322              		.loc 1 428 5 is_stmt 1 view .LVU113
 323              	.L19:
 525:src/system/tim.c ****   {
 526:src/system/tim.c ****   /* USER CODE BEGIN TIM17_MspPostInit 0 */
 527:src/system/tim.c **** 
 528:src/system/tim.c ****   /* USER CODE END TIM17_MspPostInit 0 */
 529:src/system/tim.c **** 
 530:src/system/tim.c ****     __HAL_RCC_GPIOA_CLK_ENABLE();
 531:src/system/tim.c ****     /**TIM17 GPIO Configuration
 532:src/system/tim.c ****     PA7     ------> TIM17_CH1
 533:src/system/tim.c ****     */
 534:src/system/tim.c ****     GPIO_InitStruct.Pin = GPIO_PIN_7;
 535:src/system/tim.c ****     GPIO_InitStruct.Mode = GPIO_MODE_AF_PP;
 536:src/system/tim.c ****     GPIO_InitStruct.Pull = GPIO_NOPULL;
 324              		.loc 1 536 5 view .LVU114
 537:src/system/tim.c ****     GPIO_InitStruct.Speed = GPIO_SPEED_FREQ_LOW;
 325              		.loc 1 537 5 view .LVU115
 538:src/system/tim.c ****     GPIO_InitStruct.Alternate = GPIO_AF5_TIM17;
 326              		.loc 1 538 5 view .LVU116
 539:src/system/tim.c ****     HAL_GPIO_Init(GPIOA, &GPIO_InitStruct);
 327              		.loc 1 539 5 is_stmt 0 view .LVU117
 328 0100 A020     		movs	r0, #160
 538:src/system/tim.c ****     GPIO_InitStruct.Alternate = GPIO_AF5_TIM17;
 329              		.loc 1 538 31 view .LVU118
 330 0102 0523     		movs	r3, #5
 331              		.loc 1 539 5 view .LVU119
 332 0104 08A9     		add	r1, sp, #32
 333 0106 C005     		lsls	r0, r0, #23
 538:src/system/tim.c ****     GPIO_InitStruct.Alternate = GPIO_AF5_TIM17;
 334              		.loc 1 538 31 view .LVU120
 335 0108 0C93     		str	r3, [sp, #48]
 336              		.loc 1 539 5 is_stmt 1 view .LVU121
 337 010a FFF7FEFF 		bl	HAL_GPIO_Init
 338              	.LVL13:
 339              		.loc 1 539 5 is_stmt 0 view .LVU122
 340              	.LBE40:
 341              	.LBE42:
 224:src/system/tim.c **** /* TIM16 init function */
 342              		.loc 1 224 1 view .LVU123
 343 010e B7E7     		b	.L1
 344              	.LVL14:
 345              	.L25:
 346              	.LBB43:
 347              	.LBB41:
 441:src/system/tim.c ****     __HAL_RCC_GPIOA_CLK_ENABLE();
 348              		.loc 1 441 5 is_stmt 1 view .LVU124
 349              	.LBB24:
 441:src/system/tim.c ****     __HAL_RCC_GPIOA_CLK_ENABLE();
ARM GAS  /tmp/ccJHRQAf.s 			page 18


 350              		.loc 1 441 5 view .LVU125
 441:src/system/tim.c ****     __HAL_RCC_GPIOA_CLK_ENABLE();
 351              		.loc 1 441 5 view .LVU126
 352 0110 0422     		movs	r2, #4
 353              	.LBE24:
 354              	.LBB25:
 442:src/system/tim.c ****     __HAL_RCC_GPIOB_CLK_ENABLE();
 355              		.loc 1 442 5 is_stmt 0 view .LVU127
 356 0112 0126     		movs	r6, #1
 357              	.LBE25:
 358              	.LBB26:
 443:src/system/tim.c ****     /**TIM3 GPIO Configuration
 359              		.loc 1 443 5 view .LVU128
 360 0114 0225     		movs	r5, #2
 361              	.LBE26:
 362              	.LBB27:
 441:src/system/tim.c ****     __HAL_RCC_GPIOA_CLK_ENABLE();
 363              		.loc 1 441 5 view .LVU129
 364 0116 394B     		ldr	r3, .L29+28
 365              	.LBE27:
 455:src/system/tim.c **** 
 366              		.loc 1 455 5 view .LVU130
 367 0118 3B48     		ldr	r0, .L29+40
 368              	.LBB28:
 441:src/system/tim.c ****     __HAL_RCC_GPIOA_CLK_ENABLE();
 369              		.loc 1 441 5 view .LVU131
 370 011a 596B     		ldr	r1, [r3, #52]
 371              	.LBE28:
 459:src/system/tim.c ****     GPIO_InitStruct.Speed = GPIO_SPEED_FREQ_LOW;
 372              		.loc 1 459 26 view .LVU132
 373 011c 0024     		movs	r4, #0
 374              	.LBB29:
 441:src/system/tim.c ****     __HAL_RCC_GPIOA_CLK_ENABLE();
 375              		.loc 1 441 5 view .LVU133
 376 011e 1143     		orrs	r1, r2
 377 0120 5963     		str	r1, [r3, #52]
 441:src/system/tim.c ****     __HAL_RCC_GPIOA_CLK_ENABLE();
 378              		.loc 1 441 5 is_stmt 1 view .LVU134
 379 0122 596B     		ldr	r1, [r3, #52]
 380 0124 0A40     		ands	r2, r1
 381 0126 0292     		str	r2, [sp, #8]
 441:src/system/tim.c ****     __HAL_RCC_GPIOA_CLK_ENABLE();
 382              		.loc 1 441 5 view .LVU135
 383 0128 029A     		ldr	r2, [sp, #8]
 384              	.LBE29:
 441:src/system/tim.c ****     __HAL_RCC_GPIOA_CLK_ENABLE();
 385              		.loc 1 441 5 view .LVU136
 442:src/system/tim.c ****     __HAL_RCC_GPIOB_CLK_ENABLE();
 386              		.loc 1 442 5 view .LVU137
 387              	.LBB30:
 442:src/system/tim.c ****     __HAL_RCC_GPIOB_CLK_ENABLE();
 388              		.loc 1 442 5 view .LVU138
 442:src/system/tim.c ****     __HAL_RCC_GPIOB_CLK_ENABLE();
 389              		.loc 1 442 5 view .LVU139
 390 012a 5A6B     		ldr	r2, [r3, #52]
 391              	.LBE30:
 455:src/system/tim.c **** 
ARM GAS  /tmp/ccJHRQAf.s 			page 19


 392              		.loc 1 455 5 is_stmt 0 view .LVU140
 393 012c 08A9     		add	r1, sp, #32
 394              	.LBB31:
 442:src/system/tim.c ****     __HAL_RCC_GPIOB_CLK_ENABLE();
 395              		.loc 1 442 5 view .LVU141
 396 012e 3243     		orrs	r2, r6
 397 0130 5A63     		str	r2, [r3, #52]
 442:src/system/tim.c ****     __HAL_RCC_GPIOB_CLK_ENABLE();
 398              		.loc 1 442 5 is_stmt 1 view .LVU142
 399 0132 5A6B     		ldr	r2, [r3, #52]
 400 0134 3240     		ands	r2, r6
 401 0136 0392     		str	r2, [sp, #12]
 442:src/system/tim.c ****     __HAL_RCC_GPIOB_CLK_ENABLE();
 402              		.loc 1 442 5 view .LVU143
 403 0138 039A     		ldr	r2, [sp, #12]
 404              	.LBE31:
 442:src/system/tim.c ****     __HAL_RCC_GPIOB_CLK_ENABLE();
 405              		.loc 1 442 5 view .LVU144
 443:src/system/tim.c ****     /**TIM3 GPIO Configuration
 406              		.loc 1 443 5 view .LVU145
 407              	.LBB32:
 443:src/system/tim.c ****     /**TIM3 GPIO Configuration
 408              		.loc 1 443 5 view .LVU146
 443:src/system/tim.c ****     /**TIM3 GPIO Configuration
 409              		.loc 1 443 5 view .LVU147
 410 013a 5A6B     		ldr	r2, [r3, #52]
 411 013c 2A43     		orrs	r2, r5
 412 013e 5A63     		str	r2, [r3, #52]
 443:src/system/tim.c ****     /**TIM3 GPIO Configuration
 413              		.loc 1 443 5 view .LVU148
 414 0140 5B6B     		ldr	r3, [r3, #52]
 415              	.LBE32:
 450:src/system/tim.c ****     GPIO_InitStruct.Mode = GPIO_MODE_AF_PP;
 416              		.loc 1 450 25 is_stmt 0 view .LVU149
 417 0142 8022     		movs	r2, #128
 418              	.LBB33:
 443:src/system/tim.c ****     /**TIM3 GPIO Configuration
 419              		.loc 1 443 5 view .LVU150
 420 0144 2B40     		ands	r3, r5
 421 0146 0493     		str	r3, [sp, #16]
 443:src/system/tim.c ****     /**TIM3 GPIO Configuration
 422              		.loc 1 443 5 is_stmt 1 view .LVU151
 423 0148 049B     		ldr	r3, [sp, #16]
 424              	.LBE33:
 443:src/system/tim.c ****     /**TIM3 GPIO Configuration
 425              		.loc 1 443 5 view .LVU152
 450:src/system/tim.c ****     GPIO_InitStruct.Mode = GPIO_MODE_AF_PP;
 426              		.loc 1 450 5 view .LVU153
 451:src/system/tim.c ****     GPIO_InitStruct.Pull = GPIO_NOPULL;
 427              		.loc 1 451 5 view .LVU154
 450:src/system/tim.c ****     GPIO_InitStruct.Mode = GPIO_MODE_AF_PP;
 428              		.loc 1 450 25 is_stmt 0 view .LVU155
 429 014a 0223     		movs	r3, #2
 430 014c D201     		lsls	r2, r2, #7
 431 014e 0892     		str	r2, [sp, #32]
 432 0150 0993     		str	r3, [sp, #36]
 452:src/system/tim.c ****     GPIO_InitStruct.Speed = GPIO_SPEED_FREQ_LOW;
ARM GAS  /tmp/ccJHRQAf.s 			page 20


 433              		.loc 1 452 5 is_stmt 1 view .LVU156
 453:src/system/tim.c ****     GPIO_InitStruct.Alternate = GPIO_AF11_TIM3;
 434              		.loc 1 453 5 view .LVU157
 454:src/system/tim.c ****     HAL_GPIO_Init(GPIOC, &GPIO_InitStruct);
 435              		.loc 1 454 5 view .LVU158
 454:src/system/tim.c ****     HAL_GPIO_Init(GPIOC, &GPIO_InitStruct);
 436              		.loc 1 454 31 is_stmt 0 view .LVU159
 437 0152 0B23     		movs	r3, #11
 438 0154 0C93     		str	r3, [sp, #48]
 455:src/system/tim.c **** 
 439              		.loc 1 455 5 is_stmt 1 view .LVU160
 440 0156 FFF7FEFF 		bl	HAL_GPIO_Init
 441              	.LVL15:
 457:src/system/tim.c ****     GPIO_InitStruct.Mode = GPIO_MODE_AF_PP;
 442              		.loc 1 457 5 view .LVU161
 457:src/system/tim.c ****     GPIO_InitStruct.Mode = GPIO_MODE_AF_PP;
 443              		.loc 1 457 25 is_stmt 0 view .LVU162
 444 015a 8023     		movs	r3, #128
 445 015c 1B02     		lsls	r3, r3, #8
 446 015e 0893     		str	r3, [sp, #32]
 458:src/system/tim.c ****     GPIO_InitStruct.Pull = GPIO_NOPULL;
 447              		.loc 1 458 5 is_stmt 1 view .LVU163
 461:src/system/tim.c ****     HAL_GPIO_Init(GPIOC, &GPIO_InitStruct);
 448              		.loc 1 461 31 is_stmt 0 view .LVU164
 449 0160 0323     		movs	r3, #3
 462:src/system/tim.c **** 
 450              		.loc 1 462 5 view .LVU165
 451 0162 08A9     		add	r1, sp, #32
 452 0164 2848     		ldr	r0, .L29+40
 461:src/system/tim.c ****     HAL_GPIO_Init(GPIOC, &GPIO_InitStruct);
 453              		.loc 1 461 31 view .LVU166
 454 0166 0C93     		str	r3, [sp, #48]
 458:src/system/tim.c ****     GPIO_InitStruct.Pull = GPIO_NOPULL;
 455              		.loc 1 458 26 view .LVU167
 456 0168 0995     		str	r5, [sp, #36]
 459:src/system/tim.c ****     GPIO_InitStruct.Speed = GPIO_SPEED_FREQ_LOW;
 457              		.loc 1 459 5 is_stmt 1 view .LVU168
 459:src/system/tim.c ****     GPIO_InitStruct.Speed = GPIO_SPEED_FREQ_LOW;
 458              		.loc 1 459 26 is_stmt 0 view .LVU169
 459 016a 0A94     		str	r4, [sp, #40]
 460:src/system/tim.c ****     GPIO_InitStruct.Alternate = GPIO_AF3_TIM3;
 460              		.loc 1 460 5 is_stmt 1 view .LVU170
 460:src/system/tim.c ****     GPIO_InitStruct.Alternate = GPIO_AF3_TIM3;
 461              		.loc 1 460 27 is_stmt 0 view .LVU171
 462 016c 0B94     		str	r4, [sp, #44]
 461:src/system/tim.c ****     HAL_GPIO_Init(GPIOC, &GPIO_InitStruct);
 463              		.loc 1 461 5 is_stmt 1 view .LVU172
 462:src/system/tim.c **** 
 464              		.loc 1 462 5 view .LVU173
 465 016e FFF7FEFF 		bl	HAL_GPIO_Init
 466              	.LVL16:
 464:src/system/tim.c ****     GPIO_InitStruct.Mode = GPIO_MODE_AF_PP;
 467              		.loc 1 464 5 view .LVU174
 469:src/system/tim.c **** 
 468              		.loc 1 469 5 is_stmt 0 view .LVU175
 469 0172 A020     		movs	r0, #160
 464:src/system/tim.c ****     GPIO_InitStruct.Mode = GPIO_MODE_AF_PP;
ARM GAS  /tmp/ccJHRQAf.s 			page 21


 470              		.loc 1 464 25 view .LVU176
 471 0174 4023     		movs	r3, #64
 469:src/system/tim.c **** 
 472              		.loc 1 469 5 view .LVU177
 473 0176 08A9     		add	r1, sp, #32
 474 0178 C005     		lsls	r0, r0, #23
 464:src/system/tim.c ****     GPIO_InitStruct.Mode = GPIO_MODE_AF_PP;
 475              		.loc 1 464 25 view .LVU178
 476 017a 0893     		str	r3, [sp, #32]
 465:src/system/tim.c ****     GPIO_InitStruct.Pull = GPIO_NOPULL;
 477              		.loc 1 465 5 is_stmt 1 view .LVU179
 465:src/system/tim.c ****     GPIO_InitStruct.Pull = GPIO_NOPULL;
 478              		.loc 1 465 26 is_stmt 0 view .LVU180
 479 017c 0995     		str	r5, [sp, #36]
 466:src/system/tim.c ****     GPIO_InitStruct.Speed = GPIO_SPEED_FREQ_LOW;
 480              		.loc 1 466 5 is_stmt 1 view .LVU181
 466:src/system/tim.c ****     GPIO_InitStruct.Speed = GPIO_SPEED_FREQ_LOW;
 481              		.loc 1 466 26 is_stmt 0 view .LVU182
 482 017e 0A94     		str	r4, [sp, #40]
 467:src/system/tim.c ****     GPIO_InitStruct.Alternate = GPIO_AF1_TIM3;
 483              		.loc 1 467 5 is_stmt 1 view .LVU183
 467:src/system/tim.c ****     GPIO_InitStruct.Alternate = GPIO_AF1_TIM3;
 484              		.loc 1 467 27 is_stmt 0 view .LVU184
 485 0180 0B94     		str	r4, [sp, #44]
 468:src/system/tim.c ****     HAL_GPIO_Init(GPIOA, &GPIO_InitStruct);
 486              		.loc 1 468 5 is_stmt 1 view .LVU185
 468:src/system/tim.c ****     HAL_GPIO_Init(GPIOA, &GPIO_InitStruct);
 487              		.loc 1 468 31 is_stmt 0 view .LVU186
 488 0182 0C96     		str	r6, [sp, #48]
 469:src/system/tim.c **** 
 489              		.loc 1 469 5 is_stmt 1 view .LVU187
 490 0184 FFF7FEFF 		bl	HAL_GPIO_Init
 491              	.LVL17:
 471:src/system/tim.c ****     GPIO_InitStruct.Mode = GPIO_MODE_AF_PP;
 492              		.loc 1 471 5 view .LVU188
 476:src/system/tim.c **** 
 493              		.loc 1 476 5 is_stmt 0 view .LVU189
 494 0188 2048     		ldr	r0, .L29+44
 495 018a 08A9     		add	r1, sp, #32
 471:src/system/tim.c ****     GPIO_InitStruct.Mode = GPIO_MODE_AF_PP;
 496              		.loc 1 471 25 view .LVU190
 497 018c 0895     		str	r5, [sp, #32]
 472:src/system/tim.c ****     GPIO_InitStruct.Pull = GPIO_NOPULL;
 498              		.loc 1 472 5 is_stmt 1 view .LVU191
 472:src/system/tim.c ****     GPIO_InitStruct.Pull = GPIO_NOPULL;
 499              		.loc 1 472 26 is_stmt 0 view .LVU192
 500 018e 0995     		str	r5, [sp, #36]
 473:src/system/tim.c ****     GPIO_InitStruct.Speed = GPIO_SPEED_FREQ_LOW;
 501              		.loc 1 473 5 is_stmt 1 view .LVU193
 473:src/system/tim.c ****     GPIO_InitStruct.Speed = GPIO_SPEED_FREQ_LOW;
 502              		.loc 1 473 26 is_stmt 0 view .LVU194
 503 0190 0A94     		str	r4, [sp, #40]
 474:src/system/tim.c ****     GPIO_InitStruct.Alternate = GPIO_AF1_TIM3;
 504              		.loc 1 474 5 is_stmt 1 view .LVU195
 474:src/system/tim.c ****     GPIO_InitStruct.Alternate = GPIO_AF1_TIM3;
 505              		.loc 1 474 27 is_stmt 0 view .LVU196
 506 0192 0B94     		str	r4, [sp, #44]
ARM GAS  /tmp/ccJHRQAf.s 			page 22


 475:src/system/tim.c ****     HAL_GPIO_Init(GPIOB, &GPIO_InitStruct);
 507              		.loc 1 475 5 is_stmt 1 view .LVU197
 475:src/system/tim.c ****     HAL_GPIO_Init(GPIOB, &GPIO_InitStruct);
 508              		.loc 1 475 31 is_stmt 0 view .LVU198
 509 0194 0C96     		str	r6, [sp, #48]
 476:src/system/tim.c **** 
 510              		.loc 1 476 5 is_stmt 1 view .LVU199
 511 0196 FFF7FEFF 		bl	HAL_GPIO_Init
 512              	.LVL18:
 513 019a 71E7     		b	.L1
 514              	.L26:
 488:src/system/tim.c ****     /**TIM14 GPIO Configuration
 515              		.loc 1 488 5 view .LVU200
 516              	.LBB34:
 488:src/system/tim.c ****     /**TIM14 GPIO Configuration
 517              		.loc 1 488 5 view .LVU201
 488:src/system/tim.c ****     /**TIM14 GPIO Configuration
 518              		.loc 1 488 5 view .LVU202
 519 019c 2023     		movs	r3, #32
 520 019e 174A     		ldr	r2, .L29+28
 521              	.LBE34:
 497:src/system/tim.c **** 
 522              		.loc 1 497 5 is_stmt 0 view .LVU203
 523 01a0 1848     		ldr	r0, .L29+36
 524              	.LBB35:
 488:src/system/tim.c ****     /**TIM14 GPIO Configuration
 525              		.loc 1 488 5 view .LVU204
 526 01a2 516B     		ldr	r1, [r2, #52]
 527 01a4 1943     		orrs	r1, r3
 528 01a6 5163     		str	r1, [r2, #52]
 488:src/system/tim.c ****     /**TIM14 GPIO Configuration
 529              		.loc 1 488 5 is_stmt 1 view .LVU205
 530 01a8 526B     		ldr	r2, [r2, #52]
 531              	.LBE35:
 497:src/system/tim.c **** 
 532              		.loc 1 497 5 is_stmt 0 view .LVU206
 533 01aa 08A9     		add	r1, sp, #32
 534              	.LBB36:
 488:src/system/tim.c ****     /**TIM14 GPIO Configuration
 535              		.loc 1 488 5 view .LVU207
 536 01ac 1340     		ands	r3, r2
 537 01ae 0593     		str	r3, [sp, #20]
 488:src/system/tim.c ****     /**TIM14 GPIO Configuration
 538              		.loc 1 488 5 is_stmt 1 view .LVU208
 539              	.LBE36:
 492:src/system/tim.c ****     GPIO_InitStruct.Mode = GPIO_MODE_AF_PP;
 540              		.loc 1 492 25 is_stmt 0 view .LVU209
 541 01b0 0122     		movs	r2, #1
 542              	.LBB37:
 488:src/system/tim.c ****     /**TIM14 GPIO Configuration
 543              		.loc 1 488 5 view .LVU210
 544 01b2 059B     		ldr	r3, [sp, #20]
 545              	.LBE37:
 488:src/system/tim.c ****     /**TIM14 GPIO Configuration
 546              		.loc 1 488 5 is_stmt 1 view .LVU211
 492:src/system/tim.c ****     GPIO_InitStruct.Mode = GPIO_MODE_AF_PP;
 547              		.loc 1 492 5 view .LVU212
ARM GAS  /tmp/ccJHRQAf.s 			page 23


 493:src/system/tim.c ****     GPIO_InitStruct.Pull = GPIO_NOPULL;
 548              		.loc 1 493 5 view .LVU213
 492:src/system/tim.c ****     GPIO_InitStruct.Mode = GPIO_MODE_AF_PP;
 549              		.loc 1 492 25 is_stmt 0 view .LVU214
 550 01b4 0223     		movs	r3, #2
 551 01b6 0892     		str	r2, [sp, #32]
 552 01b8 0993     		str	r3, [sp, #36]
 494:src/system/tim.c ****     GPIO_InitStruct.Speed = GPIO_SPEED_FREQ_LOW;
 553              		.loc 1 494 5 is_stmt 1 view .LVU215
 495:src/system/tim.c ****     GPIO_InitStruct.Alternate = GPIO_AF2_TIM14;
 554              		.loc 1 495 5 view .LVU216
 496:src/system/tim.c ****     HAL_GPIO_Init(GPIOF, &GPIO_InitStruct);
 555              		.loc 1 496 5 view .LVU217
 496:src/system/tim.c ****     HAL_GPIO_Init(GPIOF, &GPIO_InitStruct);
 556              		.loc 1 496 31 is_stmt 0 view .LVU218
 557 01ba 0223     		movs	r3, #2
 558 01bc 0C93     		str	r3, [sp, #48]
 497:src/system/tim.c **** 
 559              		.loc 1 497 5 is_stmt 1 view .LVU219
 560 01be FFF7FEFF 		bl	HAL_GPIO_Init
 561              	.LVL19:
 562 01c2 5DE7     		b	.L1
 563              	.L28:
 530:src/system/tim.c ****     /**TIM17 GPIO Configuration
 564              		.loc 1 530 5 view .LVU220
 565              	.LBB38:
 530:src/system/tim.c ****     /**TIM17 GPIO Configuration
 566              		.loc 1 530 5 view .LVU221
 530:src/system/tim.c ****     /**TIM17 GPIO Configuration
 567              		.loc 1 530 5 view .LVU222
 568 01c4 0123     		movs	r3, #1
 569 01c6 0D4A     		ldr	r2, .L29+28
 570 01c8 516B     		ldr	r1, [r2, #52]
 571 01ca 1943     		orrs	r1, r3
 572 01cc 5163     		str	r1, [r2, #52]
 530:src/system/tim.c ****     /**TIM17 GPIO Configuration
 573              		.loc 1 530 5 view .LVU223
 574 01ce 526B     		ldr	r2, [r2, #52]
 575 01d0 1340     		ands	r3, r2
 576 01d2 0793     		str	r3, [sp, #28]
 530:src/system/tim.c ****     /**TIM17 GPIO Configuration
 577              		.loc 1 530 5 view .LVU224
 578              	.LBE38:
 534:src/system/tim.c ****     GPIO_InitStruct.Mode = GPIO_MODE_AF_PP;
 579              		.loc 1 534 25 is_stmt 0 view .LVU225
 580 01d4 8022     		movs	r2, #128
 581              	.LBB39:
 530:src/system/tim.c ****     /**TIM17 GPIO Configuration
 582              		.loc 1 530 5 view .LVU226
 583 01d6 079B     		ldr	r3, [sp, #28]
 584              	.LBE39:
 530:src/system/tim.c ****     /**TIM17 GPIO Configuration
 585              		.loc 1 530 5 is_stmt 1 view .LVU227
 534:src/system/tim.c ****     GPIO_InitStruct.Mode = GPIO_MODE_AF_PP;
 586              		.loc 1 534 5 view .LVU228
 535:src/system/tim.c ****     GPIO_InitStruct.Pull = GPIO_NOPULL;
 587              		.loc 1 535 5 view .LVU229
ARM GAS  /tmp/ccJHRQAf.s 			page 24


 534:src/system/tim.c ****     GPIO_InitStruct.Mode = GPIO_MODE_AF_PP;
 588              		.loc 1 534 25 is_stmt 0 view .LVU230
 589 01d8 0223     		movs	r3, #2
 590 01da 0892     		str	r2, [sp, #32]
 591 01dc 0993     		str	r3, [sp, #36]
 592 01de 8FE7     		b	.L19
 593              	.L30:
 594              		.align	2
 595              	.L29:
 596 01e0 00000000 		.word	htim14
 597 01e4 00200040 		.word	1073750016
 598 01e8 FFFF0000 		.word	65535
 599 01ec 002C0140 		.word	1073818624
 600 01f0 00040040 		.word	1073742848
 601 01f4 00440140 		.word	1073824768
 602 01f8 00480140 		.word	1073825792
 603 01fc 00100240 		.word	1073876992
 604 0200 000C0050 		.word	1342180352
 605 0204 00140050 		.word	1342182400
 606 0208 00080050 		.word	1342179328
 607 020c 00040050 		.word	1342178304
 608              	.LBE41:
 609              	.LBE43:
 610              		.cfi_endproc
 611              	.LFE216:
 613              		.section	.text.HAL_TIM_Base_MspInit,"ax",%progbits
 614              		.align	1
 615              		.p2align 2,,3
 616              		.global	HAL_TIM_Base_MspInit
 617              		.syntax unified
 618              		.code	16
 619              		.thumb_func
 621              	HAL_TIM_Base_MspInit:
 622              	.LVL20:
 623              	.LFB219:
 343:src/system/tim.c **** 
 624              		.loc 1 343 1 is_stmt 1 view -0
 625              		.cfi_startproc
 626              		@ args = 0, pretend = 0, frame = 24
 627              		@ frame_needed = 0, uses_anonymous_args = 0
 628              		@ link register save eliminated.
 345:src/system/tim.c ****   {
 629              		.loc 1 345 3 view .LVU232
 345:src/system/tim.c ****   {
 630              		.loc 1 345 20 is_stmt 0 view .LVU233
 631 0000 0368     		ldr	r3, [r0]
 345:src/system/tim.c ****   {
 632              		.loc 1 345 5 view .LVU234
 633 0002 234A     		ldr	r2, .L41
 343:src/system/tim.c **** 
 634              		.loc 1 343 1 view .LVU235
 635 0004 86B0     		sub	sp, sp, #24
 636              	.LCFI2:
 637              		.cfi_def_cfa_offset 24
 345:src/system/tim.c ****   {
 638              		.loc 1 345 5 view .LVU236
 639 0006 9342     		cmp	r3, r2
ARM GAS  /tmp/ccJHRQAf.s 			page 25


 640 0008 21D0     		beq	.L37
 356:src/system/tim.c ****   {
 641              		.loc 1 356 8 is_stmt 1 view .LVU237
 356:src/system/tim.c ****   {
 642              		.loc 1 356 10 is_stmt 0 view .LVU238
 643 000a 224A     		ldr	r2, .L41+4
 644 000c 9342     		cmp	r3, r2
 645 000e 13D0     		beq	.L38
 367:src/system/tim.c ****   {
 646              		.loc 1 367 8 is_stmt 1 view .LVU239
 367:src/system/tim.c ****   {
 647              		.loc 1 367 10 is_stmt 0 view .LVU240
 648 0010 214A     		ldr	r2, .L41+8
 649 0012 9342     		cmp	r3, r2
 650 0014 26D0     		beq	.L39
 378:src/system/tim.c ****   {
 651              		.loc 1 378 8 is_stmt 1 view .LVU241
 378:src/system/tim.c ****   {
 652              		.loc 1 378 10 is_stmt 0 view .LVU242
 653 0016 214A     		ldr	r2, .L41+12
 654 0018 9342     		cmp	r3, r2
 655 001a 2ED0     		beq	.L40
 389:src/system/tim.c ****   {
 656              		.loc 1 389 8 is_stmt 1 view .LVU243
 389:src/system/tim.c ****   {
 657              		.loc 1 389 10 is_stmt 0 view .LVU244
 658 001c 204A     		ldr	r2, .L41+16
 659 001e 9342     		cmp	r3, r2
 660 0020 13D1     		bne	.L31
 395:src/system/tim.c ****   /* USER CODE BEGIN TIM17_MspInit 1 */
 661              		.loc 1 395 5 is_stmt 1 view .LVU245
 662              	.LBB44:
 395:src/system/tim.c ****   /* USER CODE BEGIN TIM17_MspInit 1 */
 663              		.loc 1 395 5 view .LVU246
 395:src/system/tim.c ****   /* USER CODE BEGIN TIM17_MspInit 1 */
 664              		.loc 1 395 5 view .LVU247
 665 0022 8021     		movs	r1, #128
 666 0024 1F4B     		ldr	r3, .L41+20
 667 0026 C902     		lsls	r1, r1, #11
 668 0028 1A6C     		ldr	r2, [r3, #64]
 669 002a 0A43     		orrs	r2, r1
 670 002c 1A64     		str	r2, [r3, #64]
 395:src/system/tim.c ****   /* USER CODE BEGIN TIM17_MspInit 1 */
 671              		.loc 1 395 5 view .LVU248
 672 002e 1B6C     		ldr	r3, [r3, #64]
 673 0030 0B40     		ands	r3, r1
 674 0032 0593     		str	r3, [sp, #20]
 395:src/system/tim.c ****   /* USER CODE BEGIN TIM17_MspInit 1 */
 675              		.loc 1 395 5 view .LVU249
 676 0034 059B     		ldr	r3, [sp, #20]
 677              	.LBE44:
 395:src/system/tim.c ****   /* USER CODE BEGIN TIM17_MspInit 1 */
 678              		.loc 1 395 5 view .LVU250
 400:src/system/tim.c **** void HAL_TIM_MspPostInit(TIM_HandleTypeDef* timHandle)
 679              		.loc 1 400 1 is_stmt 0 view .LVU251
 680 0036 08E0     		b	.L31
 681              	.L38:
ARM GAS  /tmp/ccJHRQAf.s 			page 26


 362:src/system/tim.c ****   /* USER CODE BEGIN TIM3_MspInit 1 */
 682              		.loc 1 362 5 is_stmt 1 view .LVU252
 683              	.LBB45:
 362:src/system/tim.c ****   /* USER CODE BEGIN TIM3_MspInit 1 */
 684              		.loc 1 362 5 view .LVU253
 362:src/system/tim.c ****   /* USER CODE BEGIN TIM3_MspInit 1 */
 685              		.loc 1 362 5 view .LVU254
 686 0038 0223     		movs	r3, #2
 687 003a 1A4A     		ldr	r2, .L41+20
 688 003c D16B     		ldr	r1, [r2, #60]
 689 003e 1943     		orrs	r1, r3
 690 0040 D163     		str	r1, [r2, #60]
 362:src/system/tim.c ****   /* USER CODE BEGIN TIM3_MspInit 1 */
 691              		.loc 1 362 5 view .LVU255
 692 0042 D26B     		ldr	r2, [r2, #60]
 693 0044 1340     		ands	r3, r2
 694 0046 0293     		str	r3, [sp, #8]
 362:src/system/tim.c ****   /* USER CODE BEGIN TIM3_MspInit 1 */
 695              		.loc 1 362 5 view .LVU256
 696 0048 029B     		ldr	r3, [sp, #8]
 697              	.LBE45:
 362:src/system/tim.c ****   /* USER CODE BEGIN TIM3_MspInit 1 */
 698              		.loc 1 362 5 view .LVU257
 699              	.L31:
 400:src/system/tim.c **** void HAL_TIM_MspPostInit(TIM_HandleTypeDef* timHandle)
 700              		.loc 1 400 1 is_stmt 0 view .LVU258
 701 004a 06B0     		add	sp, sp, #24
 702              		@ sp needed
 703 004c 7047     		bx	lr
 704              	.L37:
 351:src/system/tim.c ****   /* USER CODE BEGIN TIM1_MspInit 1 */
 705              		.loc 1 351 5 is_stmt 1 view .LVU259
 706              	.LBB46:
 351:src/system/tim.c ****   /* USER CODE BEGIN TIM1_MspInit 1 */
 707              		.loc 1 351 5 view .LVU260
 351:src/system/tim.c ****   /* USER CODE BEGIN TIM1_MspInit 1 */
 708              		.loc 1 351 5 view .LVU261
 709 004e 8021     		movs	r1, #128
 710 0050 144B     		ldr	r3, .L41+20
 711 0052 0901     		lsls	r1, r1, #4
 712 0054 1A6C     		ldr	r2, [r3, #64]
 713 0056 0A43     		orrs	r2, r1
 714 0058 1A64     		str	r2, [r3, #64]
 351:src/system/tim.c ****   /* USER CODE BEGIN TIM1_MspInit 1 */
 715              		.loc 1 351 5 view .LVU262
 716 005a 1B6C     		ldr	r3, [r3, #64]
 717 005c 0B40     		ands	r3, r1
 718 005e 0193     		str	r3, [sp, #4]
 351:src/system/tim.c ****   /* USER CODE BEGIN TIM1_MspInit 1 */
 719              		.loc 1 351 5 view .LVU263
 720 0060 019B     		ldr	r3, [sp, #4]
 721              	.LBE46:
 351:src/system/tim.c ****   /* USER CODE BEGIN TIM1_MspInit 1 */
 722              		.loc 1 351 5 view .LVU264
 723 0062 F2E7     		b	.L31
 724              	.L39:
 373:src/system/tim.c ****   /* USER CODE BEGIN TIM14_MspInit 1 */
ARM GAS  /tmp/ccJHRQAf.s 			page 27


 725              		.loc 1 373 5 view .LVU265
 726              	.LBB47:
 373:src/system/tim.c ****   /* USER CODE BEGIN TIM14_MspInit 1 */
 727              		.loc 1 373 5 view .LVU266
 373:src/system/tim.c ****   /* USER CODE BEGIN TIM14_MspInit 1 */
 728              		.loc 1 373 5 view .LVU267
 729 0064 8021     		movs	r1, #128
 730 0066 0F4B     		ldr	r3, .L41+20
 731 0068 0902     		lsls	r1, r1, #8
 732 006a 1A6C     		ldr	r2, [r3, #64]
 733 006c 0A43     		orrs	r2, r1
 734 006e 1A64     		str	r2, [r3, #64]
 373:src/system/tim.c ****   /* USER CODE BEGIN TIM14_MspInit 1 */
 735              		.loc 1 373 5 view .LVU268
 736 0070 1B6C     		ldr	r3, [r3, #64]
 737 0072 0B40     		ands	r3, r1
 738 0074 0393     		str	r3, [sp, #12]
 373:src/system/tim.c ****   /* USER CODE BEGIN TIM14_MspInit 1 */
 739              		.loc 1 373 5 view .LVU269
 740 0076 039B     		ldr	r3, [sp, #12]
 741              	.LBE47:
 373:src/system/tim.c ****   /* USER CODE BEGIN TIM14_MspInit 1 */
 742              		.loc 1 373 5 view .LVU270
 743 0078 E7E7     		b	.L31
 744              	.L40:
 384:src/system/tim.c ****   /* USER CODE BEGIN TIM16_MspInit 1 */
 745              		.loc 1 384 5 view .LVU271
 746              	.LBB48:
 384:src/system/tim.c ****   /* USER CODE BEGIN TIM16_MspInit 1 */
 747              		.loc 1 384 5 view .LVU272
 384:src/system/tim.c ****   /* USER CODE BEGIN TIM16_MspInit 1 */
 748              		.loc 1 384 5 view .LVU273
 749 007a 8021     		movs	r1, #128
 750 007c 094B     		ldr	r3, .L41+20
 751 007e 8902     		lsls	r1, r1, #10
 752 0080 1A6C     		ldr	r2, [r3, #64]
 753 0082 0A43     		orrs	r2, r1
 754 0084 1A64     		str	r2, [r3, #64]
 384:src/system/tim.c ****   /* USER CODE BEGIN TIM16_MspInit 1 */
 755              		.loc 1 384 5 view .LVU274
 756 0086 1B6C     		ldr	r3, [r3, #64]
 757 0088 0B40     		ands	r3, r1
 758 008a 0493     		str	r3, [sp, #16]
 384:src/system/tim.c ****   /* USER CODE BEGIN TIM16_MspInit 1 */
 759              		.loc 1 384 5 view .LVU275
 760 008c 049B     		ldr	r3, [sp, #16]
 761              	.LBE48:
 384:src/system/tim.c ****   /* USER CODE BEGIN TIM16_MspInit 1 */
 762              		.loc 1 384 5 view .LVU276
 763 008e DCE7     		b	.L31
 764              	.L42:
 765              		.align	2
 766              	.L41:
 767 0090 002C0140 		.word	1073818624
 768 0094 00040040 		.word	1073742848
 769 0098 00200040 		.word	1073750016
 770 009c 00440140 		.word	1073824768
ARM GAS  /tmp/ccJHRQAf.s 			page 28


 771 00a0 00480140 		.word	1073825792
 772 00a4 00100240 		.word	1073876992
 773              		.cfi_endproc
 774              	.LFE219:
 776              		.section	.text.HAL_TIM_MspPostInit,"ax",%progbits
 777              		.align	1
 778              		.p2align 2,,3
 779              		.global	HAL_TIM_MspPostInit
 780              		.syntax unified
 781              		.code	16
 782              		.thumb_func
 784              	HAL_TIM_MspPostInit:
 785              	.LVL21:
 786              	.LFB220:
 402:src/system/tim.c **** 
 787              		.loc 1 402 1 view -0
 788              		.cfi_startproc
 789              		@ args = 0, pretend = 0, frame = 56
 790              		@ frame_needed = 0, uses_anonymous_args = 0
 404:src/system/tim.c ****   if(timHandle->Instance==TIM1)
 791              		.loc 1 404 3 view .LVU278
 402:src/system/tim.c **** 
 792              		.loc 1 402 1 is_stmt 0 view .LVU279
 793 0000 70B5     		push	{r4, r5, r6, lr}
 794              	.LCFI3:
 795              		.cfi_def_cfa_offset 16
 796              		.cfi_offset 4, -16
 797              		.cfi_offset 5, -12
 798              		.cfi_offset 6, -8
 799              		.cfi_offset 14, -4
 800 0002 0400     		movs	r4, r0
 801 0004 8EB0     		sub	sp, sp, #56
 802              	.LCFI4:
 803              		.cfi_def_cfa_offset 72
 404:src/system/tim.c ****   if(timHandle->Instance==TIM1)
 804              		.loc 1 404 20 view .LVU280
 805 0006 1422     		movs	r2, #20
 806 0008 0021     		movs	r1, #0
 807 000a 08A8     		add	r0, sp, #32
 808              	.LVL22:
 404:src/system/tim.c ****   if(timHandle->Instance==TIM1)
 809              		.loc 1 404 20 view .LVU281
 810 000c FFF7FEFF 		bl	memset
 811              	.LVL23:
 405:src/system/tim.c ****   {
 812              		.loc 1 405 3 is_stmt 1 view .LVU282
 405:src/system/tim.c ****   {
 813              		.loc 1 405 15 is_stmt 0 view .LVU283
 814 0010 2368     		ldr	r3, [r4]
 405:src/system/tim.c ****   {
 815              		.loc 1 405 5 view .LVU284
 816 0012 5C4A     		ldr	r2, .L55
 817 0014 9342     		cmp	r3, r2
 818 0016 23D0     		beq	.L50
 435:src/system/tim.c ****   {
 819              		.loc 1 435 8 is_stmt 1 view .LVU285
 435:src/system/tim.c ****   {
ARM GAS  /tmp/ccJHRQAf.s 			page 29


 820              		.loc 1 435 10 is_stmt 0 view .LVU286
 821 0018 5B4A     		ldr	r2, .L55+4
 822 001a 9342     		cmp	r3, r2
 823 001c 49D0     		beq	.L51
 482:src/system/tim.c ****   {
 824              		.loc 1 482 8 is_stmt 1 view .LVU287
 482:src/system/tim.c ****   {
 825              		.loc 1 482 10 is_stmt 0 view .LVU288
 826 001e 5B4A     		ldr	r2, .L55+8
 827 0020 9342     		cmp	r3, r2
 828 0022 00D1     		bne	.LCB674
 829 0024 8BE0     		b	.L52	@long jump
 830              	.LCB674:
 503:src/system/tim.c ****   {
 831              		.loc 1 503 8 is_stmt 1 view .LVU289
 503:src/system/tim.c ****   {
 832              		.loc 1 503 10 is_stmt 0 view .LVU290
 833 0026 5A4A     		ldr	r2, .L55+12
 834 0028 9342     		cmp	r3, r2
 835 002a 05D0     		beq	.L53
 524:src/system/tim.c ****   {
 836              		.loc 1 524 8 is_stmt 1 view .LVU291
 524:src/system/tim.c ****   {
 837              		.loc 1 524 10 is_stmt 0 view .LVU292
 838 002c 594A     		ldr	r2, .L55+16
 839 002e 9342     		cmp	r3, r2
 840 0030 00D1     		bne	.LCB682
 841 0032 98E0     		b	.L54	@long jump
 842              	.LCB682:
 843              	.LVL24:
 844              	.L43:
 540:src/system/tim.c **** 
 541:src/system/tim.c ****   /* USER CODE BEGIN TIM17_MspPostInit 1 */
 542:src/system/tim.c **** 
 543:src/system/tim.c ****   /* USER CODE END TIM17_MspPostInit 1 */
 544:src/system/tim.c ****   }
 545:src/system/tim.c **** 
 546:src/system/tim.c **** }
 845              		.loc 1 546 1 view .LVU293
 846 0034 0EB0     		add	sp, sp, #56
 847              		@ sp needed
 848 0036 70BD     		pop	{r4, r5, r6, pc}
 849              	.LVL25:
 850              	.L53:
 509:src/system/tim.c ****     /**TIM16 GPIO Configuration
 851              		.loc 1 509 5 is_stmt 1 view .LVU294
 852              	.LBB49:
 509:src/system/tim.c ****     /**TIM16 GPIO Configuration
 853              		.loc 1 509 5 view .LVU295
 509:src/system/tim.c ****     /**TIM16 GPIO Configuration
 854              		.loc 1 509 5 view .LVU296
 855 0038 0823     		movs	r3, #8
 856 003a 574A     		ldr	r2, .L55+20
 857              	.LBE49:
 518:src/system/tim.c **** 
 858              		.loc 1 518 5 is_stmt 0 view .LVU297
 859 003c 5748     		ldr	r0, .L55+24
ARM GAS  /tmp/ccJHRQAf.s 			page 30


 860              	.LBB50:
 509:src/system/tim.c ****     /**TIM16 GPIO Configuration
 861              		.loc 1 509 5 view .LVU298
 862 003e 516B     		ldr	r1, [r2, #52]
 863 0040 1943     		orrs	r1, r3
 864 0042 5163     		str	r1, [r2, #52]
 509:src/system/tim.c ****     /**TIM16 GPIO Configuration
 865              		.loc 1 509 5 is_stmt 1 view .LVU299
 866 0044 526B     		ldr	r2, [r2, #52]
 867              	.LBE50:
 518:src/system/tim.c **** 
 868              		.loc 1 518 5 is_stmt 0 view .LVU300
 869 0046 08A9     		add	r1, sp, #32
 870              	.LBB51:
 509:src/system/tim.c ****     /**TIM16 GPIO Configuration
 871              		.loc 1 509 5 view .LVU301
 872 0048 1340     		ands	r3, r2
 873 004a 0693     		str	r3, [sp, #24]
 509:src/system/tim.c ****     /**TIM16 GPIO Configuration
 874              		.loc 1 509 5 is_stmt 1 view .LVU302
 875              	.LBE51:
 513:src/system/tim.c ****     GPIO_InitStruct.Mode = GPIO_MODE_AF_PP;
 876              		.loc 1 513 25 is_stmt 0 view .LVU303
 877 004c 0122     		movs	r2, #1
 878              	.LBB52:
 509:src/system/tim.c ****     /**TIM16 GPIO Configuration
 879              		.loc 1 509 5 view .LVU304
 880 004e 069B     		ldr	r3, [sp, #24]
 881              	.LBE52:
 509:src/system/tim.c ****     /**TIM16 GPIO Configuration
 882              		.loc 1 509 5 is_stmt 1 view .LVU305
 513:src/system/tim.c ****     GPIO_InitStruct.Mode = GPIO_MODE_AF_PP;
 883              		.loc 1 513 5 view .LVU306
 514:src/system/tim.c ****     GPIO_InitStruct.Pull = GPIO_NOPULL;
 884              		.loc 1 514 5 view .LVU307
 513:src/system/tim.c ****     GPIO_InitStruct.Mode = GPIO_MODE_AF_PP;
 885              		.loc 1 513 25 is_stmt 0 view .LVU308
 886 0050 0223     		movs	r3, #2
 887 0052 0892     		str	r2, [sp, #32]
 888 0054 0993     		str	r3, [sp, #36]
 515:src/system/tim.c ****     GPIO_InitStruct.Speed = GPIO_SPEED_FREQ_LOW;
 889              		.loc 1 515 5 is_stmt 1 view .LVU309
 516:src/system/tim.c ****     GPIO_InitStruct.Alternate = GPIO_AF2_TIM16;
 890              		.loc 1 516 5 view .LVU310
 517:src/system/tim.c ****     HAL_GPIO_Init(GPIOD, &GPIO_InitStruct);
 891              		.loc 1 517 5 view .LVU311
 517:src/system/tim.c ****     HAL_GPIO_Init(GPIOD, &GPIO_InitStruct);
 892              		.loc 1 517 31 is_stmt 0 view .LVU312
 893 0056 0223     		movs	r3, #2
 894 0058 0C93     		str	r3, [sp, #48]
 518:src/system/tim.c **** 
 895              		.loc 1 518 5 is_stmt 1 view .LVU313
 896 005a FFF7FEFF 		bl	HAL_GPIO_Init
 897              	.LVL26:
 898 005e E9E7     		b	.L43
 899              	.L50:
 410:src/system/tim.c ****     __HAL_RCC_GPIOA_CLK_ENABLE();
ARM GAS  /tmp/ccJHRQAf.s 			page 31


 900              		.loc 1 410 5 view .LVU314
 901              	.LBB53:
 410:src/system/tim.c ****     __HAL_RCC_GPIOA_CLK_ENABLE();
 902              		.loc 1 410 5 view .LVU315
 410:src/system/tim.c ****     __HAL_RCC_GPIOA_CLK_ENABLE();
 903              		.loc 1 410 5 view .LVU316
 904 0060 2022     		movs	r2, #32
 905 0062 4D4B     		ldr	r3, .L55+20
 906              	.LBE53:
 417:src/system/tim.c ****     GPIO_InitStruct.Mode = GPIO_MODE_AF_PP;
 907              		.loc 1 417 25 is_stmt 0 view .LVU317
 908 0064 0420     		movs	r0, #4
 909              	.LBB54:
 410:src/system/tim.c ****     __HAL_RCC_GPIOA_CLK_ENABLE();
 910              		.loc 1 410 5 view .LVU318
 911 0066 596B     		ldr	r1, [r3, #52]
 912 0068 1143     		orrs	r1, r2
 913 006a 5963     		str	r1, [r3, #52]
 410:src/system/tim.c ****     __HAL_RCC_GPIOA_CLK_ENABLE();
 914              		.loc 1 410 5 is_stmt 1 view .LVU319
 915 006c 596B     		ldr	r1, [r3, #52]
 916 006e 0A40     		ands	r2, r1
 917 0070 0092     		str	r2, [sp]
 410:src/system/tim.c ****     __HAL_RCC_GPIOA_CLK_ENABLE();
 918              		.loc 1 410 5 view .LVU320
 919 0072 009A     		ldr	r2, [sp]
 920              	.LBE54:
 410:src/system/tim.c ****     __HAL_RCC_GPIOA_CLK_ENABLE();
 921              		.loc 1 410 5 view .LVU321
 411:src/system/tim.c ****     /**TIM1 GPIO Configuration
 922              		.loc 1 411 5 view .LVU322
 923              	.LBB55:
 411:src/system/tim.c ****     /**TIM1 GPIO Configuration
 924              		.loc 1 411 5 view .LVU323
 411:src/system/tim.c ****     /**TIM1 GPIO Configuration
 925              		.loc 1 411 5 view .LVU324
 926 0074 0122     		movs	r2, #1
 927 0076 596B     		ldr	r1, [r3, #52]
 928 0078 1143     		orrs	r1, r2
 929 007a 5963     		str	r1, [r3, #52]
 411:src/system/tim.c ****     /**TIM1 GPIO Configuration
 930              		.loc 1 411 5 view .LVU325
 931              	.LBE55:
 417:src/system/tim.c ****     GPIO_InitStruct.Mode = GPIO_MODE_AF_PP;
 932              		.loc 1 417 25 is_stmt 0 view .LVU326
 933 007c 0221     		movs	r1, #2
 934              	.LBB56:
 411:src/system/tim.c ****     /**TIM1 GPIO Configuration
 935              		.loc 1 411 5 view .LVU327
 936 007e 5B6B     		ldr	r3, [r3, #52]
 937              	.LBE56:
 417:src/system/tim.c ****     GPIO_InitStruct.Mode = GPIO_MODE_AF_PP;
 938              		.loc 1 417 25 view .LVU328
 939 0080 0890     		str	r0, [sp, #32]
 940 0082 0991     		str	r1, [sp, #36]
 941              	.LBB57:
 411:src/system/tim.c ****     /**TIM1 GPIO Configuration
ARM GAS  /tmp/ccJHRQAf.s 			page 32


 942              		.loc 1 411 5 view .LVU329
 943 0084 1340     		ands	r3, r2
 944 0086 0193     		str	r3, [sp, #4]
 411:src/system/tim.c ****     /**TIM1 GPIO Configuration
 945              		.loc 1 411 5 is_stmt 1 view .LVU330
 946              	.LBE57:
 422:src/system/tim.c **** 
 947              		.loc 1 422 5 is_stmt 0 view .LVU331
 948 0088 4548     		ldr	r0, .L55+28
 949 008a 08A9     		add	r1, sp, #32
 950              	.LBB58:
 411:src/system/tim.c ****     /**TIM1 GPIO Configuration
 951              		.loc 1 411 5 view .LVU332
 952 008c 019B     		ldr	r3, [sp, #4]
 953              	.LBE58:
 411:src/system/tim.c ****     /**TIM1 GPIO Configuration
 954              		.loc 1 411 5 is_stmt 1 view .LVU333
 417:src/system/tim.c ****     GPIO_InitStruct.Mode = GPIO_MODE_AF_PP;
 955              		.loc 1 417 5 view .LVU334
 418:src/system/tim.c ****     GPIO_InitStruct.Pull = GPIO_NOPULL;
 956              		.loc 1 418 5 view .LVU335
 419:src/system/tim.c ****     GPIO_InitStruct.Speed = GPIO_SPEED_FREQ_LOW;
 957              		.loc 1 419 5 view .LVU336
 420:src/system/tim.c ****     GPIO_InitStruct.Alternate = GPIO_AF1_TIM1;
 958              		.loc 1 420 5 view .LVU337
 421:src/system/tim.c ****     HAL_GPIO_Init(GPIOF, &GPIO_InitStruct);
 959              		.loc 1 421 5 view .LVU338
 421:src/system/tim.c ****     HAL_GPIO_Init(GPIOF, &GPIO_InitStruct);
 960              		.loc 1 421 31 is_stmt 0 view .LVU339
 961 008e 0C92     		str	r2, [sp, #48]
 422:src/system/tim.c **** 
 962              		.loc 1 422 5 is_stmt 1 view .LVU340
 963 0090 FFF7FEFF 		bl	HAL_GPIO_Init
 964              	.LVL27:
 424:src/system/tim.c ****     GPIO_InitStruct.Mode = GPIO_MODE_AF_PP;
 965              		.loc 1 424 5 view .LVU341
 424:src/system/tim.c ****     GPIO_InitStruct.Mode = GPIO_MODE_AF_PP;
 966              		.loc 1 424 25 is_stmt 0 view .LVU342
 967 0094 0323     		movs	r3, #3
 968 0096 0893     		str	r3, [sp, #32]
 425:src/system/tim.c ****     GPIO_InitStruct.Pull = GPIO_NOPULL;
 969              		.loc 1 425 5 is_stmt 1 view .LVU343
 425:src/system/tim.c ****     GPIO_InitStruct.Pull = GPIO_NOPULL;
 970              		.loc 1 425 26 is_stmt 0 view .LVU344
 971 0098 013B     		subs	r3, r3, #1
 972 009a 0993     		str	r3, [sp, #36]
 426:src/system/tim.c ****     GPIO_InitStruct.Speed = GPIO_SPEED_FREQ_LOW;
 973              		.loc 1 426 5 is_stmt 1 view .LVU345
 426:src/system/tim.c ****     GPIO_InitStruct.Speed = GPIO_SPEED_FREQ_LOW;
 974              		.loc 1 426 26 is_stmt 0 view .LVU346
 975 009c 0023     		movs	r3, #0
 976 009e 0A93     		str	r3, [sp, #40]
 427:src/system/tim.c ****     GPIO_InitStruct.Alternate = GPIO_AF5_TIM1;
 977              		.loc 1 427 5 is_stmt 1 view .LVU347
 427:src/system/tim.c ****     GPIO_InitStruct.Alternate = GPIO_AF5_TIM1;
 978              		.loc 1 427 27 is_stmt 0 view .LVU348
 979 00a0 0B93     		str	r3, [sp, #44]
ARM GAS  /tmp/ccJHRQAf.s 			page 33


 428:src/system/tim.c ****     HAL_GPIO_Init(GPIOA, &GPIO_InitStruct);
 980              		.loc 1 428 5 is_stmt 1 view .LVU349
 981              	.L49:
 536:src/system/tim.c ****     GPIO_InitStruct.Speed = GPIO_SPEED_FREQ_LOW;
 982              		.loc 1 536 5 view .LVU350
 537:src/system/tim.c ****     GPIO_InitStruct.Alternate = GPIO_AF5_TIM17;
 983              		.loc 1 537 5 view .LVU351
 538:src/system/tim.c ****     HAL_GPIO_Init(GPIOA, &GPIO_InitStruct);
 984              		.loc 1 538 5 view .LVU352
 539:src/system/tim.c **** 
 985              		.loc 1 539 5 is_stmt 0 view .LVU353
 986 00a2 A020     		movs	r0, #160
 538:src/system/tim.c ****     HAL_GPIO_Init(GPIOA, &GPIO_InitStruct);
 987              		.loc 1 538 31 view .LVU354
 988 00a4 0523     		movs	r3, #5
 539:src/system/tim.c **** 
 989              		.loc 1 539 5 view .LVU355
 990 00a6 08A9     		add	r1, sp, #32
 991 00a8 C005     		lsls	r0, r0, #23
 538:src/system/tim.c ****     HAL_GPIO_Init(GPIOA, &GPIO_InitStruct);
 992              		.loc 1 538 31 view .LVU356
 993 00aa 0C93     		str	r3, [sp, #48]
 539:src/system/tim.c **** 
 994              		.loc 1 539 5 is_stmt 1 view .LVU357
 995 00ac FFF7FEFF 		bl	HAL_GPIO_Init
 996              	.LVL28:
 997              		.loc 1 546 1 is_stmt 0 view .LVU358
 998 00b0 C0E7     		b	.L43
 999              	.L51:
 441:src/system/tim.c ****     __HAL_RCC_GPIOA_CLK_ENABLE();
 1000              		.loc 1 441 5 is_stmt 1 view .LVU359
 1001              	.LBB59:
 441:src/system/tim.c ****     __HAL_RCC_GPIOA_CLK_ENABLE();
 1002              		.loc 1 441 5 view .LVU360
 441:src/system/tim.c ****     __HAL_RCC_GPIOA_CLK_ENABLE();
 1003              		.loc 1 441 5 view .LVU361
 1004 00b2 0422     		movs	r2, #4
 1005              	.LBE59:
 1006              	.LBB60:
 442:src/system/tim.c ****     __HAL_RCC_GPIOB_CLK_ENABLE();
 1007              		.loc 1 442 5 is_stmt 0 view .LVU362
 1008 00b4 0126     		movs	r6, #1
 1009              	.LBE60:
 1010              	.LBB61:
 443:src/system/tim.c ****     /**TIM3 GPIO Configuration
 1011              		.loc 1 443 5 view .LVU363
 1012 00b6 0225     		movs	r5, #2
 1013              	.LBE61:
 1014              	.LBB62:
 441:src/system/tim.c ****     __HAL_RCC_GPIOA_CLK_ENABLE();
 1015              		.loc 1 441 5 view .LVU364
 1016 00b8 374B     		ldr	r3, .L55+20
 1017              	.LBE62:
 455:src/system/tim.c **** 
 1018              		.loc 1 455 5 view .LVU365
 1019 00ba 3A48     		ldr	r0, .L55+32
 1020              	.LBB63:
ARM GAS  /tmp/ccJHRQAf.s 			page 34


 441:src/system/tim.c ****     __HAL_RCC_GPIOA_CLK_ENABLE();
 1021              		.loc 1 441 5 view .LVU366
 1022 00bc 596B     		ldr	r1, [r3, #52]
 1023              	.LBE63:
 459:src/system/tim.c ****     GPIO_InitStruct.Speed = GPIO_SPEED_FREQ_LOW;
 1024              		.loc 1 459 26 view .LVU367
 1025 00be 0024     		movs	r4, #0
 1026              	.LVL29:
 1027              	.LBB64:
 441:src/system/tim.c ****     __HAL_RCC_GPIOA_CLK_ENABLE();
 1028              		.loc 1 441 5 view .LVU368
 1029 00c0 1143     		orrs	r1, r2
 1030 00c2 5963     		str	r1, [r3, #52]
 441:src/system/tim.c ****     __HAL_RCC_GPIOA_CLK_ENABLE();
 1031              		.loc 1 441 5 is_stmt 1 view .LVU369
 1032 00c4 596B     		ldr	r1, [r3, #52]
 1033 00c6 0A40     		ands	r2, r1
 1034 00c8 0292     		str	r2, [sp, #8]
 441:src/system/tim.c ****     __HAL_RCC_GPIOA_CLK_ENABLE();
 1035              		.loc 1 441 5 view .LVU370
 1036 00ca 029A     		ldr	r2, [sp, #8]
 1037              	.LBE64:
 441:src/system/tim.c ****     __HAL_RCC_GPIOA_CLK_ENABLE();
 1038              		.loc 1 441 5 view .LVU371
 442:src/system/tim.c ****     __HAL_RCC_GPIOB_CLK_ENABLE();
 1039              		.loc 1 442 5 view .LVU372
 1040              	.LBB65:
 442:src/system/tim.c ****     __HAL_RCC_GPIOB_CLK_ENABLE();
 1041              		.loc 1 442 5 view .LVU373
 442:src/system/tim.c ****     __HAL_RCC_GPIOB_CLK_ENABLE();
 1042              		.loc 1 442 5 view .LVU374
 1043 00cc 5A6B     		ldr	r2, [r3, #52]
 1044              	.LBE65:
 455:src/system/tim.c **** 
 1045              		.loc 1 455 5 is_stmt 0 view .LVU375
 1046 00ce 08A9     		add	r1, sp, #32
 1047              	.LBB66:
 442:src/system/tim.c ****     __HAL_RCC_GPIOB_CLK_ENABLE();
 1048              		.loc 1 442 5 view .LVU376
 1049 00d0 3243     		orrs	r2, r6
 1050 00d2 5A63     		str	r2, [r3, #52]
 442:src/system/tim.c ****     __HAL_RCC_GPIOB_CLK_ENABLE();
 1051              		.loc 1 442 5 is_stmt 1 view .LVU377
 1052 00d4 5A6B     		ldr	r2, [r3, #52]
 1053 00d6 3240     		ands	r2, r6
 1054 00d8 0392     		str	r2, [sp, #12]
 442:src/system/tim.c ****     __HAL_RCC_GPIOB_CLK_ENABLE();
 1055              		.loc 1 442 5 view .LVU378
 1056 00da 039A     		ldr	r2, [sp, #12]
 1057              	.LBE66:
 442:src/system/tim.c ****     __HAL_RCC_GPIOB_CLK_ENABLE();
 1058              		.loc 1 442 5 view .LVU379
 443:src/system/tim.c ****     /**TIM3 GPIO Configuration
 1059              		.loc 1 443 5 view .LVU380
 1060              	.LBB67:
 443:src/system/tim.c ****     /**TIM3 GPIO Configuration
 1061              		.loc 1 443 5 view .LVU381
ARM GAS  /tmp/ccJHRQAf.s 			page 35


 443:src/system/tim.c ****     /**TIM3 GPIO Configuration
 1062              		.loc 1 443 5 view .LVU382
 1063 00dc 5A6B     		ldr	r2, [r3, #52]
 1064 00de 2A43     		orrs	r2, r5
 1065 00e0 5A63     		str	r2, [r3, #52]
 443:src/system/tim.c ****     /**TIM3 GPIO Configuration
 1066              		.loc 1 443 5 view .LVU383
 1067 00e2 5B6B     		ldr	r3, [r3, #52]
 1068              	.LBE67:
 450:src/system/tim.c ****     GPIO_InitStruct.Mode = GPIO_MODE_AF_PP;
 1069              		.loc 1 450 25 is_stmt 0 view .LVU384
 1070 00e4 8022     		movs	r2, #128
 1071              	.LBB68:
 443:src/system/tim.c ****     /**TIM3 GPIO Configuration
 1072              		.loc 1 443 5 view .LVU385
 1073 00e6 2B40     		ands	r3, r5
 1074 00e8 0493     		str	r3, [sp, #16]
 443:src/system/tim.c ****     /**TIM3 GPIO Configuration
 1075              		.loc 1 443 5 is_stmt 1 view .LVU386
 1076 00ea 049B     		ldr	r3, [sp, #16]
 1077              	.LBE68:
 443:src/system/tim.c ****     /**TIM3 GPIO Configuration
 1078              		.loc 1 443 5 view .LVU387
 450:src/system/tim.c ****     GPIO_InitStruct.Mode = GPIO_MODE_AF_PP;
 1079              		.loc 1 450 5 view .LVU388
 451:src/system/tim.c ****     GPIO_InitStruct.Pull = GPIO_NOPULL;
 1080              		.loc 1 451 5 view .LVU389
 450:src/system/tim.c ****     GPIO_InitStruct.Mode = GPIO_MODE_AF_PP;
 1081              		.loc 1 450 25 is_stmt 0 view .LVU390
 1082 00ec 0223     		movs	r3, #2
 1083 00ee D201     		lsls	r2, r2, #7
 1084 00f0 0892     		str	r2, [sp, #32]
 1085 00f2 0993     		str	r3, [sp, #36]
 452:src/system/tim.c ****     GPIO_InitStruct.Speed = GPIO_SPEED_FREQ_LOW;
 1086              		.loc 1 452 5 is_stmt 1 view .LVU391
 453:src/system/tim.c ****     GPIO_InitStruct.Alternate = GPIO_AF11_TIM3;
 1087              		.loc 1 453 5 view .LVU392
 454:src/system/tim.c ****     HAL_GPIO_Init(GPIOC, &GPIO_InitStruct);
 1088              		.loc 1 454 5 view .LVU393
 454:src/system/tim.c ****     HAL_GPIO_Init(GPIOC, &GPIO_InitStruct);
 1089              		.loc 1 454 31 is_stmt 0 view .LVU394
 1090 00f4 0B23     		movs	r3, #11
 1091 00f6 0C93     		str	r3, [sp, #48]
 455:src/system/tim.c **** 
 1092              		.loc 1 455 5 is_stmt 1 view .LVU395
 1093 00f8 FFF7FEFF 		bl	HAL_GPIO_Init
 1094              	.LVL30:
 457:src/system/tim.c ****     GPIO_InitStruct.Mode = GPIO_MODE_AF_PP;
 1095              		.loc 1 457 5 view .LVU396
 457:src/system/tim.c ****     GPIO_InitStruct.Mode = GPIO_MODE_AF_PP;
 1096              		.loc 1 457 25 is_stmt 0 view .LVU397
 1097 00fc 8023     		movs	r3, #128
 1098 00fe 1B02     		lsls	r3, r3, #8
 1099 0100 0893     		str	r3, [sp, #32]
 458:src/system/tim.c ****     GPIO_InitStruct.Pull = GPIO_NOPULL;
 1100              		.loc 1 458 5 is_stmt 1 view .LVU398
 461:src/system/tim.c ****     HAL_GPIO_Init(GPIOC, &GPIO_InitStruct);
ARM GAS  /tmp/ccJHRQAf.s 			page 36


 1101              		.loc 1 461 31 is_stmt 0 view .LVU399
 1102 0102 0323     		movs	r3, #3
 462:src/system/tim.c **** 
 1103              		.loc 1 462 5 view .LVU400
 1104 0104 08A9     		add	r1, sp, #32
 1105 0106 2748     		ldr	r0, .L55+32
 461:src/system/tim.c ****     HAL_GPIO_Init(GPIOC, &GPIO_InitStruct);
 1106              		.loc 1 461 31 view .LVU401
 1107 0108 0C93     		str	r3, [sp, #48]
 458:src/system/tim.c ****     GPIO_InitStruct.Pull = GPIO_NOPULL;
 1108              		.loc 1 458 26 view .LVU402
 1109 010a 0995     		str	r5, [sp, #36]
 459:src/system/tim.c ****     GPIO_InitStruct.Speed = GPIO_SPEED_FREQ_LOW;
 1110              		.loc 1 459 5 is_stmt 1 view .LVU403
 459:src/system/tim.c ****     GPIO_InitStruct.Speed = GPIO_SPEED_FREQ_LOW;
 1111              		.loc 1 459 26 is_stmt 0 view .LVU404
 1112 010c 0A94     		str	r4, [sp, #40]
 460:src/system/tim.c ****     GPIO_InitStruct.Alternate = GPIO_AF3_TIM3;
 1113              		.loc 1 460 5 is_stmt 1 view .LVU405
 460:src/system/tim.c ****     GPIO_InitStruct.Alternate = GPIO_AF3_TIM3;
 1114              		.loc 1 460 27 is_stmt 0 view .LVU406
 1115 010e 0B94     		str	r4, [sp, #44]
 461:src/system/tim.c ****     HAL_GPIO_Init(GPIOC, &GPIO_InitStruct);
 1116              		.loc 1 461 5 is_stmt 1 view .LVU407
 462:src/system/tim.c **** 
 1117              		.loc 1 462 5 view .LVU408
 1118 0110 FFF7FEFF 		bl	HAL_GPIO_Init
 1119              	.LVL31:
 464:src/system/tim.c ****     GPIO_InitStruct.Mode = GPIO_MODE_AF_PP;
 1120              		.loc 1 464 5 view .LVU409
 469:src/system/tim.c **** 
 1121              		.loc 1 469 5 is_stmt 0 view .LVU410
 1122 0114 A020     		movs	r0, #160
 464:src/system/tim.c ****     GPIO_InitStruct.Mode = GPIO_MODE_AF_PP;
 1123              		.loc 1 464 25 view .LVU411
 1124 0116 4023     		movs	r3, #64
 469:src/system/tim.c **** 
 1125              		.loc 1 469 5 view .LVU412
 1126 0118 08A9     		add	r1, sp, #32
 1127 011a C005     		lsls	r0, r0, #23
 464:src/system/tim.c ****     GPIO_InitStruct.Mode = GPIO_MODE_AF_PP;
 1128              		.loc 1 464 25 view .LVU413
 1129 011c 0893     		str	r3, [sp, #32]
 465:src/system/tim.c ****     GPIO_InitStruct.Pull = GPIO_NOPULL;
 1130              		.loc 1 465 5 is_stmt 1 view .LVU414
 465:src/system/tim.c ****     GPIO_InitStruct.Pull = GPIO_NOPULL;
 1131              		.loc 1 465 26 is_stmt 0 view .LVU415
 1132 011e 0995     		str	r5, [sp, #36]
 466:src/system/tim.c ****     GPIO_InitStruct.Speed = GPIO_SPEED_FREQ_LOW;
 1133              		.loc 1 466 5 is_stmt 1 view .LVU416
 466:src/system/tim.c ****     GPIO_InitStruct.Speed = GPIO_SPEED_FREQ_LOW;
 1134              		.loc 1 466 26 is_stmt 0 view .LVU417
 1135 0120 0A94     		str	r4, [sp, #40]
 467:src/system/tim.c ****     GPIO_InitStruct.Alternate = GPIO_AF1_TIM3;
 1136              		.loc 1 467 5 is_stmt 1 view .LVU418
 467:src/system/tim.c ****     GPIO_InitStruct.Alternate = GPIO_AF1_TIM3;
 1137              		.loc 1 467 27 is_stmt 0 view .LVU419
ARM GAS  /tmp/ccJHRQAf.s 			page 37


 1138 0122 0B94     		str	r4, [sp, #44]
 468:src/system/tim.c ****     HAL_GPIO_Init(GPIOA, &GPIO_InitStruct);
 1139              		.loc 1 468 5 is_stmt 1 view .LVU420
 468:src/system/tim.c ****     HAL_GPIO_Init(GPIOA, &GPIO_InitStruct);
 1140              		.loc 1 468 31 is_stmt 0 view .LVU421
 1141 0124 0C96     		str	r6, [sp, #48]
 469:src/system/tim.c **** 
 1142              		.loc 1 469 5 is_stmt 1 view .LVU422
 1143 0126 FFF7FEFF 		bl	HAL_GPIO_Init
 1144              	.LVL32:
 471:src/system/tim.c ****     GPIO_InitStruct.Mode = GPIO_MODE_AF_PP;
 1145              		.loc 1 471 5 view .LVU423
 476:src/system/tim.c **** 
 1146              		.loc 1 476 5 is_stmt 0 view .LVU424
 1147 012a 1F48     		ldr	r0, .L55+36
 1148 012c 08A9     		add	r1, sp, #32
 471:src/system/tim.c ****     GPIO_InitStruct.Mode = GPIO_MODE_AF_PP;
 1149              		.loc 1 471 25 view .LVU425
 1150 012e 0895     		str	r5, [sp, #32]
 472:src/system/tim.c ****     GPIO_InitStruct.Pull = GPIO_NOPULL;
 1151              		.loc 1 472 5 is_stmt 1 view .LVU426
 472:src/system/tim.c ****     GPIO_InitStruct.Pull = GPIO_NOPULL;
 1152              		.loc 1 472 26 is_stmt 0 view .LVU427
 1153 0130 0995     		str	r5, [sp, #36]
 473:src/system/tim.c ****     GPIO_InitStruct.Speed = GPIO_SPEED_FREQ_LOW;
 1154              		.loc 1 473 5 is_stmt 1 view .LVU428
 473:src/system/tim.c ****     GPIO_InitStruct.Speed = GPIO_SPEED_FREQ_LOW;
 1155              		.loc 1 473 26 is_stmt 0 view .LVU429
 1156 0132 0A94     		str	r4, [sp, #40]
 474:src/system/tim.c ****     GPIO_InitStruct.Alternate = GPIO_AF1_TIM3;
 1157              		.loc 1 474 5 is_stmt 1 view .LVU430
 474:src/system/tim.c ****     GPIO_InitStruct.Alternate = GPIO_AF1_TIM3;
 1158              		.loc 1 474 27 is_stmt 0 view .LVU431
 1159 0134 0B94     		str	r4, [sp, #44]
 475:src/system/tim.c ****     HAL_GPIO_Init(GPIOB, &GPIO_InitStruct);
 1160              		.loc 1 475 5 is_stmt 1 view .LVU432
 475:src/system/tim.c ****     HAL_GPIO_Init(GPIOB, &GPIO_InitStruct);
 1161              		.loc 1 475 31 is_stmt 0 view .LVU433
 1162 0136 0C96     		str	r6, [sp, #48]
 476:src/system/tim.c **** 
 1163              		.loc 1 476 5 is_stmt 1 view .LVU434
 1164 0138 FFF7FEFF 		bl	HAL_GPIO_Init
 1165              	.LVL33:
 1166 013c 7AE7     		b	.L43
 1167              	.LVL34:
 1168              	.L52:
 488:src/system/tim.c ****     /**TIM14 GPIO Configuration
 1169              		.loc 1 488 5 view .LVU435
 1170              	.LBB69:
 488:src/system/tim.c ****     /**TIM14 GPIO Configuration
 1171              		.loc 1 488 5 view .LVU436
 488:src/system/tim.c ****     /**TIM14 GPIO Configuration
 1172              		.loc 1 488 5 view .LVU437
 1173 013e 2023     		movs	r3, #32
 1174 0140 154A     		ldr	r2, .L55+20
 1175              	.LBE69:
 497:src/system/tim.c **** 
ARM GAS  /tmp/ccJHRQAf.s 			page 38


 1176              		.loc 1 497 5 is_stmt 0 view .LVU438
 1177 0142 1748     		ldr	r0, .L55+28
 1178              	.LBB70:
 488:src/system/tim.c ****     /**TIM14 GPIO Configuration
 1179              		.loc 1 488 5 view .LVU439
 1180 0144 516B     		ldr	r1, [r2, #52]
 1181 0146 1943     		orrs	r1, r3
 1182 0148 5163     		str	r1, [r2, #52]
 488:src/system/tim.c ****     /**TIM14 GPIO Configuration
 1183              		.loc 1 488 5 is_stmt 1 view .LVU440
 1184 014a 526B     		ldr	r2, [r2, #52]
 1185              	.LBE70:
 497:src/system/tim.c **** 
 1186              		.loc 1 497 5 is_stmt 0 view .LVU441
 1187 014c 08A9     		add	r1, sp, #32
 1188              	.LBB71:
 488:src/system/tim.c ****     /**TIM14 GPIO Configuration
 1189              		.loc 1 488 5 view .LVU442
 1190 014e 1340     		ands	r3, r2
 1191 0150 0593     		str	r3, [sp, #20]
 488:src/system/tim.c ****     /**TIM14 GPIO Configuration
 1192              		.loc 1 488 5 is_stmt 1 view .LVU443
 1193              	.LBE71:
 492:src/system/tim.c ****     GPIO_InitStruct.Mode = GPIO_MODE_AF_PP;
 1194              		.loc 1 492 25 is_stmt 0 view .LVU444
 1195 0152 0122     		movs	r2, #1
 1196              	.LBB72:
 488:src/system/tim.c ****     /**TIM14 GPIO Configuration
 1197              		.loc 1 488 5 view .LVU445
 1198 0154 059B     		ldr	r3, [sp, #20]
 1199              	.LBE72:
 488:src/system/tim.c ****     /**TIM14 GPIO Configuration
 1200              		.loc 1 488 5 is_stmt 1 view .LVU446
 492:src/system/tim.c ****     GPIO_InitStruct.Mode = GPIO_MODE_AF_PP;
 1201              		.loc 1 492 5 view .LVU447
 493:src/system/tim.c ****     GPIO_InitStruct.Pull = GPIO_NOPULL;
 1202              		.loc 1 493 5 view .LVU448
 492:src/system/tim.c ****     GPIO_InitStruct.Mode = GPIO_MODE_AF_PP;
 1203              		.loc 1 492 25 is_stmt 0 view .LVU449
 1204 0156 0223     		movs	r3, #2
 1205 0158 0892     		str	r2, [sp, #32]
 1206 015a 0993     		str	r3, [sp, #36]
 494:src/system/tim.c ****     GPIO_InitStruct.Speed = GPIO_SPEED_FREQ_LOW;
 1207              		.loc 1 494 5 is_stmt 1 view .LVU450
 495:src/system/tim.c ****     GPIO_InitStruct.Alternate = GPIO_AF2_TIM14;
 1208              		.loc 1 495 5 view .LVU451
 496:src/system/tim.c ****     HAL_GPIO_Init(GPIOF, &GPIO_InitStruct);
 1209              		.loc 1 496 5 view .LVU452
 496:src/system/tim.c ****     HAL_GPIO_Init(GPIOF, &GPIO_InitStruct);
 1210              		.loc 1 496 31 is_stmt 0 view .LVU453
 1211 015c 0223     		movs	r3, #2
 1212 015e 0C93     		str	r3, [sp, #48]
 497:src/system/tim.c **** 
 1213              		.loc 1 497 5 is_stmt 1 view .LVU454
 1214 0160 FFF7FEFF 		bl	HAL_GPIO_Init
 1215              	.LVL35:
 1216 0164 66E7     		b	.L43
ARM GAS  /tmp/ccJHRQAf.s 			page 39


 1217              	.L54:
 530:src/system/tim.c ****     /**TIM17 GPIO Configuration
 1218              		.loc 1 530 5 view .LVU455
 1219              	.LBB73:
 530:src/system/tim.c ****     /**TIM17 GPIO Configuration
 1220              		.loc 1 530 5 view .LVU456
 530:src/system/tim.c ****     /**TIM17 GPIO Configuration
 1221              		.loc 1 530 5 view .LVU457
 1222 0166 0123     		movs	r3, #1
 1223 0168 0B4A     		ldr	r2, .L55+20
 1224 016a 516B     		ldr	r1, [r2, #52]
 1225 016c 1943     		orrs	r1, r3
 1226 016e 5163     		str	r1, [r2, #52]
 530:src/system/tim.c ****     /**TIM17 GPIO Configuration
 1227              		.loc 1 530 5 view .LVU458
 1228 0170 526B     		ldr	r2, [r2, #52]
 1229 0172 1340     		ands	r3, r2
 1230 0174 0793     		str	r3, [sp, #28]
 530:src/system/tim.c ****     /**TIM17 GPIO Configuration
 1231              		.loc 1 530 5 view .LVU459
 1232              	.LBE73:
 534:src/system/tim.c ****     GPIO_InitStruct.Mode = GPIO_MODE_AF_PP;
 1233              		.loc 1 534 25 is_stmt 0 view .LVU460
 1234 0176 8022     		movs	r2, #128
 1235              	.LBB74:
 530:src/system/tim.c ****     /**TIM17 GPIO Configuration
 1236              		.loc 1 530 5 view .LVU461
 1237 0178 079B     		ldr	r3, [sp, #28]
 1238              	.LBE74:
 530:src/system/tim.c ****     /**TIM17 GPIO Configuration
 1239              		.loc 1 530 5 is_stmt 1 view .LVU462
 534:src/system/tim.c ****     GPIO_InitStruct.Mode = GPIO_MODE_AF_PP;
 1240              		.loc 1 534 5 view .LVU463
 535:src/system/tim.c ****     GPIO_InitStruct.Pull = GPIO_NOPULL;
 1241              		.loc 1 535 5 view .LVU464
 534:src/system/tim.c ****     GPIO_InitStruct.Mode = GPIO_MODE_AF_PP;
 1242              		.loc 1 534 25 is_stmt 0 view .LVU465
 1243 017a 0223     		movs	r3, #2
 1244 017c 0892     		str	r2, [sp, #32]
 1245 017e 0993     		str	r3, [sp, #36]
 1246 0180 8FE7     		b	.L49
 1247              	.L56:
 1248 0182 C046     		.align	2
 1249              	.L55:
 1250 0184 002C0140 		.word	1073818624
 1251 0188 00040040 		.word	1073742848
 1252 018c 00200040 		.word	1073750016
 1253 0190 00440140 		.word	1073824768
 1254 0194 00480140 		.word	1073825792
 1255 0198 00100240 		.word	1073876992
 1256 019c 000C0050 		.word	1342180352
 1257 01a0 00140050 		.word	1342182400
 1258 01a4 00080050 		.word	1342179328
 1259 01a8 00040050 		.word	1342178304
 1260              		.cfi_endproc
 1261              	.LFE220:
 1263              		.section	.text.MX_TIM1_Init,"ax",%progbits
ARM GAS  /tmp/ccJHRQAf.s 			page 40


 1264              		.align	1
 1265              		.p2align 2,,3
 1266              		.global	MX_TIM1_Init
 1267              		.syntax unified
 1268              		.code	16
 1269              		.thumb_func
 1271              	MX_TIM1_Init:
 1272              	.LFB214:
  35:src/system/tim.c **** 
 1273              		.loc 1 35 1 is_stmt 1 view -0
 1274              		.cfi_startproc
 1275              		@ args = 0, pretend = 0, frame = 112
 1276              		@ frame_needed = 0, uses_anonymous_args = 0
  41:src/system/tim.c ****   TIM_MasterConfigTypeDef sMasterConfig = {0};
 1277              		.loc 1 41 3 view .LVU467
  35:src/system/tim.c **** 
 1278              		.loc 1 35 1 is_stmt 0 view .LVU468
 1279 0000 10B5     		push	{r4, lr}
 1280              	.LCFI5:
 1281              		.cfi_def_cfa_offset 8
 1282              		.cfi_offset 4, -8
 1283              		.cfi_offset 14, -4
 1284 0002 9CB0     		sub	sp, sp, #112
 1285              	.LCFI6:
 1286              		.cfi_def_cfa_offset 120
  41:src/system/tim.c ****   TIM_MasterConfigTypeDef sMasterConfig = {0};
 1287              		.loc 1 41 26 view .LVU469
 1288 0004 1022     		movs	r2, #16
 1289 0006 0021     		movs	r1, #0
 1290 0008 04A8     		add	r0, sp, #16
 1291 000a FFF7FEFF 		bl	memset
 1292              	.LVL36:
  42:src/system/tim.c ****   TIM_OC_InitTypeDef sConfigOC = {0};
 1293              		.loc 1 42 3 is_stmt 1 view .LVU470
  42:src/system/tim.c ****   TIM_OC_InitTypeDef sConfigOC = {0};
 1294              		.loc 1 42 27 is_stmt 0 view .LVU471
 1295 000e 0C22     		movs	r2, #12
 1296 0010 0021     		movs	r1, #0
 1297 0012 6846     		mov	r0, sp
 1298 0014 FFF7FEFF 		bl	memset
 1299              	.LVL37:
  43:src/system/tim.c ****   TIM_BreakDeadTimeConfigTypeDef sBreakDeadTimeConfig = {0};
 1300              		.loc 1 43 3 is_stmt 1 view .LVU472
  43:src/system/tim.c ****   TIM_BreakDeadTimeConfigTypeDef sBreakDeadTimeConfig = {0};
 1301              		.loc 1 43 22 is_stmt 0 view .LVU473
 1302 0018 1C22     		movs	r2, #28
 1303 001a 0021     		movs	r1, #0
 1304 001c 08A8     		add	r0, sp, #32
 1305 001e FFF7FEFF 		bl	memset
 1306              	.LVL38:
  44:src/system/tim.c **** 
 1307              		.loc 1 44 3 is_stmt 1 view .LVU474
  44:src/system/tim.c **** 
 1308              		.loc 1 44 34 is_stmt 0 view .LVU475
 1309 0022 3422     		movs	r2, #52
 1310 0024 0021     		movs	r1, #0
 1311 0026 0FA8     		add	r0, sp, #60
ARM GAS  /tmp/ccJHRQAf.s 			page 41


 1312 0028 FFF7FEFF 		bl	memset
 1313              	.LVL39:
  49:src/system/tim.c ****   htim1.Init.Prescaler = 0;
 1314              		.loc 1 49 3 is_stmt 1 view .LVU476
  49:src/system/tim.c ****   htim1.Init.Prescaler = 0;
 1315              		.loc 1 49 18 is_stmt 0 view .LVU477
 1316 002c 3F4C     		ldr	r4, .L98
 1317 002e 404B     		ldr	r3, .L98+4
  52:src/system/tim.c ****   htim1.Init.ClockDivision = TIM_CLOCKDIVISION_DIV1;
 1318              		.loc 1 52 21 view .LVU478
 1319 0030 404A     		ldr	r2, .L98+8
  49:src/system/tim.c ****   htim1.Init.Prescaler = 0;
 1320              		.loc 1 49 18 view .LVU479
 1321 0032 2360     		str	r3, [r4]
  50:src/system/tim.c ****   htim1.Init.CounterMode = TIM_COUNTERMODE_UP;
 1322              		.loc 1 50 3 is_stmt 1 view .LVU480
  50:src/system/tim.c ****   htim1.Init.CounterMode = TIM_COUNTERMODE_UP;
 1323              		.loc 1 50 24 is_stmt 0 view .LVU481
 1324 0034 0023     		movs	r3, #0
  56:src/system/tim.c ****   {
 1325              		.loc 1 56 7 view .LVU482
 1326 0036 2000     		movs	r0, r4
  50:src/system/tim.c ****   htim1.Init.CounterMode = TIM_COUNTERMODE_UP;
 1327              		.loc 1 50 24 view .LVU483
 1328 0038 6360     		str	r3, [r4, #4]
  51:src/system/tim.c ****   htim1.Init.Period = 65535;
 1329              		.loc 1 51 3 is_stmt 1 view .LVU484
  51:src/system/tim.c ****   htim1.Init.Period = 65535;
 1330              		.loc 1 51 26 is_stmt 0 view .LVU485
 1331 003a A360     		str	r3, [r4, #8]
  52:src/system/tim.c ****   htim1.Init.ClockDivision = TIM_CLOCKDIVISION_DIV1;
 1332              		.loc 1 52 3 is_stmt 1 view .LVU486
  52:src/system/tim.c ****   htim1.Init.ClockDivision = TIM_CLOCKDIVISION_DIV1;
 1333              		.loc 1 52 21 is_stmt 0 view .LVU487
 1334 003c E260     		str	r2, [r4, #12]
  53:src/system/tim.c ****   htim1.Init.RepetitionCounter = 0;
 1335              		.loc 1 53 3 is_stmt 1 view .LVU488
  53:src/system/tim.c ****   htim1.Init.RepetitionCounter = 0;
 1336              		.loc 1 53 28 is_stmt 0 view .LVU489
 1337 003e 2361     		str	r3, [r4, #16]
  54:src/system/tim.c ****   htim1.Init.AutoReloadPreload = TIM_AUTORELOAD_PRELOAD_DISABLE;
 1338              		.loc 1 54 3 is_stmt 1 view .LVU490
  54:src/system/tim.c ****   htim1.Init.AutoReloadPreload = TIM_AUTORELOAD_PRELOAD_DISABLE;
 1339              		.loc 1 54 32 is_stmt 0 view .LVU491
 1340 0040 6361     		str	r3, [r4, #20]
  55:src/system/tim.c ****   if (HAL_TIM_Base_Init(&htim1) != HAL_OK)
 1341              		.loc 1 55 3 is_stmt 1 view .LVU492
  55:src/system/tim.c ****   if (HAL_TIM_Base_Init(&htim1) != HAL_OK)
 1342              		.loc 1 55 32 is_stmt 0 view .LVU493
 1343 0042 A361     		str	r3, [r4, #24]
  56:src/system/tim.c ****   {
 1344              		.loc 1 56 3 is_stmt 1 view .LVU494
  56:src/system/tim.c ****   {
 1345              		.loc 1 56 7 is_stmt 0 view .LVU495
 1346 0044 FFF7FEFF 		bl	HAL_TIM_Base_Init
 1347              	.LVL40:
  56:src/system/tim.c ****   {
ARM GAS  /tmp/ccJHRQAf.s 			page 42


 1348              		.loc 1 56 6 view .LVU496
 1349 0048 0028     		cmp	r0, #0
 1350 004a 56D1     		bne	.L90
 1351              	.L58:
  60:src/system/tim.c ****   if (HAL_TIM_ConfigClockSource(&htim1, &sClockSourceConfig) != HAL_OK)
 1352              		.loc 1 60 3 is_stmt 1 view .LVU497
  60:src/system/tim.c ****   if (HAL_TIM_ConfigClockSource(&htim1, &sClockSourceConfig) != HAL_OK)
 1353              		.loc 1 60 34 is_stmt 0 view .LVU498
 1354 004c 8023     		movs	r3, #128
  61:src/system/tim.c ****   {
 1355              		.loc 1 61 7 view .LVU499
 1356 004e 2000     		movs	r0, r4
  60:src/system/tim.c ****   if (HAL_TIM_ConfigClockSource(&htim1, &sClockSourceConfig) != HAL_OK)
 1357              		.loc 1 60 34 view .LVU500
 1358 0050 5B01     		lsls	r3, r3, #5
  61:src/system/tim.c ****   {
 1359              		.loc 1 61 7 view .LVU501
 1360 0052 04A9     		add	r1, sp, #16
  60:src/system/tim.c ****   if (HAL_TIM_ConfigClockSource(&htim1, &sClockSourceConfig) != HAL_OK)
 1361              		.loc 1 60 34 view .LVU502
 1362 0054 0493     		str	r3, [sp, #16]
  61:src/system/tim.c ****   {
 1363              		.loc 1 61 3 is_stmt 1 view .LVU503
  61:src/system/tim.c ****   {
 1364              		.loc 1 61 7 is_stmt 0 view .LVU504
 1365 0056 FFF7FEFF 		bl	HAL_TIM_ConfigClockSource
 1366              	.LVL41:
  61:src/system/tim.c ****   {
 1367              		.loc 1 61 6 view .LVU505
 1368 005a 0028     		cmp	r0, #0
 1369 005c 62D1     		bne	.L91
 1370              	.L59:
  65:src/system/tim.c ****   {
 1371              		.loc 1 65 3 is_stmt 1 view .LVU506
  65:src/system/tim.c ****   {
 1372              		.loc 1 65 7 is_stmt 0 view .LVU507
 1373 005e 2000     		movs	r0, r4
 1374 0060 FFF7FEFF 		bl	HAL_TIM_PWM_Init
 1375              	.LVL42:
  65:src/system/tim.c ****   {
 1376              		.loc 1 65 6 view .LVU508
 1377 0064 0028     		cmp	r0, #0
 1378 0066 5AD1     		bne	.L92
 1379              	.L60:
  69:src/system/tim.c ****   sMasterConfig.MasterOutputTrigger2 = TIM_TRGO2_RESET;
 1380              		.loc 1 69 3 is_stmt 1 view .LVU509
  70:src/system/tim.c ****   sMasterConfig.MasterSlaveMode = TIM_MASTERSLAVEMODE_DISABLE;
 1381              		.loc 1 70 3 view .LVU510
  69:src/system/tim.c ****   sMasterConfig.MasterOutputTrigger2 = TIM_TRGO2_RESET;
 1382              		.loc 1 69 37 is_stmt 0 view .LVU511
 1383 0068 0023     		movs	r3, #0
 1384 006a 0022     		movs	r2, #0
 1385 006c 0092     		str	r2, [sp]
 1386 006e 0193     		str	r3, [sp, #4]
  71:src/system/tim.c ****   if (HAL_TIMEx_MasterConfigSynchronization(&htim1, &sMasterConfig) != HAL_OK)
 1387              		.loc 1 71 3 is_stmt 1 view .LVU512
  71:src/system/tim.c ****   if (HAL_TIMEx_MasterConfigSynchronization(&htim1, &sMasterConfig) != HAL_OK)
ARM GAS  /tmp/ccJHRQAf.s 			page 43


 1388              		.loc 1 71 33 is_stmt 0 view .LVU513
 1389 0070 0023     		movs	r3, #0
  72:src/system/tim.c ****   {
 1390              		.loc 1 72 7 view .LVU514
 1391 0072 6946     		mov	r1, sp
 1392 0074 2000     		movs	r0, r4
  71:src/system/tim.c ****   if (HAL_TIMEx_MasterConfigSynchronization(&htim1, &sMasterConfig) != HAL_OK)
 1393              		.loc 1 71 33 view .LVU515
 1394 0076 0293     		str	r3, [sp, #8]
  72:src/system/tim.c ****   {
 1395              		.loc 1 72 3 is_stmt 1 view .LVU516
  72:src/system/tim.c ****   {
 1396              		.loc 1 72 7 is_stmt 0 view .LVU517
 1397 0078 FFF7FEFF 		bl	HAL_TIMEx_MasterConfigSynchronization
 1398              	.LVL43:
  72:src/system/tim.c ****   {
 1399              		.loc 1 72 6 view .LVU518
 1400 007c 0028     		cmp	r0, #0
 1401 007e 4BD1     		bne	.L93
 1402              	.L61:
  76:src/system/tim.c ****   sConfigOC.Pulse = 0;
 1403              		.loc 1 76 3 is_stmt 1 view .LVU519
  76:src/system/tim.c ****   sConfigOC.Pulse = 0;
 1404              		.loc 1 76 20 is_stmt 0 view .LVU520
 1405 0080 6023     		movs	r3, #96
  80:src/system/tim.c ****   sConfigOC.OCIdleState = TIM_OCIDLESTATE_RESET;
 1406              		.loc 1 80 24 view .LVU521
 1407 0082 0020     		movs	r0, #0
 1408 0084 0021     		movs	r1, #0
  76:src/system/tim.c ****   sConfigOC.Pulse = 0;
 1409              		.loc 1 76 20 view .LVU522
 1410 0086 0893     		str	r3, [sp, #32]
  77:src/system/tim.c ****   sConfigOC.OCPolarity = TIM_OCPOLARITY_HIGH;
 1411              		.loc 1 77 3 is_stmt 1 view .LVU523
  77:src/system/tim.c ****   sConfigOC.OCPolarity = TIM_OCPOLARITY_HIGH;
 1412              		.loc 1 77 19 is_stmt 0 view .LVU524
 1413 0088 0023     		movs	r3, #0
  80:src/system/tim.c ****   sConfigOC.OCIdleState = TIM_OCIDLESTATE_RESET;
 1414              		.loc 1 80 24 view .LVU525
 1415 008a 0C90     		str	r0, [sp, #48]
 1416 008c 0D91     		str	r1, [sp, #52]
  83:src/system/tim.c ****   {
 1417              		.loc 1 83 7 view .LVU526
 1418 008e 0022     		movs	r2, #0
 1419 0090 2000     		movs	r0, r4
 1420 0092 08A9     		add	r1, sp, #32
  77:src/system/tim.c ****   sConfigOC.OCPolarity = TIM_OCPOLARITY_HIGH;
 1421              		.loc 1 77 19 view .LVU527
 1422 0094 0993     		str	r3, [sp, #36]
  78:src/system/tim.c ****   sConfigOC.OCNPolarity = TIM_OCNPOLARITY_HIGH;
 1423              		.loc 1 78 3 is_stmt 1 view .LVU528
  78:src/system/tim.c ****   sConfigOC.OCNPolarity = TIM_OCNPOLARITY_HIGH;
 1424              		.loc 1 78 24 is_stmt 0 view .LVU529
 1425 0096 0A93     		str	r3, [sp, #40]
  79:src/system/tim.c ****   sConfigOC.OCFastMode = TIM_OCFAST_DISABLE;
 1426              		.loc 1 79 3 is_stmt 1 view .LVU530
  79:src/system/tim.c ****   sConfigOC.OCFastMode = TIM_OCFAST_DISABLE;
ARM GAS  /tmp/ccJHRQAf.s 			page 44


 1427              		.loc 1 79 25 is_stmt 0 view .LVU531
 1428 0098 0B93     		str	r3, [sp, #44]
  80:src/system/tim.c ****   sConfigOC.OCIdleState = TIM_OCIDLESTATE_RESET;
 1429              		.loc 1 80 3 is_stmt 1 view .LVU532
  81:src/system/tim.c ****   sConfigOC.OCNIdleState = TIM_OCNIDLESTATE_RESET;
 1430              		.loc 1 81 3 view .LVU533
  82:src/system/tim.c ****   if (HAL_TIM_PWM_ConfigChannel(&htim1, &sConfigOC, TIM_CHANNEL_1) != HAL_OK)
 1431              		.loc 1 82 3 view .LVU534
  82:src/system/tim.c ****   if (HAL_TIM_PWM_ConfigChannel(&htim1, &sConfigOC, TIM_CHANNEL_1) != HAL_OK)
 1432              		.loc 1 82 26 is_stmt 0 view .LVU535
 1433 009a 0E93     		str	r3, [sp, #56]
  83:src/system/tim.c ****   {
 1434              		.loc 1 83 3 is_stmt 1 view .LVU536
  83:src/system/tim.c ****   {
 1435              		.loc 1 83 7 is_stmt 0 view .LVU537
 1436 009c FFF7FEFF 		bl	HAL_TIM_PWM_ConfigChannel
 1437              	.LVL44:
  83:src/system/tim.c ****   {
 1438              		.loc 1 83 6 view .LVU538
 1439 00a0 0028     		cmp	r0, #0
 1440 00a2 36D1     		bne	.L94
 1441              	.L62:
  87:src/system/tim.c ****   {
 1442              		.loc 1 87 3 is_stmt 1 view .LVU539
  87:src/system/tim.c ****   {
 1443              		.loc 1 87 7 is_stmt 0 view .LVU540
 1444 00a4 0422     		movs	r2, #4
 1445 00a6 2000     		movs	r0, r4
 1446 00a8 08A9     		add	r1, sp, #32
 1447 00aa FFF7FEFF 		bl	HAL_TIM_PWM_ConfigChannel
 1448              	.LVL45:
  87:src/system/tim.c ****   {
 1449              		.loc 1 87 6 view .LVU541
 1450 00ae 0028     		cmp	r0, #0
 1451 00b0 2CD1     		bne	.L95
 1452              	.L63:
  91:src/system/tim.c ****   {
 1453              		.loc 1 91 3 is_stmt 1 view .LVU542
  91:src/system/tim.c ****   {
 1454              		.loc 1 91 7 is_stmt 0 view .LVU543
 1455 00b2 0C22     		movs	r2, #12
 1456 00b4 2000     		movs	r0, r4
 1457 00b6 08A9     		add	r1, sp, #32
 1458 00b8 FFF7FEFF 		bl	HAL_TIM_PWM_ConfigChannel
 1459              	.LVL46:
  91:src/system/tim.c ****   {
 1460              		.loc 1 91 6 view .LVU544
 1461 00bc 0028     		cmp	r0, #0
 1462 00be 22D1     		bne	.L96
 1463              	.L64:
  95:src/system/tim.c ****   sBreakDeadTimeConfig.OffStateIDLEMode = TIM_OSSI_DISABLE;
 1464              		.loc 1 95 3 is_stmt 1 view .LVU545
 100:src/system/tim.c ****   sBreakDeadTimeConfig.BreakFilter = 0;
 1465              		.loc 1 100 38 is_stmt 0 view .LVU546
 1466 00c0 8022     		movs	r2, #128
 1467 00c2 9201     		lsls	r2, r2, #6
 1468 00c4 1492     		str	r2, [sp, #80]
ARM GAS  /tmp/ccJHRQAf.s 			page 45


 104:src/system/tim.c ****   sBreakDeadTimeConfig.Break2Filter = 0;
 1469              		.loc 1 104 39 view .LVU547
 1470 00c6 8022     		movs	r2, #128
  95:src/system/tim.c ****   sBreakDeadTimeConfig.OffStateIDLEMode = TIM_OSSI_DISABLE;
 1471              		.loc 1 95 40 view .LVU548
 1472 00c8 0023     		movs	r3, #0
 104:src/system/tim.c ****   sBreakDeadTimeConfig.Break2Filter = 0;
 1473              		.loc 1 104 39 view .LVU549
 1474 00ca 9204     		lsls	r2, r2, #18
 108:src/system/tim.c ****   {
 1475              		.loc 1 108 7 view .LVU550
 1476 00cc 2000     		movs	r0, r4
 1477 00ce 0FA9     		add	r1, sp, #60
  95:src/system/tim.c ****   sBreakDeadTimeConfig.OffStateIDLEMode = TIM_OSSI_DISABLE;
 1478              		.loc 1 95 40 view .LVU551
 1479 00d0 0F93     		str	r3, [sp, #60]
  96:src/system/tim.c ****   sBreakDeadTimeConfig.LockLevel = TIM_LOCKLEVEL_OFF;
 1480              		.loc 1 96 3 is_stmt 1 view .LVU552
  96:src/system/tim.c ****   sBreakDeadTimeConfig.LockLevel = TIM_LOCKLEVEL_OFF;
 1481              		.loc 1 96 41 is_stmt 0 view .LVU553
 1482 00d2 1093     		str	r3, [sp, #64]
  97:src/system/tim.c ****   sBreakDeadTimeConfig.DeadTime = 0;
 1483              		.loc 1 97 3 is_stmt 1 view .LVU554
  97:src/system/tim.c ****   sBreakDeadTimeConfig.DeadTime = 0;
 1484              		.loc 1 97 34 is_stmt 0 view .LVU555
 1485 00d4 1193     		str	r3, [sp, #68]
  98:src/system/tim.c ****   sBreakDeadTimeConfig.BreakState = TIM_BREAK_DISABLE;
 1486              		.loc 1 98 3 is_stmt 1 view .LVU556
  98:src/system/tim.c ****   sBreakDeadTimeConfig.BreakState = TIM_BREAK_DISABLE;
 1487              		.loc 1 98 33 is_stmt 0 view .LVU557
 1488 00d6 1293     		str	r3, [sp, #72]
  99:src/system/tim.c ****   sBreakDeadTimeConfig.BreakPolarity = TIM_BREAKPOLARITY_HIGH;
 1489              		.loc 1 99 3 is_stmt 1 view .LVU558
  99:src/system/tim.c ****   sBreakDeadTimeConfig.BreakPolarity = TIM_BREAKPOLARITY_HIGH;
 1490              		.loc 1 99 35 is_stmt 0 view .LVU559
 1491 00d8 1393     		str	r3, [sp, #76]
 100:src/system/tim.c ****   sBreakDeadTimeConfig.BreakFilter = 0;
 1492              		.loc 1 100 3 is_stmt 1 view .LVU560
 101:src/system/tim.c ****   sBreakDeadTimeConfig.BreakAFMode = TIM_BREAK_AFMODE_INPUT;
 1493              		.loc 1 101 3 view .LVU561
 101:src/system/tim.c ****   sBreakDeadTimeConfig.BreakAFMode = TIM_BREAK_AFMODE_INPUT;
 1494              		.loc 1 101 36 is_stmt 0 view .LVU562
 1495 00da 1593     		str	r3, [sp, #84]
 102:src/system/tim.c ****   sBreakDeadTimeConfig.Break2State = TIM_BREAK2_DISABLE;
 1496              		.loc 1 102 3 is_stmt 1 view .LVU563
 102:src/system/tim.c ****   sBreakDeadTimeConfig.Break2State = TIM_BREAK2_DISABLE;
 1497              		.loc 1 102 36 is_stmt 0 view .LVU564
 1498 00dc 1693     		str	r3, [sp, #88]
 103:src/system/tim.c ****   sBreakDeadTimeConfig.Break2Polarity = TIM_BREAK2POLARITY_HIGH;
 1499              		.loc 1 103 3 is_stmt 1 view .LVU565
 103:src/system/tim.c ****   sBreakDeadTimeConfig.Break2Polarity = TIM_BREAK2POLARITY_HIGH;
 1500              		.loc 1 103 36 is_stmt 0 view .LVU566
 1501 00de 1793     		str	r3, [sp, #92]
 104:src/system/tim.c ****   sBreakDeadTimeConfig.Break2Filter = 0;
 1502              		.loc 1 104 3 is_stmt 1 view .LVU567
 104:src/system/tim.c ****   sBreakDeadTimeConfig.Break2Filter = 0;
 1503              		.loc 1 104 39 is_stmt 0 view .LVU568
ARM GAS  /tmp/ccJHRQAf.s 			page 46


 1504 00e0 1892     		str	r2, [sp, #96]
 105:src/system/tim.c ****   sBreakDeadTimeConfig.Break2AFMode = TIM_BREAK_AFMODE_INPUT;
 1505              		.loc 1 105 3 is_stmt 1 view .LVU569
 105:src/system/tim.c ****   sBreakDeadTimeConfig.Break2AFMode = TIM_BREAK_AFMODE_INPUT;
 1506              		.loc 1 105 37 is_stmt 0 view .LVU570
 1507 00e2 1993     		str	r3, [sp, #100]
 106:src/system/tim.c ****   sBreakDeadTimeConfig.AutomaticOutput = TIM_AUTOMATICOUTPUT_DISABLE;
 1508              		.loc 1 106 3 is_stmt 1 view .LVU571
 106:src/system/tim.c ****   sBreakDeadTimeConfig.AutomaticOutput = TIM_AUTOMATICOUTPUT_DISABLE;
 1509              		.loc 1 106 37 is_stmt 0 view .LVU572
 1510 00e4 1A93     		str	r3, [sp, #104]
 107:src/system/tim.c ****   if (HAL_TIMEx_ConfigBreakDeadTime(&htim1, &sBreakDeadTimeConfig) != HAL_OK)
 1511              		.loc 1 107 3 is_stmt 1 view .LVU573
 107:src/system/tim.c ****   if (HAL_TIMEx_ConfigBreakDeadTime(&htim1, &sBreakDeadTimeConfig) != HAL_OK)
 1512              		.loc 1 107 40 is_stmt 0 view .LVU574
 1513 00e6 1B93     		str	r3, [sp, #108]
 108:src/system/tim.c ****   {
 1514              		.loc 1 108 3 is_stmt 1 view .LVU575
 108:src/system/tim.c ****   {
 1515              		.loc 1 108 7 is_stmt 0 view .LVU576
 1516 00e8 FFF7FEFF 		bl	HAL_TIMEx_ConfigBreakDeadTime
 1517              	.LVL47:
 108:src/system/tim.c ****   {
 1518              		.loc 1 108 6 view .LVU577
 1519 00ec 0028     		cmp	r0, #0
 1520 00ee 07D1     		bne	.L97
 1521              	.L65:
 115:src/system/tim.c **** 
 1522              		.loc 1 115 3 is_stmt 1 view .LVU578
 1523 00f0 2000     		movs	r0, r4
 1524 00f2 FFF7FEFF 		bl	HAL_TIM_MspPostInit
 1525              	.LVL48:
 117:src/system/tim.c **** /* TIM3 init function */
 1526              		.loc 1 117 1 is_stmt 0 view .LVU579
 1527 00f6 1CB0     		add	sp, sp, #112
 1528              		@ sp needed
 1529 00f8 10BD     		pop	{r4, pc}
 1530              	.L90:
  58:src/system/tim.c ****   }
 1531              		.loc 1 58 5 is_stmt 1 view .LVU580
 1532 00fa FFF7FEFF 		bl	Error_Handler
 1533              	.LVL49:
 1534 00fe A5E7     		b	.L58
 1535              	.L97:
 110:src/system/tim.c ****   }
 1536              		.loc 1 110 5 view .LVU581
 1537 0100 FFF7FEFF 		bl	Error_Handler
 1538              	.LVL50:
 1539 0104 F4E7     		b	.L65
 1540              	.L96:
  93:src/system/tim.c ****   }
 1541              		.loc 1 93 5 view .LVU582
 1542 0106 FFF7FEFF 		bl	Error_Handler
 1543              	.LVL51:
 1544 010a D9E7     		b	.L64
 1545              	.L95:
  89:src/system/tim.c ****   }
ARM GAS  /tmp/ccJHRQAf.s 			page 47


 1546              		.loc 1 89 5 view .LVU583
 1547 010c FFF7FEFF 		bl	Error_Handler
 1548              	.LVL52:
 1549 0110 CFE7     		b	.L63
 1550              	.L94:
  85:src/system/tim.c ****   }
 1551              		.loc 1 85 5 view .LVU584
 1552 0112 FFF7FEFF 		bl	Error_Handler
 1553              	.LVL53:
 1554 0116 C5E7     		b	.L62
 1555              	.L93:
  74:src/system/tim.c ****   }
 1556              		.loc 1 74 5 view .LVU585
 1557 0118 FFF7FEFF 		bl	Error_Handler
 1558              	.LVL54:
 1559 011c B0E7     		b	.L61
 1560              	.L92:
  67:src/system/tim.c ****   }
 1561              		.loc 1 67 5 view .LVU586
 1562 011e FFF7FEFF 		bl	Error_Handler
 1563              	.LVL55:
 1564 0122 A1E7     		b	.L60
 1565              	.L91:
  63:src/system/tim.c ****   }
 1566              		.loc 1 63 5 view .LVU587
 1567 0124 FFF7FEFF 		bl	Error_Handler
 1568              	.LVL56:
 1569 0128 99E7     		b	.L59
 1570              	.L99:
 1571 012a C046     		.align	2
 1572              	.L98:
 1573 012c 00000000 		.word	htim1
 1574 0130 002C0140 		.word	1073818624
 1575 0134 FFFF0000 		.word	65535
 1576              		.cfi_endproc
 1577              	.LFE214:
 1579              		.section	.text.MX_TIM3_Init,"ax",%progbits
 1580              		.align	1
 1581              		.p2align 2,,3
 1582              		.global	MX_TIM3_Init
 1583              		.syntax unified
 1584              		.code	16
 1585              		.thumb_func
 1587              	MX_TIM3_Init:
 1588              	.LFB215:
 120:src/system/tim.c **** 
 1589              		.loc 1 120 1 view -0
 1590              		.cfi_startproc
 1591              		@ args = 0, pretend = 0, frame = 64
 1592              		@ frame_needed = 0, uses_anonymous_args = 0
 126:src/system/tim.c ****   TIM_MasterConfigTypeDef sMasterConfig = {0};
 1593              		.loc 1 126 3 view .LVU589
 120:src/system/tim.c **** 
 1594              		.loc 1 120 1 is_stmt 0 view .LVU590
 1595 0000 10B5     		push	{r4, lr}
 1596              	.LCFI7:
 1597              		.cfi_def_cfa_offset 8
ARM GAS  /tmp/ccJHRQAf.s 			page 48


 1598              		.cfi_offset 4, -8
 1599              		.cfi_offset 14, -4
 1600 0002 90B0     		sub	sp, sp, #64
 1601              	.LCFI8:
 1602              		.cfi_def_cfa_offset 72
 126:src/system/tim.c ****   TIM_MasterConfigTypeDef sMasterConfig = {0};
 1603              		.loc 1 126 26 view .LVU591
 1604 0004 1022     		movs	r2, #16
 1605 0006 0021     		movs	r1, #0
 1606 0008 04A8     		add	r0, sp, #16
 1607 000a FFF7FEFF 		bl	memset
 1608              	.LVL57:
 127:src/system/tim.c ****   TIM_OC_InitTypeDef sConfigOC = {0};
 1609              		.loc 1 127 3 is_stmt 1 view .LVU592
 127:src/system/tim.c ****   TIM_OC_InitTypeDef sConfigOC = {0};
 1610              		.loc 1 127 27 is_stmt 0 view .LVU593
 1611 000e 0C22     		movs	r2, #12
 1612 0010 0021     		movs	r1, #0
 1613 0012 01A8     		add	r0, sp, #4
 1614 0014 FFF7FEFF 		bl	memset
 1615              	.LVL58:
 128:src/system/tim.c **** 
 1616              		.loc 1 128 3 is_stmt 1 view .LVU594
 128:src/system/tim.c **** 
 1617              		.loc 1 128 22 is_stmt 0 view .LVU595
 1618 0018 1C22     		movs	r2, #28
 1619 001a 0021     		movs	r1, #0
 1620 001c 08A8     		add	r0, sp, #32
 1621 001e FFF7FEFF 		bl	memset
 1622              	.LVL59:
 133:src/system/tim.c ****   htim3.Init.Prescaler = 0;
 1623              		.loc 1 133 3 is_stmt 1 view .LVU596
 133:src/system/tim.c ****   htim3.Init.Prescaler = 0;
 1624              		.loc 1 133 18 is_stmt 0 view .LVU597
 1625 0022 334C     		ldr	r4, .L141
 1626 0024 334B     		ldr	r3, .L141+4
 136:src/system/tim.c ****   htim3.Init.ClockDivision = TIM_CLOCKDIVISION_DIV1;
 1627              		.loc 1 136 21 view .LVU598
 1628 0026 344A     		ldr	r2, .L141+8
 133:src/system/tim.c ****   htim3.Init.Prescaler = 0;
 1629              		.loc 1 133 18 view .LVU599
 1630 0028 2360     		str	r3, [r4]
 134:src/system/tim.c ****   htim3.Init.CounterMode = TIM_COUNTERMODE_UP;
 1631              		.loc 1 134 3 is_stmt 1 view .LVU600
 134:src/system/tim.c ****   htim3.Init.CounterMode = TIM_COUNTERMODE_UP;
 1632              		.loc 1 134 24 is_stmt 0 view .LVU601
 1633 002a 0023     		movs	r3, #0
 139:src/system/tim.c ****   {
 1634              		.loc 1 139 7 view .LVU602
 1635 002c 2000     		movs	r0, r4
 134:src/system/tim.c ****   htim3.Init.CounterMode = TIM_COUNTERMODE_UP;
 1636              		.loc 1 134 24 view .LVU603
 1637 002e 6360     		str	r3, [r4, #4]
 135:src/system/tim.c ****   htim3.Init.Period = 65535;
 1638              		.loc 1 135 3 is_stmt 1 view .LVU604
 135:src/system/tim.c ****   htim3.Init.Period = 65535;
 1639              		.loc 1 135 26 is_stmt 0 view .LVU605
ARM GAS  /tmp/ccJHRQAf.s 			page 49


 1640 0030 A360     		str	r3, [r4, #8]
 136:src/system/tim.c ****   htim3.Init.ClockDivision = TIM_CLOCKDIVISION_DIV1;
 1641              		.loc 1 136 3 is_stmt 1 view .LVU606
 136:src/system/tim.c ****   htim3.Init.ClockDivision = TIM_CLOCKDIVISION_DIV1;
 1642              		.loc 1 136 21 is_stmt 0 view .LVU607
 1643 0032 E260     		str	r2, [r4, #12]
 137:src/system/tim.c ****   htim3.Init.AutoReloadPreload = TIM_AUTORELOAD_PRELOAD_DISABLE;
 1644              		.loc 1 137 3 is_stmt 1 view .LVU608
 137:src/system/tim.c ****   htim3.Init.AutoReloadPreload = TIM_AUTORELOAD_PRELOAD_DISABLE;
 1645              		.loc 1 137 28 is_stmt 0 view .LVU609
 1646 0034 2361     		str	r3, [r4, #16]
 138:src/system/tim.c ****   if (HAL_TIM_Base_Init(&htim3) != HAL_OK)
 1647              		.loc 1 138 3 is_stmt 1 view .LVU610
 138:src/system/tim.c ****   if (HAL_TIM_Base_Init(&htim3) != HAL_OK)
 1648              		.loc 1 138 32 is_stmt 0 view .LVU611
 1649 0036 A361     		str	r3, [r4, #24]
 139:src/system/tim.c ****   {
 1650              		.loc 1 139 3 is_stmt 1 view .LVU612
 139:src/system/tim.c ****   {
 1651              		.loc 1 139 7 is_stmt 0 view .LVU613
 1652 0038 FFF7FEFF 		bl	HAL_TIM_Base_Init
 1653              	.LVL60:
 139:src/system/tim.c ****   {
 1654              		.loc 1 139 6 view .LVU614
 1655 003c 0028     		cmp	r0, #0
 1656 003e 3ED1     		bne	.L133
 1657              	.L101:
 143:src/system/tim.c ****   if (HAL_TIM_ConfigClockSource(&htim3, &sClockSourceConfig) != HAL_OK)
 1658              		.loc 1 143 3 is_stmt 1 view .LVU615
 143:src/system/tim.c ****   if (HAL_TIM_ConfigClockSource(&htim3, &sClockSourceConfig) != HAL_OK)
 1659              		.loc 1 143 34 is_stmt 0 view .LVU616
 1660 0040 8023     		movs	r3, #128
 144:src/system/tim.c ****   {
 1661              		.loc 1 144 7 view .LVU617
 1662 0042 2000     		movs	r0, r4
 143:src/system/tim.c ****   if (HAL_TIM_ConfigClockSource(&htim3, &sClockSourceConfig) != HAL_OK)
 1663              		.loc 1 143 34 view .LVU618
 1664 0044 5B01     		lsls	r3, r3, #5
 144:src/system/tim.c ****   {
 1665              		.loc 1 144 7 view .LVU619
 1666 0046 04A9     		add	r1, sp, #16
 143:src/system/tim.c ****   if (HAL_TIM_ConfigClockSource(&htim3, &sClockSourceConfig) != HAL_OK)
 1667              		.loc 1 143 34 view .LVU620
 1668 0048 0493     		str	r3, [sp, #16]
 144:src/system/tim.c ****   {
 1669              		.loc 1 144 3 is_stmt 1 view .LVU621
 144:src/system/tim.c ****   {
 1670              		.loc 1 144 7 is_stmt 0 view .LVU622
 1671 004a FFF7FEFF 		bl	HAL_TIM_ConfigClockSource
 1672              	.LVL61:
 144:src/system/tim.c ****   {
 1673              		.loc 1 144 6 view .LVU623
 1674 004e 0028     		cmp	r0, #0
 1675 0050 4AD1     		bne	.L134
 1676              	.L102:
 148:src/system/tim.c ****   {
 1677              		.loc 1 148 3 is_stmt 1 view .LVU624
ARM GAS  /tmp/ccJHRQAf.s 			page 50


 148:src/system/tim.c ****   {
 1678              		.loc 1 148 7 is_stmt 0 view .LVU625
 1679 0052 2000     		movs	r0, r4
 1680 0054 FFF7FEFF 		bl	HAL_TIM_PWM_Init
 1681              	.LVL62:
 148:src/system/tim.c ****   {
 1682              		.loc 1 148 6 view .LVU626
 1683 0058 0028     		cmp	r0, #0
 1684 005a 42D1     		bne	.L135
 1685              	.L103:
 152:src/system/tim.c ****   sMasterConfig.MasterSlaveMode = TIM_MASTERSLAVEMODE_DISABLE;
 1686              		.loc 1 152 3 is_stmt 1 view .LVU627
 152:src/system/tim.c ****   sMasterConfig.MasterSlaveMode = TIM_MASTERSLAVEMODE_DISABLE;
 1687              		.loc 1 152 37 is_stmt 0 view .LVU628
 1688 005c 0023     		movs	r3, #0
 154:src/system/tim.c ****   {
 1689              		.loc 1 154 7 view .LVU629
 1690 005e 2000     		movs	r0, r4
 1691 0060 01A9     		add	r1, sp, #4
 152:src/system/tim.c ****   sMasterConfig.MasterSlaveMode = TIM_MASTERSLAVEMODE_DISABLE;
 1692              		.loc 1 152 37 view .LVU630
 1693 0062 0193     		str	r3, [sp, #4]
 153:src/system/tim.c ****   if (HAL_TIMEx_MasterConfigSynchronization(&htim3, &sMasterConfig) != HAL_OK)
 1694              		.loc 1 153 3 is_stmt 1 view .LVU631
 153:src/system/tim.c ****   if (HAL_TIMEx_MasterConfigSynchronization(&htim3, &sMasterConfig) != HAL_OK)
 1695              		.loc 1 153 33 is_stmt 0 view .LVU632
 1696 0064 0393     		str	r3, [sp, #12]
 154:src/system/tim.c ****   {
 1697              		.loc 1 154 3 is_stmt 1 view .LVU633
 154:src/system/tim.c ****   {
 1698              		.loc 1 154 7 is_stmt 0 view .LVU634
 1699 0066 FFF7FEFF 		bl	HAL_TIMEx_MasterConfigSynchronization
 1700              	.LVL63:
 154:src/system/tim.c ****   {
 1701              		.loc 1 154 6 view .LVU635
 1702 006a 0028     		cmp	r0, #0
 1703 006c 36D1     		bne	.L136
 1704              	.L104:
 158:src/system/tim.c ****   sConfigOC.Pulse = 0;
 1705              		.loc 1 158 3 is_stmt 1 view .LVU636
 159:src/system/tim.c ****   sConfigOC.OCPolarity = TIM_OCPOLARITY_HIGH;
 1706              		.loc 1 159 3 view .LVU637
 158:src/system/tim.c ****   sConfigOC.Pulse = 0;
 1707              		.loc 1 158 20 is_stmt 0 view .LVU638
 1708 006e 6022     		movs	r2, #96
 1709 0070 0023     		movs	r3, #0
 1710 0072 0892     		str	r2, [sp, #32]
 1711 0074 0993     		str	r3, [sp, #36]
 160:src/system/tim.c ****   sConfigOC.OCFastMode = TIM_OCFAST_DISABLE;
 1712              		.loc 1 160 3 is_stmt 1 view .LVU639
 160:src/system/tim.c ****   sConfigOC.OCFastMode = TIM_OCFAST_DISABLE;
 1713              		.loc 1 160 24 is_stmt 0 view .LVU640
 1714 0076 0023     		movs	r3, #0
 162:src/system/tim.c ****   {
 1715              		.loc 1 162 7 view .LVU641
 1716 0078 0022     		movs	r2, #0
 1717 007a 2000     		movs	r0, r4
ARM GAS  /tmp/ccJHRQAf.s 			page 51


 1718 007c 08A9     		add	r1, sp, #32
 160:src/system/tim.c ****   sConfigOC.OCFastMode = TIM_OCFAST_DISABLE;
 1719              		.loc 1 160 24 view .LVU642
 1720 007e 0A93     		str	r3, [sp, #40]
 161:src/system/tim.c ****   if (HAL_TIM_PWM_ConfigChannel(&htim3, &sConfigOC, TIM_CHANNEL_1) != HAL_OK)
 1721              		.loc 1 161 3 is_stmt 1 view .LVU643
 161:src/system/tim.c ****   if (HAL_TIM_PWM_ConfigChannel(&htim3, &sConfigOC, TIM_CHANNEL_1) != HAL_OK)
 1722              		.loc 1 161 24 is_stmt 0 view .LVU644
 1723 0080 0C93     		str	r3, [sp, #48]
 162:src/system/tim.c ****   {
 1724              		.loc 1 162 3 is_stmt 1 view .LVU645
 162:src/system/tim.c ****   {
 1725              		.loc 1 162 7 is_stmt 0 view .LVU646
 1726 0082 FFF7FEFF 		bl	HAL_TIM_PWM_ConfigChannel
 1727              	.LVL64:
 162:src/system/tim.c ****   {
 1728              		.loc 1 162 6 view .LVU647
 1729 0086 0028     		cmp	r0, #0
 1730 0088 25D1     		bne	.L137
 1731              	.L105:
 166:src/system/tim.c ****   {
 1732              		.loc 1 166 3 is_stmt 1 view .LVU648
 166:src/system/tim.c ****   {
 1733              		.loc 1 166 7 is_stmt 0 view .LVU649
 1734 008a 0422     		movs	r2, #4
 1735 008c 2000     		movs	r0, r4
 1736 008e 08A9     		add	r1, sp, #32
 1737 0090 FFF7FEFF 		bl	HAL_TIM_PWM_ConfigChannel
 1738              	.LVL65:
 166:src/system/tim.c ****   {
 1739              		.loc 1 166 6 view .LVU650
 1740 0094 0028     		cmp	r0, #0
 1741 0096 1BD1     		bne	.L138
 1742              	.L106:
 170:src/system/tim.c ****   {
 1743              		.loc 1 170 3 is_stmt 1 view .LVU651
 170:src/system/tim.c ****   {
 1744              		.loc 1 170 7 is_stmt 0 view .LVU652
 1745 0098 0822     		movs	r2, #8
 1746 009a 2000     		movs	r0, r4
 1747 009c 08A9     		add	r1, sp, #32
 1748 009e FFF7FEFF 		bl	HAL_TIM_PWM_ConfigChannel
 1749              	.LVL66:
 170:src/system/tim.c ****   {
 1750              		.loc 1 170 6 view .LVU653
 1751 00a2 0028     		cmp	r0, #0
 1752 00a4 11D1     		bne	.L139
 1753              	.L107:
 174:src/system/tim.c ****   {
 1754              		.loc 1 174 3 is_stmt 1 view .LVU654
 174:src/system/tim.c ****   {
 1755              		.loc 1 174 7 is_stmt 0 view .LVU655
 1756 00a6 0C22     		movs	r2, #12
 1757 00a8 2000     		movs	r0, r4
 1758 00aa 08A9     		add	r1, sp, #32
 1759 00ac FFF7FEFF 		bl	HAL_TIM_PWM_ConfigChannel
 1760              	.LVL67:
ARM GAS  /tmp/ccJHRQAf.s 			page 52


 174:src/system/tim.c ****   {
 1761              		.loc 1 174 6 view .LVU656
 1762 00b0 0028     		cmp	r0, #0
 1763 00b2 07D1     		bne	.L140
 1764              	.L108:
 181:src/system/tim.c **** 
 1765              		.loc 1 181 3 is_stmt 1 view .LVU657
 1766 00b4 2000     		movs	r0, r4
 1767 00b6 FFF7FEFF 		bl	HAL_TIM_MspPostInit
 1768              	.LVL68:
 183:src/system/tim.c **** /* TIM14 init function */
 1769              		.loc 1 183 1 is_stmt 0 view .LVU658
 1770 00ba 10B0     		add	sp, sp, #64
 1771              		@ sp needed
 1772 00bc 10BD     		pop	{r4, pc}
 1773              	.L133:
 141:src/system/tim.c ****   }
 1774              		.loc 1 141 5 is_stmt 1 view .LVU659
 1775 00be FFF7FEFF 		bl	Error_Handler
 1776              	.LVL69:
 1777 00c2 BDE7     		b	.L101
 1778              	.L140:
 176:src/system/tim.c ****   }
 1779              		.loc 1 176 5 view .LVU660
 1780 00c4 FFF7FEFF 		bl	Error_Handler
 1781              	.LVL70:
 1782 00c8 F4E7     		b	.L108
 1783              	.L139:
 172:src/system/tim.c ****   }
 1784              		.loc 1 172 5 view .LVU661
 1785 00ca FFF7FEFF 		bl	Error_Handler
 1786              	.LVL71:
 1787 00ce EAE7     		b	.L107
 1788              	.L138:
 168:src/system/tim.c ****   }
 1789              		.loc 1 168 5 view .LVU662
 1790 00d0 FFF7FEFF 		bl	Error_Handler
 1791              	.LVL72:
 1792 00d4 E0E7     		b	.L106
 1793              	.L137:
 164:src/system/tim.c ****   }
 1794              		.loc 1 164 5 view .LVU663
 1795 00d6 FFF7FEFF 		bl	Error_Handler
 1796              	.LVL73:
 1797 00da D6E7     		b	.L105
 1798              	.L136:
 156:src/system/tim.c ****   }
 1799              		.loc 1 156 5 view .LVU664
 1800 00dc FFF7FEFF 		bl	Error_Handler
 1801              	.LVL74:
 1802 00e0 C5E7     		b	.L104
 1803              	.L135:
 150:src/system/tim.c ****   }
 1804              		.loc 1 150 5 view .LVU665
 1805 00e2 FFF7FEFF 		bl	Error_Handler
 1806              	.LVL75:
 1807 00e6 B9E7     		b	.L103
ARM GAS  /tmp/ccJHRQAf.s 			page 53


 1808              	.L134:
 146:src/system/tim.c ****   }
 1809              		.loc 1 146 5 view .LVU666
 1810 00e8 FFF7FEFF 		bl	Error_Handler
 1811              	.LVL76:
 1812 00ec B1E7     		b	.L102
 1813              	.L142:
 1814 00ee C046     		.align	2
 1815              	.L141:
 1816 00f0 00000000 		.word	htim3
 1817 00f4 00040040 		.word	1073742848
 1818 00f8 FFFF0000 		.word	65535
 1819              		.cfi_endproc
 1820              	.LFE215:
 1822              		.section	.text.MX_TIM16_Init,"ax",%progbits
 1823              		.align	1
 1824              		.p2align 2,,3
 1825              		.global	MX_TIM16_Init
 1826              		.syntax unified
 1827              		.code	16
 1828              		.thumb_func
 1830              	MX_TIM16_Init:
 1831              	.LFB217:
 227:src/system/tim.c **** 
 1832              		.loc 1 227 1 view -0
 1833              		.cfi_startproc
 1834              		@ args = 0, pretend = 0, frame = 88
 1835              		@ frame_needed = 0, uses_anonymous_args = 0
 233:src/system/tim.c ****   TIM_BreakDeadTimeConfigTypeDef sBreakDeadTimeConfig = {0};
 1836              		.loc 1 233 3 view .LVU668
 227:src/system/tim.c **** 
 1837              		.loc 1 227 1 is_stmt 0 view .LVU669
 1838 0000 10B5     		push	{r4, lr}
 1839              	.LCFI9:
 1840              		.cfi_def_cfa_offset 8
 1841              		.cfi_offset 4, -8
 1842              		.cfi_offset 14, -4
 1843 0002 96B0     		sub	sp, sp, #88
 1844              	.LCFI10:
 1845              		.cfi_def_cfa_offset 96
 233:src/system/tim.c ****   TIM_BreakDeadTimeConfigTypeDef sBreakDeadTimeConfig = {0};
 1846              		.loc 1 233 22 view .LVU670
 1847 0004 1C22     		movs	r2, #28
 1848 0006 0021     		movs	r1, #0
 1849 0008 6846     		mov	r0, sp
 1850 000a FFF7FEFF 		bl	memset
 1851              	.LVL77:
 234:src/system/tim.c **** 
 1852              		.loc 1 234 3 is_stmt 1 view .LVU671
 234:src/system/tim.c **** 
 1853              		.loc 1 234 34 is_stmt 0 view .LVU672
 1854 000e 3422     		movs	r2, #52
 1855 0010 0021     		movs	r1, #0
 1856 0012 08A8     		add	r0, sp, #32
 1857 0014 FFF7FEFF 		bl	memset
 1858              	.LVL78:
 239:src/system/tim.c ****   htim16.Init.Prescaler = 0;
ARM GAS  /tmp/ccJHRQAf.s 			page 54


 1859              		.loc 1 239 3 is_stmt 1 view .LVU673
 239:src/system/tim.c ****   htim16.Init.Prescaler = 0;
 1860              		.loc 1 239 19 is_stmt 0 view .LVU674
 1861 0018 264C     		ldr	r4, .L164
 1862 001a 274B     		ldr	r3, .L164+4
 242:src/system/tim.c ****   htim16.Init.ClockDivision = TIM_CLOCKDIVISION_DIV1;
 1863              		.loc 1 242 22 view .LVU675
 1864 001c 274A     		ldr	r2, .L164+8
 239:src/system/tim.c ****   htim16.Init.Prescaler = 0;
 1865              		.loc 1 239 19 view .LVU676
 1866 001e 2360     		str	r3, [r4]
 240:src/system/tim.c ****   htim16.Init.CounterMode = TIM_COUNTERMODE_UP;
 1867              		.loc 1 240 3 is_stmt 1 view .LVU677
 240:src/system/tim.c ****   htim16.Init.CounterMode = TIM_COUNTERMODE_UP;
 1868              		.loc 1 240 25 is_stmt 0 view .LVU678
 1869 0020 0023     		movs	r3, #0
 246:src/system/tim.c ****   {
 1870              		.loc 1 246 7 view .LVU679
 1871 0022 2000     		movs	r0, r4
 240:src/system/tim.c ****   htim16.Init.CounterMode = TIM_COUNTERMODE_UP;
 1872              		.loc 1 240 25 view .LVU680
 1873 0024 6360     		str	r3, [r4, #4]
 241:src/system/tim.c ****   htim16.Init.Period = 65535;
 1874              		.loc 1 241 3 is_stmt 1 view .LVU681
 241:src/system/tim.c ****   htim16.Init.Period = 65535;
 1875              		.loc 1 241 27 is_stmt 0 view .LVU682
 1876 0026 A360     		str	r3, [r4, #8]
 242:src/system/tim.c ****   htim16.Init.ClockDivision = TIM_CLOCKDIVISION_DIV1;
 1877              		.loc 1 242 3 is_stmt 1 view .LVU683
 242:src/system/tim.c ****   htim16.Init.ClockDivision = TIM_CLOCKDIVISION_DIV1;
 1878              		.loc 1 242 22 is_stmt 0 view .LVU684
 1879 0028 E260     		str	r2, [r4, #12]
 243:src/system/tim.c ****   htim16.Init.RepetitionCounter = 0;
 1880              		.loc 1 243 3 is_stmt 1 view .LVU685
 243:src/system/tim.c ****   htim16.Init.RepetitionCounter = 0;
 1881              		.loc 1 243 29 is_stmt 0 view .LVU686
 1882 002a 2361     		str	r3, [r4, #16]
 244:src/system/tim.c ****   htim16.Init.AutoReloadPreload = TIM_AUTORELOAD_PRELOAD_DISABLE;
 1883              		.loc 1 244 3 is_stmt 1 view .LVU687
 244:src/system/tim.c ****   htim16.Init.AutoReloadPreload = TIM_AUTORELOAD_PRELOAD_DISABLE;
 1884              		.loc 1 244 33 is_stmt 0 view .LVU688
 1885 002c 6361     		str	r3, [r4, #20]
 245:src/system/tim.c ****   if (HAL_TIM_Base_Init(&htim16) != HAL_OK)
 1886              		.loc 1 245 3 is_stmt 1 view .LVU689
 245:src/system/tim.c ****   if (HAL_TIM_Base_Init(&htim16) != HAL_OK)
 1887              		.loc 1 245 33 is_stmt 0 view .LVU690
 1888 002e A361     		str	r3, [r4, #24]
 246:src/system/tim.c ****   {
 1889              		.loc 1 246 3 is_stmt 1 view .LVU691
 246:src/system/tim.c ****   {
 1890              		.loc 1 246 7 is_stmt 0 view .LVU692
 1891 0030 FFF7FEFF 		bl	HAL_TIM_Base_Init
 1892              	.LVL79:
 246:src/system/tim.c ****   {
 1893              		.loc 1 246 6 view .LVU693
 1894 0034 0028     		cmp	r0, #0
 1895 0036 2DD1     		bne	.L160
ARM GAS  /tmp/ccJHRQAf.s 			page 55


 250:src/system/tim.c ****   {
 1896              		.loc 1 250 3 is_stmt 1 view .LVU694
 250:src/system/tim.c ****   {
 1897              		.loc 1 250 7 is_stmt 0 view .LVU695
 1898 0038 2000     		movs	r0, r4
 1899 003a FFF7FEFF 		bl	HAL_TIM_PWM_Init
 1900              	.LVL80:
 250:src/system/tim.c ****   {
 1901              		.loc 1 250 6 view .LVU696
 1902 003e 0028     		cmp	r0, #0
 1903 0040 2FD1     		bne	.L161
 1904              	.L145:
 254:src/system/tim.c ****   sConfigOC.Pulse = 0;
 1905              		.loc 1 254 3 is_stmt 1 view .LVU697
 254:src/system/tim.c ****   sConfigOC.Pulse = 0;
 1906              		.loc 1 254 20 is_stmt 0 view .LVU698
 1907 0042 6023     		movs	r3, #96
 258:src/system/tim.c ****   sConfigOC.OCIdleState = TIM_OCIDLESTATE_RESET;
 1908              		.loc 1 258 24 view .LVU699
 1909 0044 0020     		movs	r0, #0
 1910 0046 0021     		movs	r1, #0
 254:src/system/tim.c ****   sConfigOC.Pulse = 0;
 1911              		.loc 1 254 20 view .LVU700
 1912 0048 0093     		str	r3, [sp]
 255:src/system/tim.c ****   sConfigOC.OCPolarity = TIM_OCPOLARITY_HIGH;
 1913              		.loc 1 255 3 is_stmt 1 view .LVU701
 255:src/system/tim.c ****   sConfigOC.OCPolarity = TIM_OCPOLARITY_HIGH;
 1914              		.loc 1 255 19 is_stmt 0 view .LVU702
 1915 004a 0023     		movs	r3, #0
 258:src/system/tim.c ****   sConfigOC.OCIdleState = TIM_OCIDLESTATE_RESET;
 1916              		.loc 1 258 24 view .LVU703
 1917 004c 0490     		str	r0, [sp, #16]
 1918 004e 0591     		str	r1, [sp, #20]
 261:src/system/tim.c ****   {
 1919              		.loc 1 261 7 view .LVU704
 1920 0050 0022     		movs	r2, #0
 1921 0052 6946     		mov	r1, sp
 1922 0054 2000     		movs	r0, r4
 255:src/system/tim.c ****   sConfigOC.OCPolarity = TIM_OCPOLARITY_HIGH;
 1923              		.loc 1 255 19 view .LVU705
 1924 0056 0193     		str	r3, [sp, #4]
 256:src/system/tim.c ****   sConfigOC.OCNPolarity = TIM_OCNPOLARITY_HIGH;
 1925              		.loc 1 256 3 is_stmt 1 view .LVU706
 256:src/system/tim.c ****   sConfigOC.OCNPolarity = TIM_OCNPOLARITY_HIGH;
 1926              		.loc 1 256 24 is_stmt 0 view .LVU707
 1927 0058 0293     		str	r3, [sp, #8]
 257:src/system/tim.c ****   sConfigOC.OCFastMode = TIM_OCFAST_DISABLE;
 1928              		.loc 1 257 3 is_stmt 1 view .LVU708
 257:src/system/tim.c ****   sConfigOC.OCFastMode = TIM_OCFAST_DISABLE;
 1929              		.loc 1 257 25 is_stmt 0 view .LVU709
 1930 005a 0393     		str	r3, [sp, #12]
 258:src/system/tim.c ****   sConfigOC.OCIdleState = TIM_OCIDLESTATE_RESET;
 1931              		.loc 1 258 3 is_stmt 1 view .LVU710
 259:src/system/tim.c ****   sConfigOC.OCNIdleState = TIM_OCNIDLESTATE_RESET;
 1932              		.loc 1 259 3 view .LVU711
 260:src/system/tim.c ****   if (HAL_TIM_PWM_ConfigChannel(&htim16, &sConfigOC, TIM_CHANNEL_1) != HAL_OK)
 1933              		.loc 1 260 3 view .LVU712
ARM GAS  /tmp/ccJHRQAf.s 			page 56


 260:src/system/tim.c ****   if (HAL_TIM_PWM_ConfigChannel(&htim16, &sConfigOC, TIM_CHANNEL_1) != HAL_OK)
 1934              		.loc 1 260 26 is_stmt 0 view .LVU713
 1935 005c 0693     		str	r3, [sp, #24]
 261:src/system/tim.c ****   {
 1936              		.loc 1 261 3 is_stmt 1 view .LVU714
 261:src/system/tim.c ****   {
 1937              		.loc 1 261 7 is_stmt 0 view .LVU715
 1938 005e FFF7FEFF 		bl	HAL_TIM_PWM_ConfigChannel
 1939              	.LVL81:
 261:src/system/tim.c ****   {
 1940              		.loc 1 261 6 view .LVU716
 1941 0062 0028     		cmp	r0, #0
 1942 0064 23D1     		bne	.L162
 1943              	.L146:
 265:src/system/tim.c ****   sBreakDeadTimeConfig.OffStateIDLEMode = TIM_OSSI_DISABLE;
 1944              		.loc 1 265 3 is_stmt 1 view .LVU717
 269:src/system/tim.c ****   sBreakDeadTimeConfig.BreakPolarity = TIM_BREAKPOLARITY_HIGH;
 1945              		.loc 1 269 35 is_stmt 0 view .LVU718
 1946 0066 8021     		movs	r1, #128
 1947 0068 0020     		movs	r0, #0
 265:src/system/tim.c ****   sBreakDeadTimeConfig.OffStateIDLEMode = TIM_OSSI_DISABLE;
 1948              		.loc 1 265 40 view .LVU719
 1949 006a 0023     		movs	r3, #0
 269:src/system/tim.c ****   sBreakDeadTimeConfig.BreakPolarity = TIM_BREAKPOLARITY_HIGH;
 1950              		.loc 1 269 35 view .LVU720
 1951 006c 8901     		lsls	r1, r1, #6
 1952 006e 0C90     		str	r0, [sp, #48]
 1953 0070 0D91     		str	r1, [sp, #52]
 273:src/system/tim.c ****   {
 1954              		.loc 1 273 7 view .LVU721
 1955 0072 2000     		movs	r0, r4
 1956 0074 08A9     		add	r1, sp, #32
 265:src/system/tim.c ****   sBreakDeadTimeConfig.OffStateIDLEMode = TIM_OSSI_DISABLE;
 1957              		.loc 1 265 40 view .LVU722
 1958 0076 0893     		str	r3, [sp, #32]
 266:src/system/tim.c ****   sBreakDeadTimeConfig.LockLevel = TIM_LOCKLEVEL_OFF;
 1959              		.loc 1 266 3 is_stmt 1 view .LVU723
 266:src/system/tim.c ****   sBreakDeadTimeConfig.LockLevel = TIM_LOCKLEVEL_OFF;
 1960              		.loc 1 266 41 is_stmt 0 view .LVU724
 1961 0078 0993     		str	r3, [sp, #36]
 267:src/system/tim.c ****   sBreakDeadTimeConfig.DeadTime = 0;
 1962              		.loc 1 267 3 is_stmt 1 view .LVU725
 267:src/system/tim.c ****   sBreakDeadTimeConfig.DeadTime = 0;
 1963              		.loc 1 267 34 is_stmt 0 view .LVU726
 1964 007a 0A93     		str	r3, [sp, #40]
 268:src/system/tim.c ****   sBreakDeadTimeConfig.BreakState = TIM_BREAK_DISABLE;
 1965              		.loc 1 268 3 is_stmt 1 view .LVU727
 268:src/system/tim.c ****   sBreakDeadTimeConfig.BreakState = TIM_BREAK_DISABLE;
 1966              		.loc 1 268 33 is_stmt 0 view .LVU728
 1967 007c 0B93     		str	r3, [sp, #44]
 269:src/system/tim.c ****   sBreakDeadTimeConfig.BreakPolarity = TIM_BREAKPOLARITY_HIGH;
 1968              		.loc 1 269 3 is_stmt 1 view .LVU729
 270:src/system/tim.c ****   sBreakDeadTimeConfig.BreakFilter = 0;
 1969              		.loc 1 270 3 view .LVU730
 271:src/system/tim.c ****   sBreakDeadTimeConfig.AutomaticOutput = TIM_AUTOMATICOUTPUT_DISABLE;
 1970              		.loc 1 271 3 view .LVU731
 271:src/system/tim.c ****   sBreakDeadTimeConfig.AutomaticOutput = TIM_AUTOMATICOUTPUT_DISABLE;
ARM GAS  /tmp/ccJHRQAf.s 			page 57


 1971              		.loc 1 271 36 is_stmt 0 view .LVU732
 1972 007e 0E93     		str	r3, [sp, #56]
 272:src/system/tim.c ****   if (HAL_TIMEx_ConfigBreakDeadTime(&htim16, &sBreakDeadTimeConfig) != HAL_OK)
 1973              		.loc 1 272 3 is_stmt 1 view .LVU733
 272:src/system/tim.c ****   if (HAL_TIMEx_ConfigBreakDeadTime(&htim16, &sBreakDeadTimeConfig) != HAL_OK)
 1974              		.loc 1 272 40 is_stmt 0 view .LVU734
 1975 0080 1493     		str	r3, [sp, #80]
 273:src/system/tim.c ****   {
 1976              		.loc 1 273 3 is_stmt 1 view .LVU735
 273:src/system/tim.c ****   {
 1977              		.loc 1 273 7 is_stmt 0 view .LVU736
 1978 0082 FFF7FEFF 		bl	HAL_TIMEx_ConfigBreakDeadTime
 1979              	.LVL82:
 273:src/system/tim.c ****   {
 1980              		.loc 1 273 6 view .LVU737
 1981 0086 0028     		cmp	r0, #0
 1982 0088 0ED1     		bne	.L163
 1983              	.L147:
 280:src/system/tim.c **** 
 1984              		.loc 1 280 3 is_stmt 1 view .LVU738
 1985 008a 2000     		movs	r0, r4
 1986 008c FFF7FEFF 		bl	HAL_TIM_MspPostInit
 1987              	.LVL83:
 282:src/system/tim.c **** /* TIM17 init function */
 1988              		.loc 1 282 1 is_stmt 0 view .LVU739
 1989 0090 16B0     		add	sp, sp, #88
 1990              		@ sp needed
 1991 0092 10BD     		pop	{r4, pc}
 1992              	.L160:
 248:src/system/tim.c ****   }
 1993              		.loc 1 248 5 is_stmt 1 view .LVU740
 1994 0094 FFF7FEFF 		bl	Error_Handler
 1995              	.LVL84:
 250:src/system/tim.c ****   {
 1996              		.loc 1 250 3 view .LVU741
 250:src/system/tim.c ****   {
 1997              		.loc 1 250 7 is_stmt 0 view .LVU742
 1998 0098 2000     		movs	r0, r4
 1999 009a FFF7FEFF 		bl	HAL_TIM_PWM_Init
 2000              	.LVL85:
 250:src/system/tim.c ****   {
 2001              		.loc 1 250 6 view .LVU743
 2002 009e 0028     		cmp	r0, #0
 2003 00a0 CFD0     		beq	.L145
 2004              	.L161:
 252:src/system/tim.c ****   }
 2005              		.loc 1 252 5 is_stmt 1 view .LVU744
 2006 00a2 FFF7FEFF 		bl	Error_Handler
 2007              	.LVL86:
 2008 00a6 CCE7     		b	.L145
 2009              	.L163:
 275:src/system/tim.c ****   }
 2010              		.loc 1 275 5 view .LVU745
 2011 00a8 FFF7FEFF 		bl	Error_Handler
 2012              	.LVL87:
 2013 00ac EDE7     		b	.L147
 2014              	.L162:
ARM GAS  /tmp/ccJHRQAf.s 			page 58


 263:src/system/tim.c ****   }
 2015              		.loc 1 263 5 view .LVU746
 2016 00ae FFF7FEFF 		bl	Error_Handler
 2017              	.LVL88:
 2018 00b2 D8E7     		b	.L146
 2019              	.L165:
 2020              		.align	2
 2021              	.L164:
 2022 00b4 00000000 		.word	htim16
 2023 00b8 00440140 		.word	1073824768
 2024 00bc FFFF0000 		.word	65535
 2025              		.cfi_endproc
 2026              	.LFE217:
 2028              		.section	.text.MX_TIM17_Init,"ax",%progbits
 2029              		.align	1
 2030              		.p2align 2,,3
 2031              		.global	MX_TIM17_Init
 2032              		.syntax unified
 2033              		.code	16
 2034              		.thumb_func
 2036              	MX_TIM17_Init:
 2037              	.LFB218:
 285:src/system/tim.c **** 
 2038              		.loc 1 285 1 view -0
 2039              		.cfi_startproc
 2040              		@ args = 0, pretend = 0, frame = 88
 2041              		@ frame_needed = 0, uses_anonymous_args = 0
 291:src/system/tim.c ****   TIM_BreakDeadTimeConfigTypeDef sBreakDeadTimeConfig = {0};
 2042              		.loc 1 291 3 view .LVU748
 285:src/system/tim.c **** 
 2043              		.loc 1 285 1 is_stmt 0 view .LVU749
 2044 0000 10B5     		push	{r4, lr}
 2045              	.LCFI11:
 2046              		.cfi_def_cfa_offset 8
 2047              		.cfi_offset 4, -8
 2048              		.cfi_offset 14, -4
 2049 0002 96B0     		sub	sp, sp, #88
 2050              	.LCFI12:
 2051              		.cfi_def_cfa_offset 96
 291:src/system/tim.c ****   TIM_BreakDeadTimeConfigTypeDef sBreakDeadTimeConfig = {0};
 2052              		.loc 1 291 22 view .LVU750
 2053 0004 1C22     		movs	r2, #28
 2054 0006 0021     		movs	r1, #0
 2055 0008 6846     		mov	r0, sp
 2056 000a FFF7FEFF 		bl	memset
 2057              	.LVL89:
 292:src/system/tim.c **** 
 2058              		.loc 1 292 3 is_stmt 1 view .LVU751
 292:src/system/tim.c **** 
 2059              		.loc 1 292 34 is_stmt 0 view .LVU752
 2060 000e 3422     		movs	r2, #52
 2061 0010 0021     		movs	r1, #0
 2062 0012 08A8     		add	r0, sp, #32
 2063 0014 FFF7FEFF 		bl	memset
 2064              	.LVL90:
 297:src/system/tim.c ****   htim17.Init.Prescaler = 0;
 2065              		.loc 1 297 3 is_stmt 1 view .LVU753
ARM GAS  /tmp/ccJHRQAf.s 			page 59


 297:src/system/tim.c ****   htim17.Init.Prescaler = 0;
 2066              		.loc 1 297 19 is_stmt 0 view .LVU754
 2067 0018 264C     		ldr	r4, .L187
 2068 001a 274B     		ldr	r3, .L187+4
 300:src/system/tim.c ****   htim17.Init.ClockDivision = TIM_CLOCKDIVISION_DIV1;
 2069              		.loc 1 300 22 view .LVU755
 2070 001c 274A     		ldr	r2, .L187+8
 297:src/system/tim.c ****   htim17.Init.Prescaler = 0;
 2071              		.loc 1 297 19 view .LVU756
 2072 001e 2360     		str	r3, [r4]
 298:src/system/tim.c ****   htim17.Init.CounterMode = TIM_COUNTERMODE_UP;
 2073              		.loc 1 298 3 is_stmt 1 view .LVU757
 298:src/system/tim.c ****   htim17.Init.CounterMode = TIM_COUNTERMODE_UP;
 2074              		.loc 1 298 25 is_stmt 0 view .LVU758
 2075 0020 0023     		movs	r3, #0
 304:src/system/tim.c ****   {
 2076              		.loc 1 304 7 view .LVU759
 2077 0022 2000     		movs	r0, r4
 298:src/system/tim.c ****   htim17.Init.CounterMode = TIM_COUNTERMODE_UP;
 2078              		.loc 1 298 25 view .LVU760
 2079 0024 6360     		str	r3, [r4, #4]
 299:src/system/tim.c ****   htim17.Init.Period = 65535;
 2080              		.loc 1 299 3 is_stmt 1 view .LVU761
 299:src/system/tim.c ****   htim17.Init.Period = 65535;
 2081              		.loc 1 299 27 is_stmt 0 view .LVU762
 2082 0026 A360     		str	r3, [r4, #8]
 300:src/system/tim.c ****   htim17.Init.ClockDivision = TIM_CLOCKDIVISION_DIV1;
 2083              		.loc 1 300 3 is_stmt 1 view .LVU763
 300:src/system/tim.c ****   htim17.Init.ClockDivision = TIM_CLOCKDIVISION_DIV1;
 2084              		.loc 1 300 22 is_stmt 0 view .LVU764
 2085 0028 E260     		str	r2, [r4, #12]
 301:src/system/tim.c ****   htim17.Init.RepetitionCounter = 0;
 2086              		.loc 1 301 3 is_stmt 1 view .LVU765
 301:src/system/tim.c ****   htim17.Init.RepetitionCounter = 0;
 2087              		.loc 1 301 29 is_stmt 0 view .LVU766
 2088 002a 2361     		str	r3, [r4, #16]
 302:src/system/tim.c ****   htim17.Init.AutoReloadPreload = TIM_AUTORELOAD_PRELOAD_DISABLE;
 2089              		.loc 1 302 3 is_stmt 1 view .LVU767
 302:src/system/tim.c ****   htim17.Init.AutoReloadPreload = TIM_AUTORELOAD_PRELOAD_DISABLE;
 2090              		.loc 1 302 33 is_stmt 0 view .LVU768
 2091 002c 6361     		str	r3, [r4, #20]
 303:src/system/tim.c ****   if (HAL_TIM_Base_Init(&htim17) != HAL_OK)
 2092              		.loc 1 303 3 is_stmt 1 view .LVU769
 303:src/system/tim.c ****   if (HAL_TIM_Base_Init(&htim17) != HAL_OK)
 2093              		.loc 1 303 33 is_stmt 0 view .LVU770
 2094 002e A361     		str	r3, [r4, #24]
 304:src/system/tim.c ****   {
 2095              		.loc 1 304 3 is_stmt 1 view .LVU771
 304:src/system/tim.c ****   {
 2096              		.loc 1 304 7 is_stmt 0 view .LVU772
 2097 0030 FFF7FEFF 		bl	HAL_TIM_Base_Init
 2098              	.LVL91:
 304:src/system/tim.c ****   {
 2099              		.loc 1 304 6 view .LVU773
 2100 0034 0028     		cmp	r0, #0
 2101 0036 2DD1     		bne	.L183
 308:src/system/tim.c ****   {
ARM GAS  /tmp/ccJHRQAf.s 			page 60


 2102              		.loc 1 308 3 is_stmt 1 view .LVU774
 308:src/system/tim.c ****   {
 2103              		.loc 1 308 7 is_stmt 0 view .LVU775
 2104 0038 2000     		movs	r0, r4
 2105 003a FFF7FEFF 		bl	HAL_TIM_PWM_Init
 2106              	.LVL92:
 308:src/system/tim.c ****   {
 2107              		.loc 1 308 6 view .LVU776
 2108 003e 0028     		cmp	r0, #0
 2109 0040 2FD1     		bne	.L184
 2110              	.L168:
 312:src/system/tim.c ****   sConfigOC.Pulse = 0;
 2111              		.loc 1 312 3 is_stmt 1 view .LVU777
 312:src/system/tim.c ****   sConfigOC.Pulse = 0;
 2112              		.loc 1 312 20 is_stmt 0 view .LVU778
 2113 0042 6023     		movs	r3, #96
 316:src/system/tim.c ****   sConfigOC.OCIdleState = TIM_OCIDLESTATE_RESET;
 2114              		.loc 1 316 24 view .LVU779
 2115 0044 0020     		movs	r0, #0
 2116 0046 0021     		movs	r1, #0
 312:src/system/tim.c ****   sConfigOC.Pulse = 0;
 2117              		.loc 1 312 20 view .LVU780
 2118 0048 0093     		str	r3, [sp]
 313:src/system/tim.c ****   sConfigOC.OCPolarity = TIM_OCPOLARITY_HIGH;
 2119              		.loc 1 313 3 is_stmt 1 view .LVU781
 313:src/system/tim.c ****   sConfigOC.OCPolarity = TIM_OCPOLARITY_HIGH;
 2120              		.loc 1 313 19 is_stmt 0 view .LVU782
 2121 004a 0023     		movs	r3, #0
 316:src/system/tim.c ****   sConfigOC.OCIdleState = TIM_OCIDLESTATE_RESET;
 2122              		.loc 1 316 24 view .LVU783
 2123 004c 0490     		str	r0, [sp, #16]
 2124 004e 0591     		str	r1, [sp, #20]
 319:src/system/tim.c ****   {
 2125              		.loc 1 319 7 view .LVU784
 2126 0050 0022     		movs	r2, #0
 2127 0052 6946     		mov	r1, sp
 2128 0054 2000     		movs	r0, r4
 313:src/system/tim.c ****   sConfigOC.OCPolarity = TIM_OCPOLARITY_HIGH;
 2129              		.loc 1 313 19 view .LVU785
 2130 0056 0193     		str	r3, [sp, #4]
 314:src/system/tim.c ****   sConfigOC.OCNPolarity = TIM_OCNPOLARITY_HIGH;
 2131              		.loc 1 314 3 is_stmt 1 view .LVU786
 314:src/system/tim.c ****   sConfigOC.OCNPolarity = TIM_OCNPOLARITY_HIGH;
 2132              		.loc 1 314 24 is_stmt 0 view .LVU787
 2133 0058 0293     		str	r3, [sp, #8]
 315:src/system/tim.c ****   sConfigOC.OCFastMode = TIM_OCFAST_DISABLE;
 2134              		.loc 1 315 3 is_stmt 1 view .LVU788
 315:src/system/tim.c ****   sConfigOC.OCFastMode = TIM_OCFAST_DISABLE;
 2135              		.loc 1 315 25 is_stmt 0 view .LVU789
 2136 005a 0393     		str	r3, [sp, #12]
 316:src/system/tim.c ****   sConfigOC.OCIdleState = TIM_OCIDLESTATE_RESET;
 2137              		.loc 1 316 3 is_stmt 1 view .LVU790
 317:src/system/tim.c ****   sConfigOC.OCNIdleState = TIM_OCNIDLESTATE_RESET;
 2138              		.loc 1 317 3 view .LVU791
 318:src/system/tim.c ****   if (HAL_TIM_PWM_ConfigChannel(&htim17, &sConfigOC, TIM_CHANNEL_1) != HAL_OK)
 2139              		.loc 1 318 3 view .LVU792
 318:src/system/tim.c ****   if (HAL_TIM_PWM_ConfigChannel(&htim17, &sConfigOC, TIM_CHANNEL_1) != HAL_OK)
ARM GAS  /tmp/ccJHRQAf.s 			page 61


 2140              		.loc 1 318 26 is_stmt 0 view .LVU793
 2141 005c 0693     		str	r3, [sp, #24]
 319:src/system/tim.c ****   {
 2142              		.loc 1 319 3 is_stmt 1 view .LVU794
 319:src/system/tim.c ****   {
 2143              		.loc 1 319 7 is_stmt 0 view .LVU795
 2144 005e FFF7FEFF 		bl	HAL_TIM_PWM_ConfigChannel
 2145              	.LVL93:
 319:src/system/tim.c ****   {
 2146              		.loc 1 319 6 view .LVU796
 2147 0062 0028     		cmp	r0, #0
 2148 0064 23D1     		bne	.L185
 2149              	.L169:
 323:src/system/tim.c ****   sBreakDeadTimeConfig.OffStateIDLEMode = TIM_OSSI_DISABLE;
 2150              		.loc 1 323 3 is_stmt 1 view .LVU797
 327:src/system/tim.c ****   sBreakDeadTimeConfig.BreakPolarity = TIM_BREAKPOLARITY_HIGH;
 2151              		.loc 1 327 35 is_stmt 0 view .LVU798
 2152 0066 8021     		movs	r1, #128
 2153 0068 0020     		movs	r0, #0
 323:src/system/tim.c ****   sBreakDeadTimeConfig.OffStateIDLEMode = TIM_OSSI_DISABLE;
 2154              		.loc 1 323 40 view .LVU799
 2155 006a 0023     		movs	r3, #0
 327:src/system/tim.c ****   sBreakDeadTimeConfig.BreakPolarity = TIM_BREAKPOLARITY_HIGH;
 2156              		.loc 1 327 35 view .LVU800
 2157 006c 8901     		lsls	r1, r1, #6
 2158 006e 0C90     		str	r0, [sp, #48]
 2159 0070 0D91     		str	r1, [sp, #52]
 331:src/system/tim.c ****   {
 2160              		.loc 1 331 7 view .LVU801
 2161 0072 2000     		movs	r0, r4
 2162 0074 08A9     		add	r1, sp, #32
 323:src/system/tim.c ****   sBreakDeadTimeConfig.OffStateIDLEMode = TIM_OSSI_DISABLE;
 2163              		.loc 1 323 40 view .LVU802
 2164 0076 0893     		str	r3, [sp, #32]
 324:src/system/tim.c ****   sBreakDeadTimeConfig.LockLevel = TIM_LOCKLEVEL_OFF;
 2165              		.loc 1 324 3 is_stmt 1 view .LVU803
 324:src/system/tim.c ****   sBreakDeadTimeConfig.LockLevel = TIM_LOCKLEVEL_OFF;
 2166              		.loc 1 324 41 is_stmt 0 view .LVU804
 2167 0078 0993     		str	r3, [sp, #36]
 325:src/system/tim.c ****   sBreakDeadTimeConfig.DeadTime = 0;
 2168              		.loc 1 325 3 is_stmt 1 view .LVU805
 325:src/system/tim.c ****   sBreakDeadTimeConfig.DeadTime = 0;
 2169              		.loc 1 325 34 is_stmt 0 view .LVU806
 2170 007a 0A93     		str	r3, [sp, #40]
 326:src/system/tim.c ****   sBreakDeadTimeConfig.BreakState = TIM_BREAK_DISABLE;
 2171              		.loc 1 326 3 is_stmt 1 view .LVU807
 326:src/system/tim.c ****   sBreakDeadTimeConfig.BreakState = TIM_BREAK_DISABLE;
 2172              		.loc 1 326 33 is_stmt 0 view .LVU808
 2173 007c 0B93     		str	r3, [sp, #44]
 327:src/system/tim.c ****   sBreakDeadTimeConfig.BreakPolarity = TIM_BREAKPOLARITY_HIGH;
 2174              		.loc 1 327 3 is_stmt 1 view .LVU809
 328:src/system/tim.c ****   sBreakDeadTimeConfig.BreakFilter = 0;
 2175              		.loc 1 328 3 view .LVU810
 329:src/system/tim.c ****   sBreakDeadTimeConfig.AutomaticOutput = TIM_AUTOMATICOUTPUT_DISABLE;
 2176              		.loc 1 329 3 view .LVU811
 329:src/system/tim.c ****   sBreakDeadTimeConfig.AutomaticOutput = TIM_AUTOMATICOUTPUT_DISABLE;
 2177              		.loc 1 329 36 is_stmt 0 view .LVU812
ARM GAS  /tmp/ccJHRQAf.s 			page 62


 2178 007e 0E93     		str	r3, [sp, #56]
 330:src/system/tim.c ****   if (HAL_TIMEx_ConfigBreakDeadTime(&htim17, &sBreakDeadTimeConfig) != HAL_OK)
 2179              		.loc 1 330 3 is_stmt 1 view .LVU813
 330:src/system/tim.c ****   if (HAL_TIMEx_ConfigBreakDeadTime(&htim17, &sBreakDeadTimeConfig) != HAL_OK)
 2180              		.loc 1 330 40 is_stmt 0 view .LVU814
 2181 0080 1493     		str	r3, [sp, #80]
 331:src/system/tim.c ****   {
 2182              		.loc 1 331 3 is_stmt 1 view .LVU815
 331:src/system/tim.c ****   {
 2183              		.loc 1 331 7 is_stmt 0 view .LVU816
 2184 0082 FFF7FEFF 		bl	HAL_TIMEx_ConfigBreakDeadTime
 2185              	.LVL94:
 331:src/system/tim.c ****   {
 2186              		.loc 1 331 6 view .LVU817
 2187 0086 0028     		cmp	r0, #0
 2188 0088 0ED1     		bne	.L186
 2189              	.L170:
 338:src/system/tim.c **** 
 2190              		.loc 1 338 3 is_stmt 1 view .LVU818
 2191 008a 2000     		movs	r0, r4
 2192 008c FFF7FEFF 		bl	HAL_TIM_MspPostInit
 2193              	.LVL95:
 340:src/system/tim.c **** 
 2194              		.loc 1 340 1 is_stmt 0 view .LVU819
 2195 0090 16B0     		add	sp, sp, #88
 2196              		@ sp needed
 2197 0092 10BD     		pop	{r4, pc}
 2198              	.L183:
 306:src/system/tim.c ****   }
 2199              		.loc 1 306 5 is_stmt 1 view .LVU820
 2200 0094 FFF7FEFF 		bl	Error_Handler
 2201              	.LVL96:
 308:src/system/tim.c ****   {
 2202              		.loc 1 308 3 view .LVU821
 308:src/system/tim.c ****   {
 2203              		.loc 1 308 7 is_stmt 0 view .LVU822
 2204 0098 2000     		movs	r0, r4
 2205 009a FFF7FEFF 		bl	HAL_TIM_PWM_Init
 2206              	.LVL97:
 308:src/system/tim.c ****   {
 2207              		.loc 1 308 6 view .LVU823
 2208 009e 0028     		cmp	r0, #0
 2209 00a0 CFD0     		beq	.L168
 2210              	.L184:
 310:src/system/tim.c ****   }
 2211              		.loc 1 310 5 is_stmt 1 view .LVU824
 2212 00a2 FFF7FEFF 		bl	Error_Handler
 2213              	.LVL98:
 2214 00a6 CCE7     		b	.L168
 2215              	.L186:
 333:src/system/tim.c ****   }
 2216              		.loc 1 333 5 view .LVU825
 2217 00a8 FFF7FEFF 		bl	Error_Handler
 2218              	.LVL99:
 2219 00ac EDE7     		b	.L170
 2220              	.L185:
 321:src/system/tim.c ****   }
ARM GAS  /tmp/ccJHRQAf.s 			page 63


 2221              		.loc 1 321 5 view .LVU826
 2222 00ae FFF7FEFF 		bl	Error_Handler
 2223              	.LVL100:
 2224 00b2 D8E7     		b	.L169
 2225              	.L188:
 2226              		.align	2
 2227              	.L187:
 2228 00b4 00000000 		.word	htim17
 2229 00b8 00480140 		.word	1073825792
 2230 00bc FFFF0000 		.word	65535
 2231              		.cfi_endproc
 2232              	.LFE218:
 2234              		.section	.text.HAL_TIM_Base_MspDeInit,"ax",%progbits
 2235              		.align	1
 2236              		.p2align 2,,3
 2237              		.global	HAL_TIM_Base_MspDeInit
 2238              		.syntax unified
 2239              		.code	16
 2240              		.thumb_func
 2242              	HAL_TIM_Base_MspDeInit:
 2243              	.LVL101:
 2244              	.LFB221:
 547:src/system/tim.c **** 
 548:src/system/tim.c **** void HAL_TIM_Base_MspDeInit(TIM_HandleTypeDef* tim_baseHandle)
 549:src/system/tim.c **** {
 2245              		.loc 1 549 1 view -0
 2246              		.cfi_startproc
 2247              		@ args = 0, pretend = 0, frame = 0
 2248              		@ frame_needed = 0, uses_anonymous_args = 0
 2249              		@ link register save eliminated.
 550:src/system/tim.c **** 
 551:src/system/tim.c ****   if(tim_baseHandle->Instance==TIM1)
 2250              		.loc 1 551 3 view .LVU828
 2251              		.loc 1 551 20 is_stmt 0 view .LVU829
 2252 0000 0368     		ldr	r3, [r0]
 2253              		.loc 1 551 5 view .LVU830
 2254 0002 164A     		ldr	r2, .L199
 2255 0004 9342     		cmp	r3, r2
 2256 0006 17D0     		beq	.L195
 552:src/system/tim.c ****   {
 553:src/system/tim.c ****   /* USER CODE BEGIN TIM1_MspDeInit 0 */
 554:src/system/tim.c **** 
 555:src/system/tim.c ****   /* USER CODE END TIM1_MspDeInit 0 */
 556:src/system/tim.c ****     /* Peripheral clock disable */
 557:src/system/tim.c ****     __HAL_RCC_TIM1_CLK_DISABLE();
 558:src/system/tim.c ****   /* USER CODE BEGIN TIM1_MspDeInit 1 */
 559:src/system/tim.c **** 
 560:src/system/tim.c ****   /* USER CODE END TIM1_MspDeInit 1 */
 561:src/system/tim.c ****   }
 562:src/system/tim.c ****   else if(tim_baseHandle->Instance==TIM3)
 2257              		.loc 1 562 8 is_stmt 1 view .LVU831
 2258              		.loc 1 562 10 is_stmt 0 view .LVU832
 2259 0008 154A     		ldr	r2, .L199+4
 2260 000a 9342     		cmp	r3, r2
 2261 000c 0ED0     		beq	.L196
 563:src/system/tim.c ****   {
 564:src/system/tim.c ****   /* USER CODE BEGIN TIM3_MspDeInit 0 */
ARM GAS  /tmp/ccJHRQAf.s 			page 64


 565:src/system/tim.c **** 
 566:src/system/tim.c ****   /* USER CODE END TIM3_MspDeInit 0 */
 567:src/system/tim.c ****     /* Peripheral clock disable */
 568:src/system/tim.c ****     __HAL_RCC_TIM3_CLK_DISABLE();
 569:src/system/tim.c ****   /* USER CODE BEGIN TIM3_MspDeInit 1 */
 570:src/system/tim.c **** 
 571:src/system/tim.c ****   /* USER CODE END TIM3_MspDeInit 1 */
 572:src/system/tim.c ****   }
 573:src/system/tim.c ****   else if(tim_baseHandle->Instance==TIM14)
 2262              		.loc 1 573 8 is_stmt 1 view .LVU833
 2263              		.loc 1 573 10 is_stmt 0 view .LVU834
 2264 000e 154A     		ldr	r2, .L199+8
 2265 0010 9342     		cmp	r3, r2
 2266 0012 17D0     		beq	.L197
 574:src/system/tim.c ****   {
 575:src/system/tim.c ****   /* USER CODE BEGIN TIM14_MspDeInit 0 */
 576:src/system/tim.c **** 
 577:src/system/tim.c ****   /* USER CODE END TIM14_MspDeInit 0 */
 578:src/system/tim.c ****     /* Peripheral clock disable */
 579:src/system/tim.c ****     __HAL_RCC_TIM14_CLK_DISABLE();
 580:src/system/tim.c ****   /* USER CODE BEGIN TIM14_MspDeInit 1 */
 581:src/system/tim.c **** 
 582:src/system/tim.c ****   /* USER CODE END TIM14_MspDeInit 1 */
 583:src/system/tim.c ****   }
 584:src/system/tim.c ****   else if(tim_baseHandle->Instance==TIM16)
 2267              		.loc 1 584 8 is_stmt 1 view .LVU835
 2268              		.loc 1 584 10 is_stmt 0 view .LVU836
 2269 0014 144A     		ldr	r2, .L199+12
 2270 0016 9342     		cmp	r3, r2
 2271 0018 1AD0     		beq	.L198
 585:src/system/tim.c ****   {
 586:src/system/tim.c ****   /* USER CODE BEGIN TIM16_MspDeInit 0 */
 587:src/system/tim.c **** 
 588:src/system/tim.c ****   /* USER CODE END TIM16_MspDeInit 0 */
 589:src/system/tim.c ****     /* Peripheral clock disable */
 590:src/system/tim.c ****     __HAL_RCC_TIM16_CLK_DISABLE();
 591:src/system/tim.c ****   /* USER CODE BEGIN TIM16_MspDeInit 1 */
 592:src/system/tim.c **** 
 593:src/system/tim.c ****   /* USER CODE END TIM16_MspDeInit 1 */
 594:src/system/tim.c ****   }
 595:src/system/tim.c ****   else if(tim_baseHandle->Instance==TIM17)
 2272              		.loc 1 595 8 is_stmt 1 view .LVU837
 2273              		.loc 1 595 10 is_stmt 0 view .LVU838
 2274 001a 144A     		ldr	r2, .L199+16
 2275 001c 9342     		cmp	r3, r2
 2276 001e 0AD1     		bne	.L189
 596:src/system/tim.c ****   {
 597:src/system/tim.c ****   /* USER CODE BEGIN TIM17_MspDeInit 0 */
 598:src/system/tim.c **** 
 599:src/system/tim.c ****   /* USER CODE END TIM17_MspDeInit 0 */
 600:src/system/tim.c ****     /* Peripheral clock disable */
 601:src/system/tim.c ****     __HAL_RCC_TIM17_CLK_DISABLE();
 2277              		.loc 1 601 5 is_stmt 1 view .LVU839
 2278 0020 134A     		ldr	r2, .L199+20
 2279 0022 1449     		ldr	r1, .L199+24
 2280 0024 136C     		ldr	r3, [r2, #64]
 2281 0026 0B40     		ands	r3, r1
ARM GAS  /tmp/ccJHRQAf.s 			page 65


 2282 0028 1364     		str	r3, [r2, #64]
 602:src/system/tim.c ****   /* USER CODE BEGIN TIM17_MspDeInit 1 */
 603:src/system/tim.c **** 
 604:src/system/tim.c ****   /* USER CODE END TIM17_MspDeInit 1 */
 605:src/system/tim.c ****   }
 606:src/system/tim.c **** }
 2283              		.loc 1 606 1 is_stmt 0 view .LVU840
 2284 002a 04E0     		b	.L189
 2285              	.L196:
 568:src/system/tim.c ****   /* USER CODE BEGIN TIM3_MspDeInit 1 */
 2286              		.loc 1 568 5 is_stmt 1 view .LVU841
 2287 002c 0221     		movs	r1, #2
 2288 002e 104A     		ldr	r2, .L199+20
 2289 0030 D36B     		ldr	r3, [r2, #60]
 2290 0032 8B43     		bics	r3, r1
 2291 0034 D363     		str	r3, [r2, #60]
 2292              	.L189:
 2293              		.loc 1 606 1 is_stmt 0 view .LVU842
 2294              		@ sp needed
 2295 0036 7047     		bx	lr
 2296              	.L195:
 557:src/system/tim.c ****   /* USER CODE BEGIN TIM1_MspDeInit 1 */
 2297              		.loc 1 557 5 is_stmt 1 view .LVU843
 2298 0038 0D4A     		ldr	r2, .L199+20
 2299 003a 0F49     		ldr	r1, .L199+28
 2300 003c 136C     		ldr	r3, [r2, #64]
 2301 003e 0B40     		ands	r3, r1
 2302 0040 1364     		str	r3, [r2, #64]
 2303 0042 F8E7     		b	.L189
 2304              	.L197:
 579:src/system/tim.c ****   /* USER CODE BEGIN TIM14_MspDeInit 1 */
 2305              		.loc 1 579 5 view .LVU844
 2306 0044 0A4A     		ldr	r2, .L199+20
 2307 0046 0D49     		ldr	r1, .L199+32
 2308 0048 136C     		ldr	r3, [r2, #64]
 2309 004a 0B40     		ands	r3, r1
 2310 004c 1364     		str	r3, [r2, #64]
 2311 004e F2E7     		b	.L189
 2312              	.L198:
 590:src/system/tim.c ****   /* USER CODE BEGIN TIM16_MspDeInit 1 */
 2313              		.loc 1 590 5 view .LVU845
 2314 0050 074A     		ldr	r2, .L199+20
 2315 0052 0B49     		ldr	r1, .L199+36
 2316 0054 136C     		ldr	r3, [r2, #64]
 2317 0056 0B40     		ands	r3, r1
 2318 0058 1364     		str	r3, [r2, #64]
 2319 005a ECE7     		b	.L189
 2320              	.L200:
 2321              		.align	2
 2322              	.L199:
 2323 005c 002C0140 		.word	1073818624
 2324 0060 00040040 		.word	1073742848
 2325 0064 00200040 		.word	1073750016
 2326 0068 00440140 		.word	1073824768
 2327 006c 00480140 		.word	1073825792
 2328 0070 00100240 		.word	1073876992
 2329 0074 FFFFFBFF 		.word	-262145
ARM GAS  /tmp/ccJHRQAf.s 			page 66


 2330 0078 FFF7FFFF 		.word	-2049
 2331 007c FF7FFFFF 		.word	-32769
 2332 0080 FFFFFDFF 		.word	-131073
 2333              		.cfi_endproc
 2334              	.LFE221:
 2336              		.global	htim17
 2337              		.section	.bss.htim17,"aw",%nobits
 2338              		.align	2
 2341              	htim17:
 2342 0000 00000000 		.space	76
 2342      00000000 
 2342      00000000 
 2342      00000000 
 2342      00000000 
 2343              		.global	htim16
 2344              		.section	.bss.htim16,"aw",%nobits
 2345              		.align	2
 2348              	htim16:
 2349 0000 00000000 		.space	76
 2349      00000000 
 2349      00000000 
 2349      00000000 
 2349      00000000 
 2350              		.global	htim14
 2351              		.section	.bss.htim14,"aw",%nobits
 2352              		.align	2
 2355              	htim14:
 2356 0000 00000000 		.space	76
 2356      00000000 
 2356      00000000 
 2356      00000000 
 2356      00000000 
 2357              		.global	htim3
 2358              		.section	.bss.htim3,"aw",%nobits
 2359              		.align	2
 2362              	htim3:
 2363 0000 00000000 		.space	76
 2363      00000000 
 2363      00000000 
 2363      00000000 
 2363      00000000 
 2364              		.global	htim1
 2365              		.section	.bss.htim1,"aw",%nobits
 2366              		.align	2
 2369              	htim1:
 2370 0000 00000000 		.space	76
 2370      00000000 
 2370      00000000 
 2370      00000000 
 2370      00000000 
 2371              		.text
 2372              	.Letext0:
 2373              		.file 2 "/usr/lib/gcc/arm-none-eabi/12.2.1/include/stdint.h"
 2374              		.file 3 "external/drivers/cmsis/include/stm32c031xx.h"
 2375              		.file 4 "external/drivers/stm32c0xx/include/stm32c0xx_hal_def.h"
 2376              		.file 5 "external/drivers/stm32c0xx/include/stm32c0xx_hal_gpio.h"
 2377              		.file 6 "external/drivers/stm32c0xx/include/stm32c0xx_hal_dma.h"
ARM GAS  /tmp/ccJHRQAf.s 			page 67


 2378              		.file 7 "external/drivers/stm32c0xx/include/stm32c0xx_hal_tim.h"
 2379              		.file 8 "src/system/tim.h"
 2380              		.file 9 "external/drivers/stm32c0xx/include/stm32c0xx_hal_tim_ex.h"
 2381              		.file 10 "src/system/init.h"
 2382              		.file 11 "<built-in>"
ARM GAS  /tmp/ccJHRQAf.s 			page 68


DEFINED SYMBOLS
                            *ABS*:00000000 tim.c
     /tmp/ccJHRQAf.s:19     .text.MX_TIM14_Init:00000000 $t
     /tmp/ccJHRQAf.s:26     .text.MX_TIM14_Init:00000000 MX_TIM14_Init
     /tmp/ccJHRQAf.s:596    .text.MX_TIM14_Init:000001e0 $d
     /tmp/ccJHRQAf.s:2355   .bss.htim14:00000000 htim14
     /tmp/ccJHRQAf.s:614    .text.HAL_TIM_Base_MspInit:00000000 $t
     /tmp/ccJHRQAf.s:621    .text.HAL_TIM_Base_MspInit:00000000 HAL_TIM_Base_MspInit
     /tmp/ccJHRQAf.s:767    .text.HAL_TIM_Base_MspInit:00000090 $d
     /tmp/ccJHRQAf.s:777    .text.HAL_TIM_MspPostInit:00000000 $t
     /tmp/ccJHRQAf.s:784    .text.HAL_TIM_MspPostInit:00000000 HAL_TIM_MspPostInit
     /tmp/ccJHRQAf.s:1250   .text.HAL_TIM_MspPostInit:00000184 $d
     /tmp/ccJHRQAf.s:1264   .text.MX_TIM1_Init:00000000 $t
     /tmp/ccJHRQAf.s:1271   .text.MX_TIM1_Init:00000000 MX_TIM1_Init
     /tmp/ccJHRQAf.s:1573   .text.MX_TIM1_Init:0000012c $d
     /tmp/ccJHRQAf.s:2369   .bss.htim1:00000000 htim1
     /tmp/ccJHRQAf.s:1580   .text.MX_TIM3_Init:00000000 $t
     /tmp/ccJHRQAf.s:1587   .text.MX_TIM3_Init:00000000 MX_TIM3_Init
     /tmp/ccJHRQAf.s:1816   .text.MX_TIM3_Init:000000f0 $d
     /tmp/ccJHRQAf.s:2362   .bss.htim3:00000000 htim3
     /tmp/ccJHRQAf.s:1823   .text.MX_TIM16_Init:00000000 $t
     /tmp/ccJHRQAf.s:1830   .text.MX_TIM16_Init:00000000 MX_TIM16_Init
     /tmp/ccJHRQAf.s:2022   .text.MX_TIM16_Init:000000b4 $d
     /tmp/ccJHRQAf.s:2348   .bss.htim16:00000000 htim16
     /tmp/ccJHRQAf.s:2029   .text.MX_TIM17_Init:00000000 $t
     /tmp/ccJHRQAf.s:2036   .text.MX_TIM17_Init:00000000 MX_TIM17_Init
     /tmp/ccJHRQAf.s:2228   .text.MX_TIM17_Init:000000b4 $d
     /tmp/ccJHRQAf.s:2341   .bss.htim17:00000000 htim17
     /tmp/ccJHRQAf.s:2235   .text.HAL_TIM_Base_MspDeInit:00000000 $t
     /tmp/ccJHRQAf.s:2242   .text.HAL_TIM_Base_MspDeInit:00000000 HAL_TIM_Base_MspDeInit
     /tmp/ccJHRQAf.s:2323   .text.HAL_TIM_Base_MspDeInit:0000005c $d
     /tmp/ccJHRQAf.s:2338   .bss.htim17:00000000 $d
     /tmp/ccJHRQAf.s:2345   .bss.htim16:00000000 $d
     /tmp/ccJHRQAf.s:2352   .bss.htim14:00000000 $d
     /tmp/ccJHRQAf.s:2359   .bss.htim3:00000000 $d
     /tmp/ccJHRQAf.s:2366   .bss.htim1:00000000 $d

UNDEFINED SYMBOLS
memset
HAL_TIM_Base_Init
HAL_TIM_PWM_Init
HAL_TIM_PWM_ConfigChannel
Error_Handler
HAL_GPIO_Init
HAL_TIM_ConfigClockSource
HAL_TIMEx_MasterConfigSynchronization
HAL_TIMEx_ConfigBreakDeadTime
