ARM GAS  /tmp/ccyMvrGT.s 			page 1


   1              		.cpu cortex-m0plus
   2              		.arch armv6s-m
   3              		.fpu softvfp
   4              		.eabi_attribute 20, 1
   5              		.eabi_attribute 21, 1
   6              		.eabi_attribute 23, 3
   7              		.eabi_attribute 24, 1
   8              		.eabi_attribute 25, 1
   9              		.eabi_attribute 26, 1
  10              		.eabi_attribute 30, 1
  11              		.eabi_attribute 34, 0
  12              		.eabi_attribute 18, 4
  13              		.file	"tim.c"
  14              		.text
  15              	.Ltext0:
  16              		.cfi_sections	.debug_frame
  17              		.file 1 "src/system/tim.c"
  18              		.section	.text.HAL_TIM_Base_MspInit,"ax",%progbits
  19              		.align	1
  20              		.global	HAL_TIM_Base_MspInit
  21              		.syntax unified
  22              		.code	16
  23              		.thumb_func
  25              	HAL_TIM_Base_MspInit:
  26              	.LVL0:
  27              	.LFB219:
   1:src/system/tim.c **** /* USER CODE BEGIN Header */
   2:src/system/tim.c **** /**
   3:src/system/tim.c ****   ******************************************************************************
   4:src/system/tim.c ****   * @file    tim.c
   5:src/system/tim.c ****   * @brief   This file provides code for the configuration
   6:src/system/tim.c ****   *          of the TIM instances.
   7:src/system/tim.c ****   ******************************************************************************
   8:src/system/tim.c ****   * @attention
   9:src/system/tim.c ****   *
  10:src/system/tim.c ****   * Copyright (c) 2025 STMicroelectronics.
  11:src/system/tim.c ****   * All rights reserved.
  12:src/system/tim.c ****   *
  13:src/system/tim.c ****   * This software is licensed under terms that can be found in the LICENSE file
  14:src/system/tim.c ****   * in the root directory of this software component.
  15:src/system/tim.c ****   * If no LICENSE file comes with this software, it is provided AS-IS.
  16:src/system/tim.c ****   *
  17:src/system/tim.c ****   ******************************************************************************
  18:src/system/tim.c ****   */
  19:src/system/tim.c **** /* USER CODE END Header */
  20:src/system/tim.c **** /* Includes ------------------------------------------------------------------*/
  21:src/system/tim.c **** #include "tim.h"
  22:src/system/tim.c **** 
  23:src/system/tim.c **** /* USER CODE BEGIN 0 */
  24:src/system/tim.c **** 
  25:src/system/tim.c **** /* USER CODE END 0 */
  26:src/system/tim.c **** 
  27:src/system/tim.c **** TIM_HandleTypeDef htim1;
  28:src/system/tim.c **** TIM_HandleTypeDef htim3;
  29:src/system/tim.c **** TIM_HandleTypeDef htim14;
  30:src/system/tim.c **** TIM_HandleTypeDef htim16;
  31:src/system/tim.c **** TIM_HandleTypeDef htim17;
ARM GAS  /tmp/ccyMvrGT.s 			page 2


  32:src/system/tim.c **** 
  33:src/system/tim.c **** /* TIM1 init function */
  34:src/system/tim.c **** void MX_TIM1_Init(void)
  35:src/system/tim.c **** {
  36:src/system/tim.c **** 
  37:src/system/tim.c ****   /* USER CODE BEGIN TIM1_Init 0 */
  38:src/system/tim.c **** 
  39:src/system/tim.c ****   /* USER CODE END TIM1_Init 0 */
  40:src/system/tim.c **** 
  41:src/system/tim.c ****   TIM_ClockConfigTypeDef sClockSourceConfig = {0};
  42:src/system/tim.c ****   TIM_MasterConfigTypeDef sMasterConfig = {0};
  43:src/system/tim.c ****   TIM_OC_InitTypeDef sConfigOC = {0};
  44:src/system/tim.c ****   TIM_BreakDeadTimeConfigTypeDef sBreakDeadTimeConfig = {0};
  45:src/system/tim.c **** 
  46:src/system/tim.c ****   /* USER CODE BEGIN TIM1_Init 1 */
  47:src/system/tim.c **** 
  48:src/system/tim.c ****   /* USER CODE END TIM1_Init 1 */
  49:src/system/tim.c ****   htim1.Instance = TIM1;
  50:src/system/tim.c ****   htim1.Init.Prescaler = 0;
  51:src/system/tim.c ****   htim1.Init.CounterMode = TIM_COUNTERMODE_UP;
  52:src/system/tim.c ****   htim1.Init.Period = 65535;
  53:src/system/tim.c ****   htim1.Init.ClockDivision = TIM_CLOCKDIVISION_DIV1;
  54:src/system/tim.c ****   htim1.Init.RepetitionCounter = 0;
  55:src/system/tim.c ****   htim1.Init.AutoReloadPreload = TIM_AUTORELOAD_PRELOAD_DISABLE;
  56:src/system/tim.c ****   if (HAL_TIM_Base_Init(&htim1) != HAL_OK)
  57:src/system/tim.c ****   {
  58:src/system/tim.c ****     Error_Handler();
  59:src/system/tim.c ****   }
  60:src/system/tim.c ****   sClockSourceConfig.ClockSource = TIM_CLOCKSOURCE_INTERNAL;
  61:src/system/tim.c ****   if (HAL_TIM_ConfigClockSource(&htim1, &sClockSourceConfig) != HAL_OK)
  62:src/system/tim.c ****   {
  63:src/system/tim.c ****     Error_Handler();
  64:src/system/tim.c ****   }
  65:src/system/tim.c ****   if (HAL_TIM_PWM_Init(&htim1) != HAL_OK)
  66:src/system/tim.c ****   {
  67:src/system/tim.c ****     Error_Handler();
  68:src/system/tim.c ****   }
  69:src/system/tim.c ****   sMasterConfig.MasterOutputTrigger = TIM_TRGO_RESET;
  70:src/system/tim.c ****   sMasterConfig.MasterOutputTrigger2 = TIM_TRGO2_RESET;
  71:src/system/tim.c ****   sMasterConfig.MasterSlaveMode = TIM_MASTERSLAVEMODE_DISABLE;
  72:src/system/tim.c ****   if (HAL_TIMEx_MasterConfigSynchronization(&htim1, &sMasterConfig) != HAL_OK)
  73:src/system/tim.c ****   {
  74:src/system/tim.c ****     Error_Handler();
  75:src/system/tim.c ****   }
  76:src/system/tim.c ****   sConfigOC.OCMode = TIM_OCMODE_PWM1;
  77:src/system/tim.c ****   sConfigOC.Pulse = 0;
  78:src/system/tim.c ****   sConfigOC.OCPolarity = TIM_OCPOLARITY_HIGH;
  79:src/system/tim.c ****   sConfigOC.OCNPolarity = TIM_OCNPOLARITY_HIGH;
  80:src/system/tim.c ****   sConfigOC.OCFastMode = TIM_OCFAST_DISABLE;
  81:src/system/tim.c ****   sConfigOC.OCIdleState = TIM_OCIDLESTATE_RESET;
  82:src/system/tim.c ****   sConfigOC.OCNIdleState = TIM_OCNIDLESTATE_RESET;
  83:src/system/tim.c ****   if (HAL_TIM_PWM_ConfigChannel(&htim1, &sConfigOC, TIM_CHANNEL_1) != HAL_OK)
  84:src/system/tim.c ****   {
  85:src/system/tim.c ****     Error_Handler();
  86:src/system/tim.c ****   }
  87:src/system/tim.c ****   if (HAL_TIM_PWM_ConfigChannel(&htim1, &sConfigOC, TIM_CHANNEL_2) != HAL_OK)
  88:src/system/tim.c ****   {
ARM GAS  /tmp/ccyMvrGT.s 			page 3


  89:src/system/tim.c ****     Error_Handler();
  90:src/system/tim.c ****   }
  91:src/system/tim.c ****   if (HAL_TIM_PWM_ConfigChannel(&htim1, &sConfigOC, TIM_CHANNEL_3) != HAL_OK)
  92:src/system/tim.c ****   {
  93:src/system/tim.c ****     Error_Handler();
  94:src/system/tim.c ****   }
  95:src/system/tim.c ****   if (HAL_TIM_PWM_ConfigChannel(&htim1, &sConfigOC, TIM_CHANNEL_4) != HAL_OK)
  96:src/system/tim.c ****   {
  97:src/system/tim.c ****     Error_Handler();
  98:src/system/tim.c ****   }
  99:src/system/tim.c ****   sBreakDeadTimeConfig.OffStateRunMode = TIM_OSSR_DISABLE;
 100:src/system/tim.c ****   sBreakDeadTimeConfig.OffStateIDLEMode = TIM_OSSI_DISABLE;
 101:src/system/tim.c ****   sBreakDeadTimeConfig.LockLevel = TIM_LOCKLEVEL_OFF;
 102:src/system/tim.c ****   sBreakDeadTimeConfig.DeadTime = 0;
 103:src/system/tim.c ****   sBreakDeadTimeConfig.BreakState = TIM_BREAK_DISABLE;
 104:src/system/tim.c ****   sBreakDeadTimeConfig.BreakPolarity = TIM_BREAKPOLARITY_HIGH;
 105:src/system/tim.c ****   sBreakDeadTimeConfig.BreakFilter = 0;
 106:src/system/tim.c ****   sBreakDeadTimeConfig.BreakAFMode = TIM_BREAK_AFMODE_INPUT;
 107:src/system/tim.c ****   sBreakDeadTimeConfig.Break2State = TIM_BREAK2_DISABLE;
 108:src/system/tim.c ****   sBreakDeadTimeConfig.Break2Polarity = TIM_BREAK2POLARITY_HIGH;
 109:src/system/tim.c ****   sBreakDeadTimeConfig.Break2Filter = 0;
 110:src/system/tim.c ****   sBreakDeadTimeConfig.Break2AFMode = TIM_BREAK_AFMODE_INPUT;
 111:src/system/tim.c ****   sBreakDeadTimeConfig.AutomaticOutput = TIM_AUTOMATICOUTPUT_DISABLE;
 112:src/system/tim.c ****   if (HAL_TIMEx_ConfigBreakDeadTime(&htim1, &sBreakDeadTimeConfig) != HAL_OK)
 113:src/system/tim.c ****   {
 114:src/system/tim.c ****     Error_Handler();
 115:src/system/tim.c ****   }
 116:src/system/tim.c ****   /* USER CODE BEGIN TIM1_Init 2 */
 117:src/system/tim.c **** 
 118:src/system/tim.c ****   /* USER CODE END TIM1_Init 2 */
 119:src/system/tim.c ****   HAL_TIM_MspPostInit(&htim1);
 120:src/system/tim.c **** 
 121:src/system/tim.c **** }
 122:src/system/tim.c **** /* TIM3 init function */
 123:src/system/tim.c **** void MX_TIM3_Init(void)
 124:src/system/tim.c **** {
 125:src/system/tim.c **** 
 126:src/system/tim.c ****   /* USER CODE BEGIN TIM3_Init 0 */
 127:src/system/tim.c **** 
 128:src/system/tim.c ****   /* USER CODE END TIM3_Init 0 */
 129:src/system/tim.c **** 
 130:src/system/tim.c ****   TIM_ClockConfigTypeDef sClockSourceConfig = {0};
 131:src/system/tim.c ****   TIM_MasterConfigTypeDef sMasterConfig = {0};
 132:src/system/tim.c ****   TIM_OC_InitTypeDef sConfigOC = {0};
 133:src/system/tim.c **** 
 134:src/system/tim.c ****   /* USER CODE BEGIN TIM3_Init 1 */
 135:src/system/tim.c **** 
 136:src/system/tim.c ****   /* USER CODE END TIM3_Init 1 */
 137:src/system/tim.c ****   htim3.Instance = TIM3;
 138:src/system/tim.c ****   htim3.Init.Prescaler = 0;
 139:src/system/tim.c ****   htim3.Init.CounterMode = TIM_COUNTERMODE_UP;
 140:src/system/tim.c ****   htim3.Init.Period = 65535;
 141:src/system/tim.c ****   htim3.Init.ClockDivision = TIM_CLOCKDIVISION_DIV1;
 142:src/system/tim.c ****   htim3.Init.AutoReloadPreload = TIM_AUTORELOAD_PRELOAD_DISABLE;
 143:src/system/tim.c ****   if (HAL_TIM_Base_Init(&htim3) != HAL_OK)
 144:src/system/tim.c ****   {
 145:src/system/tim.c ****     Error_Handler();
ARM GAS  /tmp/ccyMvrGT.s 			page 4


 146:src/system/tim.c ****   }
 147:src/system/tim.c ****   sClockSourceConfig.ClockSource = TIM_CLOCKSOURCE_INTERNAL;
 148:src/system/tim.c ****   if (HAL_TIM_ConfigClockSource(&htim3, &sClockSourceConfig) != HAL_OK)
 149:src/system/tim.c ****   {
 150:src/system/tim.c ****     Error_Handler();
 151:src/system/tim.c ****   }
 152:src/system/tim.c ****   if (HAL_TIM_PWM_Init(&htim3) != HAL_OK)
 153:src/system/tim.c ****   {
 154:src/system/tim.c ****     Error_Handler();
 155:src/system/tim.c ****   }
 156:src/system/tim.c ****   sMasterConfig.MasterOutputTrigger = TIM_TRGO_RESET;
 157:src/system/tim.c ****   sMasterConfig.MasterSlaveMode = TIM_MASTERSLAVEMODE_DISABLE;
 158:src/system/tim.c ****   if (HAL_TIMEx_MasterConfigSynchronization(&htim3, &sMasterConfig) != HAL_OK)
 159:src/system/tim.c ****   {
 160:src/system/tim.c ****     Error_Handler();
 161:src/system/tim.c ****   }
 162:src/system/tim.c ****   sConfigOC.OCMode = TIM_OCMODE_PWM1;
 163:src/system/tim.c ****   sConfigOC.Pulse = 0;
 164:src/system/tim.c ****   sConfigOC.OCPolarity = TIM_OCPOLARITY_HIGH;
 165:src/system/tim.c ****   sConfigOC.OCFastMode = TIM_OCFAST_DISABLE;
 166:src/system/tim.c ****   if (HAL_TIM_PWM_ConfigChannel(&htim3, &sConfigOC, TIM_CHANNEL_1) != HAL_OK)
 167:src/system/tim.c ****   {
 168:src/system/tim.c ****     Error_Handler();
 169:src/system/tim.c ****   }
 170:src/system/tim.c ****   if (HAL_TIM_PWM_ConfigChannel(&htim3, &sConfigOC, TIM_CHANNEL_2) != HAL_OK)
 171:src/system/tim.c ****   {
 172:src/system/tim.c ****     Error_Handler();
 173:src/system/tim.c ****   }
 174:src/system/tim.c ****   if (HAL_TIM_PWM_ConfigChannel(&htim3, &sConfigOC, TIM_CHANNEL_3) != HAL_OK)
 175:src/system/tim.c ****   {
 176:src/system/tim.c ****     Error_Handler();
 177:src/system/tim.c ****   }
 178:src/system/tim.c ****   if (HAL_TIM_PWM_ConfigChannel(&htim3, &sConfigOC, TIM_CHANNEL_4) != HAL_OK)
 179:src/system/tim.c ****   {
 180:src/system/tim.c ****     Error_Handler();
 181:src/system/tim.c ****   }
 182:src/system/tim.c ****   /* USER CODE BEGIN TIM3_Init 2 */
 183:src/system/tim.c **** 
 184:src/system/tim.c ****   /* USER CODE END TIM3_Init 2 */
 185:src/system/tim.c ****   HAL_TIM_MspPostInit(&htim3);
 186:src/system/tim.c **** 
 187:src/system/tim.c **** }
 188:src/system/tim.c **** /* TIM14 init function */
 189:src/system/tim.c **** void MX_TIM14_Init(void)
 190:src/system/tim.c **** {
 191:src/system/tim.c **** 
 192:src/system/tim.c ****   /* USER CODE BEGIN TIM14_Init 0 */
 193:src/system/tim.c **** 
 194:src/system/tim.c ****   /* USER CODE END TIM14_Init 0 */
 195:src/system/tim.c **** 
 196:src/system/tim.c ****   TIM_OC_InitTypeDef sConfigOC = {0};
 197:src/system/tim.c **** 
 198:src/system/tim.c ****   /* USER CODE BEGIN TIM14_Init 1 */
 199:src/system/tim.c **** 
 200:src/system/tim.c ****   /* USER CODE END TIM14_Init 1 */
 201:src/system/tim.c ****   htim14.Instance = TIM14;
 202:src/system/tim.c ****   htim14.Init.Prescaler = 0;
ARM GAS  /tmp/ccyMvrGT.s 			page 5


 203:src/system/tim.c ****   htim14.Init.CounterMode = TIM_COUNTERMODE_UP;
 204:src/system/tim.c ****   htim14.Init.Period = 65535;
 205:src/system/tim.c ****   htim14.Init.ClockDivision = TIM_CLOCKDIVISION_DIV1;
 206:src/system/tim.c ****   htim14.Init.AutoReloadPreload = TIM_AUTORELOAD_PRELOAD_DISABLE;
 207:src/system/tim.c ****   if (HAL_TIM_Base_Init(&htim14) != HAL_OK)
 208:src/system/tim.c ****   {
 209:src/system/tim.c ****     Error_Handler();
 210:src/system/tim.c ****   }
 211:src/system/tim.c ****   if (HAL_TIM_PWM_Init(&htim14) != HAL_OK)
 212:src/system/tim.c ****   {
 213:src/system/tim.c ****     Error_Handler();
 214:src/system/tim.c ****   }
 215:src/system/tim.c ****   sConfigOC.OCMode = TIM_OCMODE_PWM1;
 216:src/system/tim.c ****   sConfigOC.Pulse = 0;
 217:src/system/tim.c ****   sConfigOC.OCPolarity = TIM_OCPOLARITY_HIGH;
 218:src/system/tim.c ****   sConfigOC.OCFastMode = TIM_OCFAST_DISABLE;
 219:src/system/tim.c ****   if (HAL_TIM_PWM_ConfigChannel(&htim14, &sConfigOC, TIM_CHANNEL_1) != HAL_OK)
 220:src/system/tim.c ****   {
 221:src/system/tim.c ****     Error_Handler();
 222:src/system/tim.c ****   }
 223:src/system/tim.c ****   /* USER CODE BEGIN TIM14_Init 2 */
 224:src/system/tim.c **** 
 225:src/system/tim.c ****   /* USER CODE END TIM14_Init 2 */
 226:src/system/tim.c ****   HAL_TIM_MspPostInit(&htim14);
 227:src/system/tim.c **** 
 228:src/system/tim.c **** }
 229:src/system/tim.c **** /* TIM16 init function */
 230:src/system/tim.c **** void MX_TIM16_Init(void)
 231:src/system/tim.c **** {
 232:src/system/tim.c **** 
 233:src/system/tim.c ****   /* USER CODE BEGIN TIM16_Init 0 */
 234:src/system/tim.c **** 
 235:src/system/tim.c ****   /* USER CODE END TIM16_Init 0 */
 236:src/system/tim.c **** 
 237:src/system/tim.c ****   TIM_OC_InitTypeDef sConfigOC = {0};
 238:src/system/tim.c ****   TIM_BreakDeadTimeConfigTypeDef sBreakDeadTimeConfig = {0};
 239:src/system/tim.c **** 
 240:src/system/tim.c ****   /* USER CODE BEGIN TIM16_Init 1 */
 241:src/system/tim.c **** 
 242:src/system/tim.c ****   /* USER CODE END TIM16_Init 1 */
 243:src/system/tim.c ****   htim16.Instance = TIM16;
 244:src/system/tim.c ****   htim16.Init.Prescaler = 0;
 245:src/system/tim.c ****   htim16.Init.CounterMode = TIM_COUNTERMODE_UP;
 246:src/system/tim.c ****   htim16.Init.Period = 65535;
 247:src/system/tim.c ****   htim16.Init.ClockDivision = TIM_CLOCKDIVISION_DIV1;
 248:src/system/tim.c ****   htim16.Init.RepetitionCounter = 0;
 249:src/system/tim.c ****   htim16.Init.AutoReloadPreload = TIM_AUTORELOAD_PRELOAD_DISABLE;
 250:src/system/tim.c ****   if (HAL_TIM_Base_Init(&htim16) != HAL_OK)
 251:src/system/tim.c ****   {
 252:src/system/tim.c ****     Error_Handler();
 253:src/system/tim.c ****   }
 254:src/system/tim.c ****   if (HAL_TIM_PWM_Init(&htim16) != HAL_OK)
 255:src/system/tim.c ****   {
 256:src/system/tim.c ****     Error_Handler();
 257:src/system/tim.c ****   }
 258:src/system/tim.c ****   sConfigOC.OCMode = TIM_OCMODE_PWM1;
 259:src/system/tim.c ****   sConfigOC.Pulse = 0;
ARM GAS  /tmp/ccyMvrGT.s 			page 6


 260:src/system/tim.c ****   sConfigOC.OCPolarity = TIM_OCPOLARITY_HIGH;
 261:src/system/tim.c ****   sConfigOC.OCNPolarity = TIM_OCNPOLARITY_HIGH;
 262:src/system/tim.c ****   sConfigOC.OCFastMode = TIM_OCFAST_DISABLE;
 263:src/system/tim.c ****   sConfigOC.OCIdleState = TIM_OCIDLESTATE_RESET;
 264:src/system/tim.c ****   sConfigOC.OCNIdleState = TIM_OCNIDLESTATE_RESET;
 265:src/system/tim.c ****   if (HAL_TIM_PWM_ConfigChannel(&htim16, &sConfigOC, TIM_CHANNEL_1) != HAL_OK)
 266:src/system/tim.c ****   {
 267:src/system/tim.c ****     Error_Handler();
 268:src/system/tim.c ****   }
 269:src/system/tim.c ****   sBreakDeadTimeConfig.OffStateRunMode = TIM_OSSR_DISABLE;
 270:src/system/tim.c ****   sBreakDeadTimeConfig.OffStateIDLEMode = TIM_OSSI_DISABLE;
 271:src/system/tim.c ****   sBreakDeadTimeConfig.LockLevel = TIM_LOCKLEVEL_OFF;
 272:src/system/tim.c ****   sBreakDeadTimeConfig.DeadTime = 0;
 273:src/system/tim.c ****   sBreakDeadTimeConfig.BreakState = TIM_BREAK_DISABLE;
 274:src/system/tim.c ****   sBreakDeadTimeConfig.BreakPolarity = TIM_BREAKPOLARITY_HIGH;
 275:src/system/tim.c ****   sBreakDeadTimeConfig.BreakFilter = 0;
 276:src/system/tim.c ****   sBreakDeadTimeConfig.AutomaticOutput = TIM_AUTOMATICOUTPUT_DISABLE;
 277:src/system/tim.c ****   if (HAL_TIMEx_ConfigBreakDeadTime(&htim16, &sBreakDeadTimeConfig) != HAL_OK)
 278:src/system/tim.c ****   {
 279:src/system/tim.c ****     Error_Handler();
 280:src/system/tim.c ****   }
 281:src/system/tim.c ****   /* USER CODE BEGIN TIM16_Init 2 */
 282:src/system/tim.c **** 
 283:src/system/tim.c ****   /* USER CODE END TIM16_Init 2 */
 284:src/system/tim.c ****   HAL_TIM_MspPostInit(&htim16);
 285:src/system/tim.c **** 
 286:src/system/tim.c **** }
 287:src/system/tim.c **** /* TIM17 init function */
 288:src/system/tim.c **** void MX_TIM17_Init(void)
 289:src/system/tim.c **** {
 290:src/system/tim.c **** 
 291:src/system/tim.c ****   /* USER CODE BEGIN TIM17_Init 0 */
 292:src/system/tim.c **** 
 293:src/system/tim.c ****   /* USER CODE END TIM17_Init 0 */
 294:src/system/tim.c **** 
 295:src/system/tim.c ****   TIM_OC_InitTypeDef sConfigOC = {0};
 296:src/system/tim.c ****   TIM_BreakDeadTimeConfigTypeDef sBreakDeadTimeConfig = {0};
 297:src/system/tim.c **** 
 298:src/system/tim.c ****   /* USER CODE BEGIN TIM17_Init 1 */
 299:src/system/tim.c **** 
 300:src/system/tim.c ****   /* USER CODE END TIM17_Init 1 */
 301:src/system/tim.c ****   htim17.Instance = TIM17;
 302:src/system/tim.c ****   htim17.Init.Prescaler = 0;
 303:src/system/tim.c ****   htim17.Init.CounterMode = TIM_COUNTERMODE_UP;
 304:src/system/tim.c ****   htim17.Init.Period = 65535;
 305:src/system/tim.c ****   htim17.Init.ClockDivision = TIM_CLOCKDIVISION_DIV1;
 306:src/system/tim.c ****   htim17.Init.RepetitionCounter = 0;
 307:src/system/tim.c ****   htim17.Init.AutoReloadPreload = TIM_AUTORELOAD_PRELOAD_DISABLE;
 308:src/system/tim.c ****   if (HAL_TIM_Base_Init(&htim17) != HAL_OK)
 309:src/system/tim.c ****   {
 310:src/system/tim.c ****     Error_Handler();
 311:src/system/tim.c ****   }
 312:src/system/tim.c ****   if (HAL_TIM_PWM_Init(&htim17) != HAL_OK)
 313:src/system/tim.c ****   {
 314:src/system/tim.c ****     Error_Handler();
 315:src/system/tim.c ****   }
 316:src/system/tim.c ****   sConfigOC.OCMode = TIM_OCMODE_PWM1;
ARM GAS  /tmp/ccyMvrGT.s 			page 7


 317:src/system/tim.c ****   sConfigOC.Pulse = 0;
 318:src/system/tim.c ****   sConfigOC.OCPolarity = TIM_OCPOLARITY_HIGH;
 319:src/system/tim.c ****   sConfigOC.OCNPolarity = TIM_OCNPOLARITY_HIGH;
 320:src/system/tim.c ****   sConfigOC.OCFastMode = TIM_OCFAST_DISABLE;
 321:src/system/tim.c ****   sConfigOC.OCIdleState = TIM_OCIDLESTATE_RESET;
 322:src/system/tim.c ****   sConfigOC.OCNIdleState = TIM_OCNIDLESTATE_RESET;
 323:src/system/tim.c ****   if (HAL_TIM_PWM_ConfigChannel(&htim17, &sConfigOC, TIM_CHANNEL_1) != HAL_OK)
 324:src/system/tim.c ****   {
 325:src/system/tim.c ****     Error_Handler();
 326:src/system/tim.c ****   }
 327:src/system/tim.c ****   sBreakDeadTimeConfig.OffStateRunMode = TIM_OSSR_DISABLE;
 328:src/system/tim.c ****   sBreakDeadTimeConfig.OffStateIDLEMode = TIM_OSSI_DISABLE;
 329:src/system/tim.c ****   sBreakDeadTimeConfig.LockLevel = TIM_LOCKLEVEL_OFF;
 330:src/system/tim.c ****   sBreakDeadTimeConfig.DeadTime = 0;
 331:src/system/tim.c ****   sBreakDeadTimeConfig.BreakState = TIM_BREAK_DISABLE;
 332:src/system/tim.c ****   sBreakDeadTimeConfig.BreakPolarity = TIM_BREAKPOLARITY_HIGH;
 333:src/system/tim.c ****   sBreakDeadTimeConfig.BreakFilter = 0;
 334:src/system/tim.c ****   sBreakDeadTimeConfig.AutomaticOutput = TIM_AUTOMATICOUTPUT_DISABLE;
 335:src/system/tim.c ****   if (HAL_TIMEx_ConfigBreakDeadTime(&htim17, &sBreakDeadTimeConfig) != HAL_OK)
 336:src/system/tim.c ****   {
 337:src/system/tim.c ****     Error_Handler();
 338:src/system/tim.c ****   }
 339:src/system/tim.c ****   /* USER CODE BEGIN TIM17_Init 2 */
 340:src/system/tim.c **** 
 341:src/system/tim.c ****   /* USER CODE END TIM17_Init 2 */
 342:src/system/tim.c ****   HAL_TIM_MspPostInit(&htim17);
 343:src/system/tim.c **** 
 344:src/system/tim.c **** }
 345:src/system/tim.c **** 
 346:src/system/tim.c **** void HAL_TIM_Base_MspInit(TIM_HandleTypeDef* tim_baseHandle)
 347:src/system/tim.c **** {
  28              		.loc 1 347 1 view -0
  29              		.cfi_startproc
  30              		@ args = 0, pretend = 0, frame = 24
  31              		@ frame_needed = 0, uses_anonymous_args = 0
  32              		@ link register save eliminated.
  33              		.loc 1 347 1 is_stmt 0 view .LVU1
  34 0000 86B0     		sub	sp, sp, #24
  35              	.LCFI0:
  36              		.cfi_def_cfa_offset 24
 348:src/system/tim.c **** 
 349:src/system/tim.c ****   if(tim_baseHandle->Instance==TIM1)
  37              		.loc 1 349 3 is_stmt 1 view .LVU2
  38              		.loc 1 349 20 is_stmt 0 view .LVU3
  39 0002 0368     		ldr	r3, [r0]
  40              		.loc 1 349 5 view .LVU4
  41 0004 224A     		ldr	r2, .L11
  42 0006 9342     		cmp	r3, r2
  43 0008 16D0     		beq	.L7
 350:src/system/tim.c ****   {
 351:src/system/tim.c ****   /* USER CODE BEGIN TIM1_MspInit 0 */
 352:src/system/tim.c **** 
 353:src/system/tim.c ****   /* USER CODE END TIM1_MspInit 0 */
 354:src/system/tim.c ****     /* TIM1 clock enable */
 355:src/system/tim.c ****     __HAL_RCC_TIM1_CLK_ENABLE();
 356:src/system/tim.c ****   /* USER CODE BEGIN TIM1_MspInit 1 */
 357:src/system/tim.c **** 
ARM GAS  /tmp/ccyMvrGT.s 			page 8


 358:src/system/tim.c ****   /* USER CODE END TIM1_MspInit 1 */
 359:src/system/tim.c ****   }
 360:src/system/tim.c ****   else if(tim_baseHandle->Instance==TIM3)
  44              		.loc 1 360 8 is_stmt 1 view .LVU5
  45              		.loc 1 360 10 is_stmt 0 view .LVU6
  46 000a 224A     		ldr	r2, .L11+4
  47 000c 9342     		cmp	r3, r2
  48 000e 1FD0     		beq	.L8
 361:src/system/tim.c ****   {
 362:src/system/tim.c ****   /* USER CODE BEGIN TIM3_MspInit 0 */
 363:src/system/tim.c **** 
 364:src/system/tim.c ****   /* USER CODE END TIM3_MspInit 0 */
 365:src/system/tim.c ****     /* TIM3 clock enable */
 366:src/system/tim.c ****     __HAL_RCC_TIM3_CLK_ENABLE();
 367:src/system/tim.c ****   /* USER CODE BEGIN TIM3_MspInit 1 */
 368:src/system/tim.c **** 
 369:src/system/tim.c ****   /* USER CODE END TIM3_MspInit 1 */
 370:src/system/tim.c ****   }
 371:src/system/tim.c ****   else if(tim_baseHandle->Instance==TIM14)
  49              		.loc 1 371 8 is_stmt 1 view .LVU7
  50              		.loc 1 371 10 is_stmt 0 view .LVU8
  51 0010 214A     		ldr	r2, .L11+8
  52 0012 9342     		cmp	r3, r2
  53 0014 26D0     		beq	.L9
 372:src/system/tim.c ****   {
 373:src/system/tim.c ****   /* USER CODE BEGIN TIM14_MspInit 0 */
 374:src/system/tim.c **** 
 375:src/system/tim.c ****   /* USER CODE END TIM14_MspInit 0 */
 376:src/system/tim.c ****     /* TIM14 clock enable */
 377:src/system/tim.c ****     __HAL_RCC_TIM14_CLK_ENABLE();
 378:src/system/tim.c ****   /* USER CODE BEGIN TIM14_MspInit 1 */
 379:src/system/tim.c **** 
 380:src/system/tim.c ****   /* USER CODE END TIM14_MspInit 1 */
 381:src/system/tim.c ****   }
 382:src/system/tim.c ****   else if(tim_baseHandle->Instance==TIM16)
  54              		.loc 1 382 8 is_stmt 1 view .LVU9
  55              		.loc 1 382 10 is_stmt 0 view .LVU10
  56 0016 214A     		ldr	r2, .L11+12
  57 0018 9342     		cmp	r3, r2
  58 001a 2ED0     		beq	.L10
 383:src/system/tim.c ****   {
 384:src/system/tim.c ****   /* USER CODE BEGIN TIM16_MspInit 0 */
 385:src/system/tim.c **** 
 386:src/system/tim.c ****   /* USER CODE END TIM16_MspInit 0 */
 387:src/system/tim.c ****     /* TIM16 clock enable */
 388:src/system/tim.c ****     __HAL_RCC_TIM16_CLK_ENABLE();
 389:src/system/tim.c ****   /* USER CODE BEGIN TIM16_MspInit 1 */
 390:src/system/tim.c **** 
 391:src/system/tim.c ****   /* USER CODE END TIM16_MspInit 1 */
 392:src/system/tim.c ****   }
 393:src/system/tim.c ****   else if(tim_baseHandle->Instance==TIM17)
  59              		.loc 1 393 8 is_stmt 1 view .LVU11
  60              		.loc 1 393 10 is_stmt 0 view .LVU12
  61 001c 204A     		ldr	r2, .L11+16
  62 001e 9342     		cmp	r3, r2
  63 0020 14D1     		bne	.L1
 394:src/system/tim.c ****   {
ARM GAS  /tmp/ccyMvrGT.s 			page 9


 395:src/system/tim.c ****   /* USER CODE BEGIN TIM17_MspInit 0 */
 396:src/system/tim.c **** 
 397:src/system/tim.c ****   /* USER CODE END TIM17_MspInit 0 */
 398:src/system/tim.c ****     /* TIM17 clock enable */
 399:src/system/tim.c ****     __HAL_RCC_TIM17_CLK_ENABLE();
  64              		.loc 1 399 5 is_stmt 1 view .LVU13
  65              	.LBB2:
  66              		.loc 1 399 5 view .LVU14
  67              		.loc 1 399 5 view .LVU15
  68 0022 204B     		ldr	r3, .L11+20
  69 0024 1A6C     		ldr	r2, [r3, #64]
  70 0026 8021     		movs	r1, #128
  71 0028 C902     		lsls	r1, r1, #11
  72 002a 0A43     		orrs	r2, r1
  73 002c 1A64     		str	r2, [r3, #64]
  74              		.loc 1 399 5 view .LVU16
  75 002e 1B6C     		ldr	r3, [r3, #64]
  76 0030 0B40     		ands	r3, r1
  77 0032 0593     		str	r3, [sp, #20]
  78              		.loc 1 399 5 view .LVU17
  79 0034 059B     		ldr	r3, [sp, #20]
  80              	.LBE2:
  81              		.loc 1 399 5 view .LVU18
 400:src/system/tim.c ****   /* USER CODE BEGIN TIM17_MspInit 1 */
 401:src/system/tim.c **** 
 402:src/system/tim.c ****   /* USER CODE END TIM17_MspInit 1 */
 403:src/system/tim.c ****   }
 404:src/system/tim.c **** }
  82              		.loc 1 404 1 is_stmt 0 view .LVU19
  83 0036 09E0     		b	.L1
  84              	.L7:
 355:src/system/tim.c ****   /* USER CODE BEGIN TIM1_MspInit 1 */
  85              		.loc 1 355 5 is_stmt 1 view .LVU20
  86              	.LBB3:
 355:src/system/tim.c ****   /* USER CODE BEGIN TIM1_MspInit 1 */
  87              		.loc 1 355 5 view .LVU21
 355:src/system/tim.c ****   /* USER CODE BEGIN TIM1_MspInit 1 */
  88              		.loc 1 355 5 view .LVU22
  89 0038 1A4B     		ldr	r3, .L11+20
  90 003a 1A6C     		ldr	r2, [r3, #64]
  91 003c 8021     		movs	r1, #128
  92 003e 0901     		lsls	r1, r1, #4
  93 0040 0A43     		orrs	r2, r1
  94 0042 1A64     		str	r2, [r3, #64]
 355:src/system/tim.c ****   /* USER CODE BEGIN TIM1_MspInit 1 */
  95              		.loc 1 355 5 view .LVU23
  96 0044 1B6C     		ldr	r3, [r3, #64]
  97 0046 0B40     		ands	r3, r1
  98 0048 0193     		str	r3, [sp, #4]
 355:src/system/tim.c ****   /* USER CODE BEGIN TIM1_MspInit 1 */
  99              		.loc 1 355 5 view .LVU24
 100 004a 019B     		ldr	r3, [sp, #4]
 101              	.LBE3:
 355:src/system/tim.c ****   /* USER CODE BEGIN TIM1_MspInit 1 */
 102              		.loc 1 355 5 view .LVU25
 103              	.L1:
 104              		.loc 1 404 1 is_stmt 0 view .LVU26
ARM GAS  /tmp/ccyMvrGT.s 			page 10


 105 004c 06B0     		add	sp, sp, #24
 106              		@ sp needed
 107 004e 7047     		bx	lr
 108              	.L8:
 366:src/system/tim.c ****   /* USER CODE BEGIN TIM3_MspInit 1 */
 109              		.loc 1 366 5 is_stmt 1 view .LVU27
 110              	.LBB4:
 366:src/system/tim.c ****   /* USER CODE BEGIN TIM3_MspInit 1 */
 111              		.loc 1 366 5 view .LVU28
 366:src/system/tim.c ****   /* USER CODE BEGIN TIM3_MspInit 1 */
 112              		.loc 1 366 5 view .LVU29
 113 0050 144A     		ldr	r2, .L11+20
 114 0052 D16B     		ldr	r1, [r2, #60]
 115 0054 0223     		movs	r3, #2
 116 0056 1943     		orrs	r1, r3
 117 0058 D163     		str	r1, [r2, #60]
 366:src/system/tim.c ****   /* USER CODE BEGIN TIM3_MspInit 1 */
 118              		.loc 1 366 5 view .LVU30
 119 005a D26B     		ldr	r2, [r2, #60]
 120 005c 1340     		ands	r3, r2
 121 005e 0293     		str	r3, [sp, #8]
 366:src/system/tim.c ****   /* USER CODE BEGIN TIM3_MspInit 1 */
 122              		.loc 1 366 5 view .LVU31
 123 0060 029B     		ldr	r3, [sp, #8]
 124              	.LBE4:
 366:src/system/tim.c ****   /* USER CODE BEGIN TIM3_MspInit 1 */
 125              		.loc 1 366 5 view .LVU32
 126 0062 F3E7     		b	.L1
 127              	.L9:
 377:src/system/tim.c ****   /* USER CODE BEGIN TIM14_MspInit 1 */
 128              		.loc 1 377 5 view .LVU33
 129              	.LBB5:
 377:src/system/tim.c ****   /* USER CODE BEGIN TIM14_MspInit 1 */
 130              		.loc 1 377 5 view .LVU34
 377:src/system/tim.c ****   /* USER CODE BEGIN TIM14_MspInit 1 */
 131              		.loc 1 377 5 view .LVU35
 132 0064 0F4B     		ldr	r3, .L11+20
 133 0066 1A6C     		ldr	r2, [r3, #64]
 134 0068 8021     		movs	r1, #128
 135 006a 0902     		lsls	r1, r1, #8
 136 006c 0A43     		orrs	r2, r1
 137 006e 1A64     		str	r2, [r3, #64]
 377:src/system/tim.c ****   /* USER CODE BEGIN TIM14_MspInit 1 */
 138              		.loc 1 377 5 view .LVU36
 139 0070 1B6C     		ldr	r3, [r3, #64]
 140 0072 0B40     		ands	r3, r1
 141 0074 0393     		str	r3, [sp, #12]
 377:src/system/tim.c ****   /* USER CODE BEGIN TIM14_MspInit 1 */
 142              		.loc 1 377 5 view .LVU37
 143 0076 039B     		ldr	r3, [sp, #12]
 144              	.LBE5:
 377:src/system/tim.c ****   /* USER CODE BEGIN TIM14_MspInit 1 */
 145              		.loc 1 377 5 view .LVU38
 146 0078 E8E7     		b	.L1
 147              	.L10:
 388:src/system/tim.c ****   /* USER CODE BEGIN TIM16_MspInit 1 */
 148              		.loc 1 388 5 view .LVU39
ARM GAS  /tmp/ccyMvrGT.s 			page 11


 149              	.LBB6:
 388:src/system/tim.c ****   /* USER CODE BEGIN TIM16_MspInit 1 */
 150              		.loc 1 388 5 view .LVU40
 388:src/system/tim.c ****   /* USER CODE BEGIN TIM16_MspInit 1 */
 151              		.loc 1 388 5 view .LVU41
 152 007a 0A4B     		ldr	r3, .L11+20
 153 007c 1A6C     		ldr	r2, [r3, #64]
 154 007e 8021     		movs	r1, #128
 155 0080 8902     		lsls	r1, r1, #10
 156 0082 0A43     		orrs	r2, r1
 157 0084 1A64     		str	r2, [r3, #64]
 388:src/system/tim.c ****   /* USER CODE BEGIN TIM16_MspInit 1 */
 158              		.loc 1 388 5 view .LVU42
 159 0086 1B6C     		ldr	r3, [r3, #64]
 160 0088 0B40     		ands	r3, r1
 161 008a 0493     		str	r3, [sp, #16]
 388:src/system/tim.c ****   /* USER CODE BEGIN TIM16_MspInit 1 */
 162              		.loc 1 388 5 view .LVU43
 163 008c 049B     		ldr	r3, [sp, #16]
 164              	.LBE6:
 388:src/system/tim.c ****   /* USER CODE BEGIN TIM16_MspInit 1 */
 165              		.loc 1 388 5 view .LVU44
 166 008e DDE7     		b	.L1
 167              	.L12:
 168              		.align	2
 169              	.L11:
 170 0090 002C0140 		.word	1073818624
 171 0094 00040040 		.word	1073742848
 172 0098 00200040 		.word	1073750016
 173 009c 00440140 		.word	1073824768
 174 00a0 00480140 		.word	1073825792
 175 00a4 00100240 		.word	1073876992
 176              		.cfi_endproc
 177              	.LFE219:
 179              		.section	.text.HAL_TIM_MspPostInit,"ax",%progbits
 180              		.align	1
 181              		.global	HAL_TIM_MspPostInit
 182              		.syntax unified
 183              		.code	16
 184              		.thumb_func
 186              	HAL_TIM_MspPostInit:
 187              	.LVL1:
 188              	.LFB220:
 405:src/system/tim.c **** void HAL_TIM_MspPostInit(TIM_HandleTypeDef* timHandle)
 406:src/system/tim.c **** {
 189              		.loc 1 406 1 view -0
 190              		.cfi_startproc
 191              		@ args = 0, pretend = 0, frame = 56
 192              		@ frame_needed = 0, uses_anonymous_args = 0
 193              		.loc 1 406 1 is_stmt 0 view .LVU46
 194 0000 F0B5     		push	{r4, r5, r6, r7, lr}
 195              	.LCFI1:
 196              		.cfi_def_cfa_offset 20
 197              		.cfi_offset 4, -20
 198              		.cfi_offset 5, -16
 199              		.cfi_offset 6, -12
 200              		.cfi_offset 7, -8
ARM GAS  /tmp/ccyMvrGT.s 			page 12


 201              		.cfi_offset 14, -4
 202 0002 8FB0     		sub	sp, sp, #60
 203              	.LCFI2:
 204              		.cfi_def_cfa_offset 80
 205 0004 0400     		movs	r4, r0
 407:src/system/tim.c **** 
 408:src/system/tim.c ****   GPIO_InitTypeDef GPIO_InitStruct = {0};
 206              		.loc 1 408 3 is_stmt 1 view .LVU47
 207              		.loc 1 408 20 is_stmt 0 view .LVU48
 208 0006 1422     		movs	r2, #20
 209 0008 0021     		movs	r1, #0
 210 000a 09A8     		add	r0, sp, #36
 211              	.LVL2:
 212              		.loc 1 408 20 view .LVU49
 213 000c FFF7FEFF 		bl	memset
 214              	.LVL3:
 409:src/system/tim.c ****   if(timHandle->Instance==TIM1)
 215              		.loc 1 409 3 is_stmt 1 view .LVU50
 216              		.loc 1 409 15 is_stmt 0 view .LVU51
 217 0010 2368     		ldr	r3, [r4]
 218              		.loc 1 409 5 view .LVU52
 219 0012 5E4A     		ldr	r2, .L24
 220 0014 9342     		cmp	r3, r2
 221 0016 10D0     		beq	.L19
 410:src/system/tim.c ****   {
 411:src/system/tim.c ****   /* USER CODE BEGIN TIM1_MspPostInit 0 */
 412:src/system/tim.c **** 
 413:src/system/tim.c ****   /* USER CODE END TIM1_MspPostInit 0 */
 414:src/system/tim.c ****     __HAL_RCC_GPIOF_CLK_ENABLE();
 415:src/system/tim.c ****     __HAL_RCC_GPIOA_CLK_ENABLE();
 416:src/system/tim.c ****     /**TIM1 GPIO Configuration
 417:src/system/tim.c ****     PF2-NRST     ------> TIM1_CH4
 418:src/system/tim.c ****     PA0     ------> TIM1_CH1
 419:src/system/tim.c ****     PA1     ------> TIM1_CH2
 420:src/system/tim.c ****     PA2     ------> TIM1_CH3
 421:src/system/tim.c ****     */
 422:src/system/tim.c ****     GPIO_InitStruct.Pin = GPIO_PIN_2;
 423:src/system/tim.c ****     GPIO_InitStruct.Mode = GPIO_MODE_AF_PP;
 424:src/system/tim.c ****     GPIO_InitStruct.Pull = GPIO_NOPULL;
 425:src/system/tim.c ****     GPIO_InitStruct.Speed = GPIO_SPEED_FREQ_LOW;
 426:src/system/tim.c ****     GPIO_InitStruct.Alternate = GPIO_AF1_TIM1;
 427:src/system/tim.c ****     HAL_GPIO_Init(GPIOF, &GPIO_InitStruct);
 428:src/system/tim.c **** 
 429:src/system/tim.c ****     GPIO_InitStruct.Pin = GPIO_PIN_0|GPIO_PIN_1|GPIO_PIN_2;
 430:src/system/tim.c ****     GPIO_InitStruct.Mode = GPIO_MODE_AF_PP;
 431:src/system/tim.c ****     GPIO_InitStruct.Pull = GPIO_NOPULL;
 432:src/system/tim.c ****     GPIO_InitStruct.Speed = GPIO_SPEED_FREQ_LOW;
 433:src/system/tim.c ****     GPIO_InitStruct.Alternate = GPIO_AF5_TIM1;
 434:src/system/tim.c ****     HAL_GPIO_Init(GPIOA, &GPIO_InitStruct);
 435:src/system/tim.c **** 
 436:src/system/tim.c ****   /* USER CODE BEGIN TIM1_MspPostInit 1 */
 437:src/system/tim.c **** 
 438:src/system/tim.c ****   /* USER CODE END TIM1_MspPostInit 1 */
 439:src/system/tim.c ****   }
 440:src/system/tim.c ****   else if(timHandle->Instance==TIM3)
 222              		.loc 1 440 8 is_stmt 1 view .LVU53
 223              		.loc 1 440 10 is_stmt 0 view .LVU54
ARM GAS  /tmp/ccyMvrGT.s 			page 13


 224 0018 5D4A     		ldr	r2, .L24+4
 225 001a 9342     		cmp	r3, r2
 226 001c 35D0     		beq	.L20
 441:src/system/tim.c ****   {
 442:src/system/tim.c ****   /* USER CODE BEGIN TIM3_MspPostInit 0 */
 443:src/system/tim.c **** 
 444:src/system/tim.c ****   /* USER CODE END TIM3_MspPostInit 0 */
 445:src/system/tim.c **** 
 446:src/system/tim.c ****     __HAL_RCC_GPIOC_CLK_ENABLE();
 447:src/system/tim.c ****     __HAL_RCC_GPIOA_CLK_ENABLE();
 448:src/system/tim.c ****     __HAL_RCC_GPIOB_CLK_ENABLE();
 449:src/system/tim.c ****     /**TIM3 GPIO Configuration
 450:src/system/tim.c ****     PC14-OSCX_IN (PC14)     ------> TIM3_CH2
 451:src/system/tim.c ****     PC15-OSCX_OUT (PC15)     ------> TIM3_CH3
 452:src/system/tim.c ****     PA6     ------> TIM3_CH1
 453:src/system/tim.c ****     PB1     ------> TIM3_CH4
 454:src/system/tim.c ****     */
 455:src/system/tim.c ****     GPIO_InitStruct.Pin = GPIO_PIN_14;
 456:src/system/tim.c ****     GPIO_InitStruct.Mode = GPIO_MODE_AF_PP;
 457:src/system/tim.c ****     GPIO_InitStruct.Pull = GPIO_NOPULL;
 458:src/system/tim.c ****     GPIO_InitStruct.Speed = GPIO_SPEED_FREQ_LOW;
 459:src/system/tim.c ****     GPIO_InitStruct.Alternate = GPIO_AF11_TIM3;
 460:src/system/tim.c ****     HAL_GPIO_Init(GPIOC, &GPIO_InitStruct);
 461:src/system/tim.c **** 
 462:src/system/tim.c ****     GPIO_InitStruct.Pin = GPIO_PIN_15;
 463:src/system/tim.c ****     GPIO_InitStruct.Mode = GPIO_MODE_AF_PP;
 464:src/system/tim.c ****     GPIO_InitStruct.Pull = GPIO_NOPULL;
 465:src/system/tim.c ****     GPIO_InitStruct.Speed = GPIO_SPEED_FREQ_LOW;
 466:src/system/tim.c ****     GPIO_InitStruct.Alternate = GPIO_AF3_TIM3;
 467:src/system/tim.c ****     HAL_GPIO_Init(GPIOC, &GPIO_InitStruct);
 468:src/system/tim.c **** 
 469:src/system/tim.c ****     GPIO_InitStruct.Pin = GPIO_PIN_6;
 470:src/system/tim.c ****     GPIO_InitStruct.Mode = GPIO_MODE_AF_PP;
 471:src/system/tim.c ****     GPIO_InitStruct.Pull = GPIO_NOPULL;
 472:src/system/tim.c ****     GPIO_InitStruct.Speed = GPIO_SPEED_FREQ_LOW;
 473:src/system/tim.c ****     GPIO_InitStruct.Alternate = GPIO_AF1_TIM3;
 474:src/system/tim.c ****     HAL_GPIO_Init(GPIOA, &GPIO_InitStruct);
 475:src/system/tim.c **** 
 476:src/system/tim.c ****     GPIO_InitStruct.Pin = GPIO_PIN_1;
 477:src/system/tim.c ****     GPIO_InitStruct.Mode = GPIO_MODE_AF_PP;
 478:src/system/tim.c ****     GPIO_InitStruct.Pull = GPIO_NOPULL;
 479:src/system/tim.c ****     GPIO_InitStruct.Speed = GPIO_SPEED_FREQ_LOW;
 480:src/system/tim.c ****     GPIO_InitStruct.Alternate = GPIO_AF1_TIM3;
 481:src/system/tim.c ****     HAL_GPIO_Init(GPIOB, &GPIO_InitStruct);
 482:src/system/tim.c **** 
 483:src/system/tim.c ****   /* USER CODE BEGIN TIM3_MspPostInit 1 */
 484:src/system/tim.c **** 
 485:src/system/tim.c ****   /* USER CODE END TIM3_MspPostInit 1 */
 486:src/system/tim.c ****   }
 487:src/system/tim.c ****   else if(timHandle->Instance==TIM14)
 227              		.loc 1 487 8 is_stmt 1 view .LVU55
 228              		.loc 1 487 10 is_stmt 0 view .LVU56
 229 001e 5D4A     		ldr	r2, .L24+8
 230 0020 9342     		cmp	r3, r2
 231 0022 00D1     		bne	.LCB191
 232 0024 77E0     		b	.L21	@long jump
 233              	.LCB191:
ARM GAS  /tmp/ccyMvrGT.s 			page 14


 488:src/system/tim.c ****   {
 489:src/system/tim.c ****   /* USER CODE BEGIN TIM14_MspPostInit 0 */
 490:src/system/tim.c **** 
 491:src/system/tim.c ****   /* USER CODE END TIM14_MspPostInit 0 */
 492:src/system/tim.c **** 
 493:src/system/tim.c ****     __HAL_RCC_GPIOF_CLK_ENABLE();
 494:src/system/tim.c ****     /**TIM14 GPIO Configuration
 495:src/system/tim.c ****     PF0-OSC_IN (PF0)     ------> TIM14_CH1
 496:src/system/tim.c ****     */
 497:src/system/tim.c ****     GPIO_InitStruct.Pin = GPIO_PIN_0;
 498:src/system/tim.c ****     GPIO_InitStruct.Mode = GPIO_MODE_AF_PP;
 499:src/system/tim.c ****     GPIO_InitStruct.Pull = GPIO_NOPULL;
 500:src/system/tim.c ****     GPIO_InitStruct.Speed = GPIO_SPEED_FREQ_LOW;
 501:src/system/tim.c ****     GPIO_InitStruct.Alternate = GPIO_AF2_TIM14;
 502:src/system/tim.c ****     HAL_GPIO_Init(GPIOF, &GPIO_InitStruct);
 503:src/system/tim.c **** 
 504:src/system/tim.c ****   /* USER CODE BEGIN TIM14_MspPostInit 1 */
 505:src/system/tim.c **** 
 506:src/system/tim.c ****   /* USER CODE END TIM14_MspPostInit 1 */
 507:src/system/tim.c ****   }
 508:src/system/tim.c ****   else if(timHandle->Instance==TIM16)
 234              		.loc 1 508 8 is_stmt 1 view .LVU57
 235              		.loc 1 508 10 is_stmt 0 view .LVU58
 236 0026 5C4A     		ldr	r2, .L24+12
 237 0028 9342     		cmp	r3, r2
 238 002a 00D1     		bne	.LCB195
 239 002c 86E0     		b	.L22	@long jump
 240              	.LCB195:
 509:src/system/tim.c ****   {
 510:src/system/tim.c ****   /* USER CODE BEGIN TIM16_MspPostInit 0 */
 511:src/system/tim.c **** 
 512:src/system/tim.c ****   /* USER CODE END TIM16_MspPostInit 0 */
 513:src/system/tim.c **** 
 514:src/system/tim.c ****     __HAL_RCC_GPIOD_CLK_ENABLE();
 515:src/system/tim.c ****     /**TIM16 GPIO Configuration
 516:src/system/tim.c ****     PD0     ------> TIM16_CH1
 517:src/system/tim.c ****     */
 518:src/system/tim.c ****     GPIO_InitStruct.Pin = GPIO_PIN_0;
 519:src/system/tim.c ****     GPIO_InitStruct.Mode = GPIO_MODE_AF_PP;
 520:src/system/tim.c ****     GPIO_InitStruct.Pull = GPIO_NOPULL;
 521:src/system/tim.c ****     GPIO_InitStruct.Speed = GPIO_SPEED_FREQ_LOW;
 522:src/system/tim.c ****     GPIO_InitStruct.Alternate = GPIO_AF2_TIM16;
 523:src/system/tim.c ****     HAL_GPIO_Init(GPIOD, &GPIO_InitStruct);
 524:src/system/tim.c **** 
 525:src/system/tim.c ****   /* USER CODE BEGIN TIM16_MspPostInit 1 */
 526:src/system/tim.c **** 
 527:src/system/tim.c ****   /* USER CODE END TIM16_MspPostInit 1 */
 528:src/system/tim.c ****   }
 529:src/system/tim.c ****   else if(timHandle->Instance==TIM17)
 241              		.loc 1 529 8 is_stmt 1 view .LVU59
 242              		.loc 1 529 10 is_stmt 0 view .LVU60
 243 002e 5B4A     		ldr	r2, .L24+16
 244 0030 9342     		cmp	r3, r2
 245 0032 00D1     		bne	.LCB199
 246 0034 95E0     		b	.L23	@long jump
 247              	.LCB199:
 248              	.LVL4:
ARM GAS  /tmp/ccyMvrGT.s 			page 15


 249              	.L13:
 530:src/system/tim.c ****   {
 531:src/system/tim.c ****   /* USER CODE BEGIN TIM17_MspPostInit 0 */
 532:src/system/tim.c **** 
 533:src/system/tim.c ****   /* USER CODE END TIM17_MspPostInit 0 */
 534:src/system/tim.c **** 
 535:src/system/tim.c ****     __HAL_RCC_GPIOA_CLK_ENABLE();
 536:src/system/tim.c ****     /**TIM17 GPIO Configuration
 537:src/system/tim.c ****     PA7     ------> TIM17_CH1
 538:src/system/tim.c ****     */
 539:src/system/tim.c ****     GPIO_InitStruct.Pin = GPIO_PIN_7;
 540:src/system/tim.c ****     GPIO_InitStruct.Mode = GPIO_MODE_AF_PP;
 541:src/system/tim.c ****     GPIO_InitStruct.Pull = GPIO_NOPULL;
 542:src/system/tim.c ****     GPIO_InitStruct.Speed = GPIO_SPEED_FREQ_LOW;
 543:src/system/tim.c ****     GPIO_InitStruct.Alternate = GPIO_AF5_TIM17;
 544:src/system/tim.c ****     HAL_GPIO_Init(GPIOA, &GPIO_InitStruct);
 545:src/system/tim.c **** 
 546:src/system/tim.c ****   /* USER CODE BEGIN TIM17_MspPostInit 1 */
 547:src/system/tim.c **** 
 548:src/system/tim.c ****   /* USER CODE END TIM17_MspPostInit 1 */
 549:src/system/tim.c ****   }
 550:src/system/tim.c **** 
 551:src/system/tim.c **** }
 250              		.loc 1 551 1 view .LVU61
 251 0036 0FB0     		add	sp, sp, #60
 252              		@ sp needed
 253 0038 F0BD     		pop	{r4, r5, r6, r7, pc}
 254              	.LVL5:
 255              	.L19:
 414:src/system/tim.c ****     __HAL_RCC_GPIOA_CLK_ENABLE();
 256              		.loc 1 414 5 is_stmt 1 view .LVU62
 257              	.LBB7:
 414:src/system/tim.c ****     __HAL_RCC_GPIOA_CLK_ENABLE();
 258              		.loc 1 414 5 view .LVU63
 414:src/system/tim.c ****     __HAL_RCC_GPIOA_CLK_ENABLE();
 259              		.loc 1 414 5 view .LVU64
 260 003a 594B     		ldr	r3, .L24+20
 261 003c 596B     		ldr	r1, [r3, #52]
 262 003e 2022     		movs	r2, #32
 263 0040 1143     		orrs	r1, r2
 264 0042 5963     		str	r1, [r3, #52]
 414:src/system/tim.c ****     __HAL_RCC_GPIOA_CLK_ENABLE();
 265              		.loc 1 414 5 view .LVU65
 266 0044 596B     		ldr	r1, [r3, #52]
 267 0046 0A40     		ands	r2, r1
 268 0048 0192     		str	r2, [sp, #4]
 414:src/system/tim.c ****     __HAL_RCC_GPIOA_CLK_ENABLE();
 269              		.loc 1 414 5 view .LVU66
 270 004a 019A     		ldr	r2, [sp, #4]
 271              	.LBE7:
 414:src/system/tim.c ****     __HAL_RCC_GPIOA_CLK_ENABLE();
 272              		.loc 1 414 5 view .LVU67
 415:src/system/tim.c ****     /**TIM1 GPIO Configuration
 273              		.loc 1 415 5 view .LVU68
 274              	.LBB8:
 415:src/system/tim.c ****     /**TIM1 GPIO Configuration
 275              		.loc 1 415 5 view .LVU69
ARM GAS  /tmp/ccyMvrGT.s 			page 16


 415:src/system/tim.c ****     /**TIM1 GPIO Configuration
 276              		.loc 1 415 5 view .LVU70
 277 004c 596B     		ldr	r1, [r3, #52]
 278 004e 0122     		movs	r2, #1
 279 0050 1143     		orrs	r1, r2
 280 0052 5963     		str	r1, [r3, #52]
 415:src/system/tim.c ****     /**TIM1 GPIO Configuration
 281              		.loc 1 415 5 view .LVU71
 282 0054 5B6B     		ldr	r3, [r3, #52]
 283 0056 1340     		ands	r3, r2
 284 0058 0293     		str	r3, [sp, #8]
 415:src/system/tim.c ****     /**TIM1 GPIO Configuration
 285              		.loc 1 415 5 view .LVU72
 286 005a 029B     		ldr	r3, [sp, #8]
 287              	.LBE8:
 415:src/system/tim.c ****     /**TIM1 GPIO Configuration
 288              		.loc 1 415 5 view .LVU73
 422:src/system/tim.c ****     GPIO_InitStruct.Mode = GPIO_MODE_AF_PP;
 289              		.loc 1 422 5 view .LVU74
 422:src/system/tim.c ****     GPIO_InitStruct.Mode = GPIO_MODE_AF_PP;
 290              		.loc 1 422 25 is_stmt 0 view .LVU75
 291 005c 0423     		movs	r3, #4
 292 005e 0993     		str	r3, [sp, #36]
 423:src/system/tim.c ****     GPIO_InitStruct.Pull = GPIO_NOPULL;
 293              		.loc 1 423 5 is_stmt 1 view .LVU76
 423:src/system/tim.c ****     GPIO_InitStruct.Pull = GPIO_NOPULL;
 294              		.loc 1 423 26 is_stmt 0 view .LVU77
 295 0060 0224     		movs	r4, #2
 296              	.LVL6:
 423:src/system/tim.c ****     GPIO_InitStruct.Pull = GPIO_NOPULL;
 297              		.loc 1 423 26 view .LVU78
 298 0062 0A94     		str	r4, [sp, #40]
 424:src/system/tim.c ****     GPIO_InitStruct.Speed = GPIO_SPEED_FREQ_LOW;
 299              		.loc 1 424 5 is_stmt 1 view .LVU79
 425:src/system/tim.c ****     GPIO_InitStruct.Alternate = GPIO_AF1_TIM1;
 300              		.loc 1 425 5 view .LVU80
 426:src/system/tim.c ****     HAL_GPIO_Init(GPIOF, &GPIO_InitStruct);
 301              		.loc 1 426 5 view .LVU81
 426:src/system/tim.c ****     HAL_GPIO_Init(GPIOF, &GPIO_InitStruct);
 302              		.loc 1 426 31 is_stmt 0 view .LVU82
 303 0064 0D92     		str	r2, [sp, #52]
 427:src/system/tim.c **** 
 304              		.loc 1 427 5 is_stmt 1 view .LVU83
 305 0066 09A9     		add	r1, sp, #36
 306 0068 4E48     		ldr	r0, .L24+24
 307 006a FFF7FEFF 		bl	HAL_GPIO_Init
 308              	.LVL7:
 429:src/system/tim.c ****     GPIO_InitStruct.Mode = GPIO_MODE_AF_PP;
 309              		.loc 1 429 5 view .LVU84
 429:src/system/tim.c ****     GPIO_InitStruct.Mode = GPIO_MODE_AF_PP;
 310              		.loc 1 429 25 is_stmt 0 view .LVU85
 311 006e 0723     		movs	r3, #7
 312 0070 0993     		str	r3, [sp, #36]
 430:src/system/tim.c ****     GPIO_InitStruct.Pull = GPIO_NOPULL;
 313              		.loc 1 430 5 is_stmt 1 view .LVU86
 430:src/system/tim.c ****     GPIO_InitStruct.Pull = GPIO_NOPULL;
 314              		.loc 1 430 26 is_stmt 0 view .LVU87
ARM GAS  /tmp/ccyMvrGT.s 			page 17


 315 0072 0A94     		str	r4, [sp, #40]
 431:src/system/tim.c ****     GPIO_InitStruct.Speed = GPIO_SPEED_FREQ_LOW;
 316              		.loc 1 431 5 is_stmt 1 view .LVU88
 431:src/system/tim.c ****     GPIO_InitStruct.Speed = GPIO_SPEED_FREQ_LOW;
 317              		.loc 1 431 26 is_stmt 0 view .LVU89
 318 0074 0023     		movs	r3, #0
 319 0076 0B93     		str	r3, [sp, #44]
 432:src/system/tim.c ****     GPIO_InitStruct.Alternate = GPIO_AF5_TIM1;
 320              		.loc 1 432 5 is_stmt 1 view .LVU90
 432:src/system/tim.c ****     GPIO_InitStruct.Alternate = GPIO_AF5_TIM1;
 321              		.loc 1 432 27 is_stmt 0 view .LVU91
 322 0078 0C93     		str	r3, [sp, #48]
 433:src/system/tim.c ****     HAL_GPIO_Init(GPIOA, &GPIO_InitStruct);
 323              		.loc 1 433 5 is_stmt 1 view .LVU92
 433:src/system/tim.c ****     HAL_GPIO_Init(GPIOA, &GPIO_InitStruct);
 324              		.loc 1 433 31 is_stmt 0 view .LVU93
 325 007a 0533     		adds	r3, r3, #5
 326 007c 0D93     		str	r3, [sp, #52]
 434:src/system/tim.c **** 
 327              		.loc 1 434 5 is_stmt 1 view .LVU94
 328 007e A020     		movs	r0, #160
 329 0080 09A9     		add	r1, sp, #36
 330 0082 C005     		lsls	r0, r0, #23
 331 0084 FFF7FEFF 		bl	HAL_GPIO_Init
 332              	.LVL8:
 333 0088 D5E7     		b	.L13
 334              	.LVL9:
 335              	.L20:
 446:src/system/tim.c ****     __HAL_RCC_GPIOA_CLK_ENABLE();
 336              		.loc 1 446 5 view .LVU95
 337              	.LBB9:
 446:src/system/tim.c ****     __HAL_RCC_GPIOA_CLK_ENABLE();
 338              		.loc 1 446 5 view .LVU96
 446:src/system/tim.c ****     __HAL_RCC_GPIOA_CLK_ENABLE();
 339              		.loc 1 446 5 view .LVU97
 340 008a 454B     		ldr	r3, .L24+20
 341 008c 596B     		ldr	r1, [r3, #52]
 342 008e 0422     		movs	r2, #4
 343 0090 1143     		orrs	r1, r2
 344 0092 5963     		str	r1, [r3, #52]
 446:src/system/tim.c ****     __HAL_RCC_GPIOA_CLK_ENABLE();
 345              		.loc 1 446 5 view .LVU98
 346 0094 596B     		ldr	r1, [r3, #52]
 347 0096 0A40     		ands	r2, r1
 348 0098 0392     		str	r2, [sp, #12]
 446:src/system/tim.c ****     __HAL_RCC_GPIOA_CLK_ENABLE();
 349              		.loc 1 446 5 view .LVU99
 350 009a 039A     		ldr	r2, [sp, #12]
 351              	.LBE9:
 446:src/system/tim.c ****     __HAL_RCC_GPIOA_CLK_ENABLE();
 352              		.loc 1 446 5 view .LVU100
 447:src/system/tim.c ****     __HAL_RCC_GPIOB_CLK_ENABLE();
 353              		.loc 1 447 5 view .LVU101
 354              	.LBB10:
 447:src/system/tim.c ****     __HAL_RCC_GPIOB_CLK_ENABLE();
 355              		.loc 1 447 5 view .LVU102
 447:src/system/tim.c ****     __HAL_RCC_GPIOB_CLK_ENABLE();
ARM GAS  /tmp/ccyMvrGT.s 			page 18


 356              		.loc 1 447 5 view .LVU103
 357 009c 5A6B     		ldr	r2, [r3, #52]
 358 009e 0126     		movs	r6, #1
 359 00a0 3243     		orrs	r2, r6
 360 00a2 5A63     		str	r2, [r3, #52]
 447:src/system/tim.c ****     __HAL_RCC_GPIOB_CLK_ENABLE();
 361              		.loc 1 447 5 view .LVU104
 362 00a4 5A6B     		ldr	r2, [r3, #52]
 363 00a6 3240     		ands	r2, r6
 364 00a8 0492     		str	r2, [sp, #16]
 447:src/system/tim.c ****     __HAL_RCC_GPIOB_CLK_ENABLE();
 365              		.loc 1 447 5 view .LVU105
 366 00aa 049A     		ldr	r2, [sp, #16]
 367              	.LBE10:
 447:src/system/tim.c ****     __HAL_RCC_GPIOB_CLK_ENABLE();
 368              		.loc 1 447 5 view .LVU106
 448:src/system/tim.c ****     /**TIM3 GPIO Configuration
 369              		.loc 1 448 5 view .LVU107
 370              	.LBB11:
 448:src/system/tim.c ****     /**TIM3 GPIO Configuration
 371              		.loc 1 448 5 view .LVU108
 448:src/system/tim.c ****     /**TIM3 GPIO Configuration
 372              		.loc 1 448 5 view .LVU109
 373 00ac 5A6B     		ldr	r2, [r3, #52]
 374 00ae 0224     		movs	r4, #2
 375              	.LVL10:
 448:src/system/tim.c ****     /**TIM3 GPIO Configuration
 376              		.loc 1 448 5 is_stmt 0 view .LVU110
 377 00b0 2243     		orrs	r2, r4
 378 00b2 5A63     		str	r2, [r3, #52]
 448:src/system/tim.c ****     /**TIM3 GPIO Configuration
 379              		.loc 1 448 5 is_stmt 1 view .LVU111
 380 00b4 5B6B     		ldr	r3, [r3, #52]
 381 00b6 2340     		ands	r3, r4
 382 00b8 0593     		str	r3, [sp, #20]
 448:src/system/tim.c ****     /**TIM3 GPIO Configuration
 383              		.loc 1 448 5 view .LVU112
 384 00ba 059B     		ldr	r3, [sp, #20]
 385              	.LBE11:
 448:src/system/tim.c ****     /**TIM3 GPIO Configuration
 386              		.loc 1 448 5 view .LVU113
 455:src/system/tim.c ****     GPIO_InitStruct.Mode = GPIO_MODE_AF_PP;
 387              		.loc 1 455 5 view .LVU114
 455:src/system/tim.c ****     GPIO_InitStruct.Mode = GPIO_MODE_AF_PP;
 388              		.loc 1 455 25 is_stmt 0 view .LVU115
 389 00bc 8023     		movs	r3, #128
 390 00be DB01     		lsls	r3, r3, #7
 391 00c0 0993     		str	r3, [sp, #36]
 456:src/system/tim.c ****     GPIO_InitStruct.Pull = GPIO_NOPULL;
 392              		.loc 1 456 5 is_stmt 1 view .LVU116
 456:src/system/tim.c ****     GPIO_InitStruct.Pull = GPIO_NOPULL;
 393              		.loc 1 456 26 is_stmt 0 view .LVU117
 394 00c2 0A94     		str	r4, [sp, #40]
 457:src/system/tim.c ****     GPIO_InitStruct.Speed = GPIO_SPEED_FREQ_LOW;
 395              		.loc 1 457 5 is_stmt 1 view .LVU118
 458:src/system/tim.c ****     GPIO_InitStruct.Alternate = GPIO_AF11_TIM3;
 396              		.loc 1 458 5 view .LVU119
ARM GAS  /tmp/ccyMvrGT.s 			page 19


 459:src/system/tim.c ****     HAL_GPIO_Init(GPIOC, &GPIO_InitStruct);
 397              		.loc 1 459 5 view .LVU120
 459:src/system/tim.c ****     HAL_GPIO_Init(GPIOC, &GPIO_InitStruct);
 398              		.loc 1 459 31 is_stmt 0 view .LVU121
 399 00c4 0B23     		movs	r3, #11
 400 00c6 0D93     		str	r3, [sp, #52]
 460:src/system/tim.c **** 
 401              		.loc 1 460 5 is_stmt 1 view .LVU122
 402 00c8 374F     		ldr	r7, .L24+28
 403 00ca 09A9     		add	r1, sp, #36
 404 00cc 3800     		movs	r0, r7
 405 00ce FFF7FEFF 		bl	HAL_GPIO_Init
 406              	.LVL11:
 462:src/system/tim.c ****     GPIO_InitStruct.Mode = GPIO_MODE_AF_PP;
 407              		.loc 1 462 5 view .LVU123
 462:src/system/tim.c ****     GPIO_InitStruct.Mode = GPIO_MODE_AF_PP;
 408              		.loc 1 462 25 is_stmt 0 view .LVU124
 409 00d2 8023     		movs	r3, #128
 410 00d4 1B02     		lsls	r3, r3, #8
 411 00d6 0993     		str	r3, [sp, #36]
 463:src/system/tim.c ****     GPIO_InitStruct.Pull = GPIO_NOPULL;
 412              		.loc 1 463 5 is_stmt 1 view .LVU125
 463:src/system/tim.c ****     GPIO_InitStruct.Pull = GPIO_NOPULL;
 413              		.loc 1 463 26 is_stmt 0 view .LVU126
 414 00d8 0A94     		str	r4, [sp, #40]
 464:src/system/tim.c ****     GPIO_InitStruct.Speed = GPIO_SPEED_FREQ_LOW;
 415              		.loc 1 464 5 is_stmt 1 view .LVU127
 464:src/system/tim.c ****     GPIO_InitStruct.Speed = GPIO_SPEED_FREQ_LOW;
 416              		.loc 1 464 26 is_stmt 0 view .LVU128
 417 00da 0025     		movs	r5, #0
 418 00dc 0B95     		str	r5, [sp, #44]
 465:src/system/tim.c ****     GPIO_InitStruct.Alternate = GPIO_AF3_TIM3;
 419              		.loc 1 465 5 is_stmt 1 view .LVU129
 465:src/system/tim.c ****     GPIO_InitStruct.Alternate = GPIO_AF3_TIM3;
 420              		.loc 1 465 27 is_stmt 0 view .LVU130
 421 00de 0C95     		str	r5, [sp, #48]
 466:src/system/tim.c ****     HAL_GPIO_Init(GPIOC, &GPIO_InitStruct);
 422              		.loc 1 466 5 is_stmt 1 view .LVU131
 466:src/system/tim.c ****     HAL_GPIO_Init(GPIOC, &GPIO_InitStruct);
 423              		.loc 1 466 31 is_stmt 0 view .LVU132
 424 00e0 0323     		movs	r3, #3
 425 00e2 0D93     		str	r3, [sp, #52]
 467:src/system/tim.c **** 
 426              		.loc 1 467 5 is_stmt 1 view .LVU133
 427 00e4 09A9     		add	r1, sp, #36
 428 00e6 3800     		movs	r0, r7
 429 00e8 FFF7FEFF 		bl	HAL_GPIO_Init
 430              	.LVL12:
 469:src/system/tim.c ****     GPIO_InitStruct.Mode = GPIO_MODE_AF_PP;
 431              		.loc 1 469 5 view .LVU134
 469:src/system/tim.c ****     GPIO_InitStruct.Mode = GPIO_MODE_AF_PP;
 432              		.loc 1 469 25 is_stmt 0 view .LVU135
 433 00ec 4023     		movs	r3, #64
 434 00ee 0993     		str	r3, [sp, #36]
 470:src/system/tim.c ****     GPIO_InitStruct.Pull = GPIO_NOPULL;
 435              		.loc 1 470 5 is_stmt 1 view .LVU136
 470:src/system/tim.c ****     GPIO_InitStruct.Pull = GPIO_NOPULL;
ARM GAS  /tmp/ccyMvrGT.s 			page 20


 436              		.loc 1 470 26 is_stmt 0 view .LVU137
 437 00f0 0A94     		str	r4, [sp, #40]
 471:src/system/tim.c ****     GPIO_InitStruct.Speed = GPIO_SPEED_FREQ_LOW;
 438              		.loc 1 471 5 is_stmt 1 view .LVU138
 471:src/system/tim.c ****     GPIO_InitStruct.Speed = GPIO_SPEED_FREQ_LOW;
 439              		.loc 1 471 26 is_stmt 0 view .LVU139
 440 00f2 0B95     		str	r5, [sp, #44]
 472:src/system/tim.c ****     GPIO_InitStruct.Alternate = GPIO_AF1_TIM3;
 441              		.loc 1 472 5 is_stmt 1 view .LVU140
 472:src/system/tim.c ****     GPIO_InitStruct.Alternate = GPIO_AF1_TIM3;
 442              		.loc 1 472 27 is_stmt 0 view .LVU141
 443 00f4 0C95     		str	r5, [sp, #48]
 473:src/system/tim.c ****     HAL_GPIO_Init(GPIOA, &GPIO_InitStruct);
 444              		.loc 1 473 5 is_stmt 1 view .LVU142
 473:src/system/tim.c ****     HAL_GPIO_Init(GPIOA, &GPIO_InitStruct);
 445              		.loc 1 473 31 is_stmt 0 view .LVU143
 446 00f6 0D96     		str	r6, [sp, #52]
 474:src/system/tim.c **** 
 447              		.loc 1 474 5 is_stmt 1 view .LVU144
 448 00f8 A020     		movs	r0, #160
 449 00fa 09A9     		add	r1, sp, #36
 450 00fc C005     		lsls	r0, r0, #23
 451 00fe FFF7FEFF 		bl	HAL_GPIO_Init
 452              	.LVL13:
 476:src/system/tim.c ****     GPIO_InitStruct.Mode = GPIO_MODE_AF_PP;
 453              		.loc 1 476 5 view .LVU145
 476:src/system/tim.c ****     GPIO_InitStruct.Mode = GPIO_MODE_AF_PP;
 454              		.loc 1 476 25 is_stmt 0 view .LVU146
 455 0102 0994     		str	r4, [sp, #36]
 477:src/system/tim.c ****     GPIO_InitStruct.Pull = GPIO_NOPULL;
 456              		.loc 1 477 5 is_stmt 1 view .LVU147
 477:src/system/tim.c ****     GPIO_InitStruct.Pull = GPIO_NOPULL;
 457              		.loc 1 477 26 is_stmt 0 view .LVU148
 458 0104 0A94     		str	r4, [sp, #40]
 478:src/system/tim.c ****     GPIO_InitStruct.Speed = GPIO_SPEED_FREQ_LOW;
 459              		.loc 1 478 5 is_stmt 1 view .LVU149
 478:src/system/tim.c ****     GPIO_InitStruct.Speed = GPIO_SPEED_FREQ_LOW;
 460              		.loc 1 478 26 is_stmt 0 view .LVU150
 461 0106 0B95     		str	r5, [sp, #44]
 479:src/system/tim.c ****     GPIO_InitStruct.Alternate = GPIO_AF1_TIM3;
 462              		.loc 1 479 5 is_stmt 1 view .LVU151
 479:src/system/tim.c ****     GPIO_InitStruct.Alternate = GPIO_AF1_TIM3;
 463              		.loc 1 479 27 is_stmt 0 view .LVU152
 464 0108 0C95     		str	r5, [sp, #48]
 480:src/system/tim.c ****     HAL_GPIO_Init(GPIOB, &GPIO_InitStruct);
 465              		.loc 1 480 5 is_stmt 1 view .LVU153
 480:src/system/tim.c ****     HAL_GPIO_Init(GPIOB, &GPIO_InitStruct);
 466              		.loc 1 480 31 is_stmt 0 view .LVU154
 467 010a 0D96     		str	r6, [sp, #52]
 481:src/system/tim.c **** 
 468              		.loc 1 481 5 is_stmt 1 view .LVU155
 469 010c 09A9     		add	r1, sp, #36
 470 010e 2748     		ldr	r0, .L24+32
 471 0110 FFF7FEFF 		bl	HAL_GPIO_Init
 472              	.LVL14:
 473 0114 8FE7     		b	.L13
 474              	.LVL15:
ARM GAS  /tmp/ccyMvrGT.s 			page 21


 475              	.L21:
 493:src/system/tim.c ****     /**TIM14 GPIO Configuration
 476              		.loc 1 493 5 view .LVU156
 477              	.LBB12:
 493:src/system/tim.c ****     /**TIM14 GPIO Configuration
 478              		.loc 1 493 5 view .LVU157
 493:src/system/tim.c ****     /**TIM14 GPIO Configuration
 479              		.loc 1 493 5 view .LVU158
 480 0116 224A     		ldr	r2, .L24+20
 481 0118 516B     		ldr	r1, [r2, #52]
 482 011a 2023     		movs	r3, #32
 483 011c 1943     		orrs	r1, r3
 484 011e 5163     		str	r1, [r2, #52]
 493:src/system/tim.c ****     /**TIM14 GPIO Configuration
 485              		.loc 1 493 5 view .LVU159
 486 0120 526B     		ldr	r2, [r2, #52]
 487 0122 1340     		ands	r3, r2
 488 0124 0693     		str	r3, [sp, #24]
 493:src/system/tim.c ****     /**TIM14 GPIO Configuration
 489              		.loc 1 493 5 view .LVU160
 490 0126 069B     		ldr	r3, [sp, #24]
 491              	.LBE12:
 493:src/system/tim.c ****     /**TIM14 GPIO Configuration
 492              		.loc 1 493 5 view .LVU161
 497:src/system/tim.c ****     GPIO_InitStruct.Mode = GPIO_MODE_AF_PP;
 493              		.loc 1 497 5 view .LVU162
 497:src/system/tim.c ****     GPIO_InitStruct.Mode = GPIO_MODE_AF_PP;
 494              		.loc 1 497 25 is_stmt 0 view .LVU163
 495 0128 0123     		movs	r3, #1
 496 012a 0993     		str	r3, [sp, #36]
 498:src/system/tim.c ****     GPIO_InitStruct.Pull = GPIO_NOPULL;
 497              		.loc 1 498 5 is_stmt 1 view .LVU164
 498:src/system/tim.c ****     GPIO_InitStruct.Pull = GPIO_NOPULL;
 498              		.loc 1 498 26 is_stmt 0 view .LVU165
 499 012c 0133     		adds	r3, r3, #1
 500 012e 0A93     		str	r3, [sp, #40]
 499:src/system/tim.c ****     GPIO_InitStruct.Speed = GPIO_SPEED_FREQ_LOW;
 501              		.loc 1 499 5 is_stmt 1 view .LVU166
 500:src/system/tim.c ****     GPIO_InitStruct.Alternate = GPIO_AF2_TIM14;
 502              		.loc 1 500 5 view .LVU167
 501:src/system/tim.c ****     HAL_GPIO_Init(GPIOF, &GPIO_InitStruct);
 503              		.loc 1 501 5 view .LVU168
 501:src/system/tim.c ****     HAL_GPIO_Init(GPIOF, &GPIO_InitStruct);
 504              		.loc 1 501 31 is_stmt 0 view .LVU169
 505 0130 0D93     		str	r3, [sp, #52]
 502:src/system/tim.c **** 
 506              		.loc 1 502 5 is_stmt 1 view .LVU170
 507 0132 09A9     		add	r1, sp, #36
 508 0134 1B48     		ldr	r0, .L24+24
 509 0136 FFF7FEFF 		bl	HAL_GPIO_Init
 510              	.LVL16:
 511 013a 7CE7     		b	.L13
 512              	.L22:
 514:src/system/tim.c ****     /**TIM16 GPIO Configuration
 513              		.loc 1 514 5 view .LVU171
 514              	.LBB13:
 514:src/system/tim.c ****     /**TIM16 GPIO Configuration
ARM GAS  /tmp/ccyMvrGT.s 			page 22


 515              		.loc 1 514 5 view .LVU172
 514:src/system/tim.c ****     /**TIM16 GPIO Configuration
 516              		.loc 1 514 5 view .LVU173
 517 013c 184A     		ldr	r2, .L24+20
 518 013e 516B     		ldr	r1, [r2, #52]
 519 0140 0823     		movs	r3, #8
 520 0142 1943     		orrs	r1, r3
 521 0144 5163     		str	r1, [r2, #52]
 514:src/system/tim.c ****     /**TIM16 GPIO Configuration
 522              		.loc 1 514 5 view .LVU174
 523 0146 526B     		ldr	r2, [r2, #52]
 524 0148 1340     		ands	r3, r2
 525 014a 0793     		str	r3, [sp, #28]
 514:src/system/tim.c ****     /**TIM16 GPIO Configuration
 526              		.loc 1 514 5 view .LVU175
 527 014c 079B     		ldr	r3, [sp, #28]
 528              	.LBE13:
 514:src/system/tim.c ****     /**TIM16 GPIO Configuration
 529              		.loc 1 514 5 view .LVU176
 518:src/system/tim.c ****     GPIO_InitStruct.Mode = GPIO_MODE_AF_PP;
 530              		.loc 1 518 5 view .LVU177
 518:src/system/tim.c ****     GPIO_InitStruct.Mode = GPIO_MODE_AF_PP;
 531              		.loc 1 518 25 is_stmt 0 view .LVU178
 532 014e 0123     		movs	r3, #1
 533 0150 0993     		str	r3, [sp, #36]
 519:src/system/tim.c ****     GPIO_InitStruct.Pull = GPIO_NOPULL;
 534              		.loc 1 519 5 is_stmt 1 view .LVU179
 519:src/system/tim.c ****     GPIO_InitStruct.Pull = GPIO_NOPULL;
 535              		.loc 1 519 26 is_stmt 0 view .LVU180
 536 0152 0133     		adds	r3, r3, #1
 537 0154 0A93     		str	r3, [sp, #40]
 520:src/system/tim.c ****     GPIO_InitStruct.Speed = GPIO_SPEED_FREQ_LOW;
 538              		.loc 1 520 5 is_stmt 1 view .LVU181
 521:src/system/tim.c ****     GPIO_InitStruct.Alternate = GPIO_AF2_TIM16;
 539              		.loc 1 521 5 view .LVU182
 522:src/system/tim.c ****     HAL_GPIO_Init(GPIOD, &GPIO_InitStruct);
 540              		.loc 1 522 5 view .LVU183
 522:src/system/tim.c ****     HAL_GPIO_Init(GPIOD, &GPIO_InitStruct);
 541              		.loc 1 522 31 is_stmt 0 view .LVU184
 542 0156 0D93     		str	r3, [sp, #52]
 523:src/system/tim.c **** 
 543              		.loc 1 523 5 is_stmt 1 view .LVU185
 544 0158 09A9     		add	r1, sp, #36
 545 015a 1548     		ldr	r0, .L24+36
 546 015c FFF7FEFF 		bl	HAL_GPIO_Init
 547              	.LVL17:
 548 0160 69E7     		b	.L13
 549              	.L23:
 535:src/system/tim.c ****     /**TIM17 GPIO Configuration
 550              		.loc 1 535 5 view .LVU186
 551              	.LBB14:
 535:src/system/tim.c ****     /**TIM17 GPIO Configuration
 552              		.loc 1 535 5 view .LVU187
 535:src/system/tim.c ****     /**TIM17 GPIO Configuration
 553              		.loc 1 535 5 view .LVU188
 554 0162 0F4A     		ldr	r2, .L24+20
 555 0164 516B     		ldr	r1, [r2, #52]
ARM GAS  /tmp/ccyMvrGT.s 			page 23


 556 0166 0123     		movs	r3, #1
 557 0168 1943     		orrs	r1, r3
 558 016a 5163     		str	r1, [r2, #52]
 535:src/system/tim.c ****     /**TIM17 GPIO Configuration
 559              		.loc 1 535 5 view .LVU189
 560 016c 526B     		ldr	r2, [r2, #52]
 561 016e 1340     		ands	r3, r2
 562 0170 0893     		str	r3, [sp, #32]
 535:src/system/tim.c ****     /**TIM17 GPIO Configuration
 563              		.loc 1 535 5 view .LVU190
 564 0172 089B     		ldr	r3, [sp, #32]
 565              	.LBE14:
 535:src/system/tim.c ****     /**TIM17 GPIO Configuration
 566              		.loc 1 535 5 view .LVU191
 539:src/system/tim.c ****     GPIO_InitStruct.Mode = GPIO_MODE_AF_PP;
 567              		.loc 1 539 5 view .LVU192
 539:src/system/tim.c ****     GPIO_InitStruct.Mode = GPIO_MODE_AF_PP;
 568              		.loc 1 539 25 is_stmt 0 view .LVU193
 569 0174 8023     		movs	r3, #128
 570 0176 0993     		str	r3, [sp, #36]
 540:src/system/tim.c ****     GPIO_InitStruct.Pull = GPIO_NOPULL;
 571              		.loc 1 540 5 is_stmt 1 view .LVU194
 540:src/system/tim.c ****     GPIO_InitStruct.Pull = GPIO_NOPULL;
 572              		.loc 1 540 26 is_stmt 0 view .LVU195
 573 0178 7E3B     		subs	r3, r3, #126
 574 017a 0A93     		str	r3, [sp, #40]
 541:src/system/tim.c ****     GPIO_InitStruct.Speed = GPIO_SPEED_FREQ_LOW;
 575              		.loc 1 541 5 is_stmt 1 view .LVU196
 542:src/system/tim.c ****     GPIO_InitStruct.Alternate = GPIO_AF5_TIM17;
 576              		.loc 1 542 5 view .LVU197
 543:src/system/tim.c ****     HAL_GPIO_Init(GPIOA, &GPIO_InitStruct);
 577              		.loc 1 543 5 view .LVU198
 543:src/system/tim.c ****     HAL_GPIO_Init(GPIOA, &GPIO_InitStruct);
 578              		.loc 1 543 31 is_stmt 0 view .LVU199
 579 017c 0333     		adds	r3, r3, #3
 580 017e 0D93     		str	r3, [sp, #52]
 544:src/system/tim.c **** 
 581              		.loc 1 544 5 is_stmt 1 view .LVU200
 582 0180 A020     		movs	r0, #160
 583 0182 09A9     		add	r1, sp, #36
 584 0184 C005     		lsls	r0, r0, #23
 585 0186 FFF7FEFF 		bl	HAL_GPIO_Init
 586              	.LVL18:
 587              		.loc 1 551 1 is_stmt 0 view .LVU201
 588 018a 54E7     		b	.L13
 589              	.L25:
 590              		.align	2
 591              	.L24:
 592 018c 002C0140 		.word	1073818624
 593 0190 00040040 		.word	1073742848
 594 0194 00200040 		.word	1073750016
 595 0198 00440140 		.word	1073824768
 596 019c 00480140 		.word	1073825792
 597 01a0 00100240 		.word	1073876992
 598 01a4 00140050 		.word	1342182400
 599 01a8 00080050 		.word	1342179328
 600 01ac 00040050 		.word	1342178304
ARM GAS  /tmp/ccyMvrGT.s 			page 24


 601 01b0 000C0050 		.word	1342180352
 602              		.cfi_endproc
 603              	.LFE220:
 605              		.section	.text.MX_TIM1_Init,"ax",%progbits
 606              		.align	1
 607              		.global	MX_TIM1_Init
 608              		.syntax unified
 609              		.code	16
 610              		.thumb_func
 612              	MX_TIM1_Init:
 613              	.LFB214:
  35:src/system/tim.c **** 
 614              		.loc 1 35 1 is_stmt 1 view -0
 615              		.cfi_startproc
 616              		@ args = 0, pretend = 0, frame = 112
 617              		@ frame_needed = 0, uses_anonymous_args = 0
 618 0000 00B5     		push	{lr}
 619              	.LCFI3:
 620              		.cfi_def_cfa_offset 4
 621              		.cfi_offset 14, -4
 622 0002 9DB0     		sub	sp, sp, #116
 623              	.LCFI4:
 624              		.cfi_def_cfa_offset 120
  41:src/system/tim.c ****   TIM_MasterConfigTypeDef sMasterConfig = {0};
 625              		.loc 1 41 3 view .LVU203
  41:src/system/tim.c ****   TIM_MasterConfigTypeDef sMasterConfig = {0};
 626              		.loc 1 41 26 is_stmt 0 view .LVU204
 627 0004 1022     		movs	r2, #16
 628 0006 0021     		movs	r1, #0
 629 0008 18A8     		add	r0, sp, #96
 630 000a FFF7FEFF 		bl	memset
 631              	.LVL19:
  42:src/system/tim.c ****   TIM_OC_InitTypeDef sConfigOC = {0};
 632              		.loc 1 42 3 is_stmt 1 view .LVU205
  42:src/system/tim.c ****   TIM_OC_InitTypeDef sConfigOC = {0};
 633              		.loc 1 42 27 is_stmt 0 view .LVU206
 634 000e 0C22     		movs	r2, #12
 635 0010 0021     		movs	r1, #0
 636 0012 15A8     		add	r0, sp, #84
 637 0014 FFF7FEFF 		bl	memset
 638              	.LVL20:
  43:src/system/tim.c ****   TIM_BreakDeadTimeConfigTypeDef sBreakDeadTimeConfig = {0};
 639              		.loc 1 43 3 is_stmt 1 view .LVU207
  43:src/system/tim.c ****   TIM_BreakDeadTimeConfigTypeDef sBreakDeadTimeConfig = {0};
 640              		.loc 1 43 22 is_stmt 0 view .LVU208
 641 0018 1C22     		movs	r2, #28
 642 001a 0021     		movs	r1, #0
 643 001c 0EA8     		add	r0, sp, #56
 644 001e FFF7FEFF 		bl	memset
 645              	.LVL21:
  44:src/system/tim.c **** 
 646              		.loc 1 44 3 is_stmt 1 view .LVU209
  44:src/system/tim.c **** 
 647              		.loc 1 44 34 is_stmt 0 view .LVU210
 648 0022 3422     		movs	r2, #52
 649 0024 0021     		movs	r1, #0
 650 0026 01A8     		add	r0, sp, #4
ARM GAS  /tmp/ccyMvrGT.s 			page 25


 651 0028 FFF7FEFF 		bl	memset
 652              	.LVL22:
  49:src/system/tim.c ****   htim1.Init.Prescaler = 0;
 653              		.loc 1 49 3 is_stmt 1 view .LVU211
  49:src/system/tim.c ****   htim1.Init.Prescaler = 0;
 654              		.loc 1 49 18 is_stmt 0 view .LVU212
 655 002c 4148     		ldr	r0, .L45
 656 002e 424B     		ldr	r3, .L45+4
 657 0030 0360     		str	r3, [r0]
  50:src/system/tim.c ****   htim1.Init.CounterMode = TIM_COUNTERMODE_UP;
 658              		.loc 1 50 3 is_stmt 1 view .LVU213
  50:src/system/tim.c ****   htim1.Init.CounterMode = TIM_COUNTERMODE_UP;
 659              		.loc 1 50 24 is_stmt 0 view .LVU214
 660 0032 0023     		movs	r3, #0
 661 0034 4360     		str	r3, [r0, #4]
  51:src/system/tim.c ****   htim1.Init.Period = 65535;
 662              		.loc 1 51 3 is_stmt 1 view .LVU215
  51:src/system/tim.c ****   htim1.Init.Period = 65535;
 663              		.loc 1 51 26 is_stmt 0 view .LVU216
 664 0036 8360     		str	r3, [r0, #8]
  52:src/system/tim.c ****   htim1.Init.ClockDivision = TIM_CLOCKDIVISION_DIV1;
 665              		.loc 1 52 3 is_stmt 1 view .LVU217
  52:src/system/tim.c ****   htim1.Init.ClockDivision = TIM_CLOCKDIVISION_DIV1;
 666              		.loc 1 52 21 is_stmt 0 view .LVU218
 667 0038 404A     		ldr	r2, .L45+8
 668 003a C260     		str	r2, [r0, #12]
  53:src/system/tim.c ****   htim1.Init.RepetitionCounter = 0;
 669              		.loc 1 53 3 is_stmt 1 view .LVU219
  53:src/system/tim.c ****   htim1.Init.RepetitionCounter = 0;
 670              		.loc 1 53 28 is_stmt 0 view .LVU220
 671 003c 0361     		str	r3, [r0, #16]
  54:src/system/tim.c ****   htim1.Init.AutoReloadPreload = TIM_AUTORELOAD_PRELOAD_DISABLE;
 672              		.loc 1 54 3 is_stmt 1 view .LVU221
  54:src/system/tim.c ****   htim1.Init.AutoReloadPreload = TIM_AUTORELOAD_PRELOAD_DISABLE;
 673              		.loc 1 54 32 is_stmt 0 view .LVU222
 674 003e 4361     		str	r3, [r0, #20]
  55:src/system/tim.c ****   if (HAL_TIM_Base_Init(&htim1) != HAL_OK)
 675              		.loc 1 55 3 is_stmt 1 view .LVU223
  55:src/system/tim.c ****   if (HAL_TIM_Base_Init(&htim1) != HAL_OK)
 676              		.loc 1 55 32 is_stmt 0 view .LVU224
 677 0040 8361     		str	r3, [r0, #24]
  56:src/system/tim.c ****   {
 678              		.loc 1 56 3 is_stmt 1 view .LVU225
  56:src/system/tim.c ****   {
 679              		.loc 1 56 7 is_stmt 0 view .LVU226
 680 0042 FFF7FEFF 		bl	HAL_TIM_Base_Init
 681              	.LVL23:
  56:src/system/tim.c ****   {
 682              		.loc 1 56 6 view .LVU227
 683 0046 0028     		cmp	r0, #0
 684 0048 59D1     		bne	.L36
 685              	.L27:
  60:src/system/tim.c ****   if (HAL_TIM_ConfigClockSource(&htim1, &sClockSourceConfig) != HAL_OK)
 686              		.loc 1 60 3 is_stmt 1 view .LVU228
  60:src/system/tim.c ****   if (HAL_TIM_ConfigClockSource(&htim1, &sClockSourceConfig) != HAL_OK)
 687              		.loc 1 60 34 is_stmt 0 view .LVU229
 688 004a 8023     		movs	r3, #128
ARM GAS  /tmp/ccyMvrGT.s 			page 26


 689 004c 5B01     		lsls	r3, r3, #5
 690 004e 1893     		str	r3, [sp, #96]
  61:src/system/tim.c ****   {
 691              		.loc 1 61 3 is_stmt 1 view .LVU230
  61:src/system/tim.c ****   {
 692              		.loc 1 61 7 is_stmt 0 view .LVU231
 693 0050 3848     		ldr	r0, .L45
 694 0052 18A9     		add	r1, sp, #96
 695 0054 FFF7FEFF 		bl	HAL_TIM_ConfigClockSource
 696              	.LVL24:
  61:src/system/tim.c ****   {
 697              		.loc 1 61 6 view .LVU232
 698 0058 0028     		cmp	r0, #0
 699 005a 53D1     		bne	.L37
 700              	.L28:
  65:src/system/tim.c ****   {
 701              		.loc 1 65 3 is_stmt 1 view .LVU233
  65:src/system/tim.c ****   {
 702              		.loc 1 65 7 is_stmt 0 view .LVU234
 703 005c 3548     		ldr	r0, .L45
 704 005e FFF7FEFF 		bl	HAL_TIM_PWM_Init
 705              	.LVL25:
  65:src/system/tim.c ****   {
 706              		.loc 1 65 6 view .LVU235
 707 0062 0028     		cmp	r0, #0
 708 0064 51D1     		bne	.L38
 709              	.L29:
  69:src/system/tim.c ****   sMasterConfig.MasterOutputTrigger2 = TIM_TRGO2_RESET;
 710              		.loc 1 69 3 is_stmt 1 view .LVU236
  69:src/system/tim.c ****   sMasterConfig.MasterOutputTrigger2 = TIM_TRGO2_RESET;
 711              		.loc 1 69 37 is_stmt 0 view .LVU237
 712 0066 0023     		movs	r3, #0
 713 0068 1593     		str	r3, [sp, #84]
  70:src/system/tim.c ****   sMasterConfig.MasterSlaveMode = TIM_MASTERSLAVEMODE_DISABLE;
 714              		.loc 1 70 3 is_stmt 1 view .LVU238
  70:src/system/tim.c ****   sMasterConfig.MasterSlaveMode = TIM_MASTERSLAVEMODE_DISABLE;
 715              		.loc 1 70 38 is_stmt 0 view .LVU239
 716 006a 1693     		str	r3, [sp, #88]
  71:src/system/tim.c ****   if (HAL_TIMEx_MasterConfigSynchronization(&htim1, &sMasterConfig) != HAL_OK)
 717              		.loc 1 71 3 is_stmt 1 view .LVU240
  71:src/system/tim.c ****   if (HAL_TIMEx_MasterConfigSynchronization(&htim1, &sMasterConfig) != HAL_OK)
 718              		.loc 1 71 33 is_stmt 0 view .LVU241
 719 006c 1793     		str	r3, [sp, #92]
  72:src/system/tim.c ****   {
 720              		.loc 1 72 3 is_stmt 1 view .LVU242
  72:src/system/tim.c ****   {
 721              		.loc 1 72 7 is_stmt 0 view .LVU243
 722 006e 3148     		ldr	r0, .L45
 723 0070 15A9     		add	r1, sp, #84
 724 0072 FFF7FEFF 		bl	HAL_TIMEx_MasterConfigSynchronization
 725              	.LVL26:
  72:src/system/tim.c ****   {
 726              		.loc 1 72 6 view .LVU244
 727 0076 0028     		cmp	r0, #0
 728 0078 4AD1     		bne	.L39
 729              	.L30:
  76:src/system/tim.c ****   sConfigOC.Pulse = 0;
ARM GAS  /tmp/ccyMvrGT.s 			page 27


 730              		.loc 1 76 3 is_stmt 1 view .LVU245
  76:src/system/tim.c ****   sConfigOC.Pulse = 0;
 731              		.loc 1 76 20 is_stmt 0 view .LVU246
 732 007a 6023     		movs	r3, #96
 733 007c 0E93     		str	r3, [sp, #56]
  77:src/system/tim.c ****   sConfigOC.OCPolarity = TIM_OCPOLARITY_HIGH;
 734              		.loc 1 77 3 is_stmt 1 view .LVU247
  77:src/system/tim.c ****   sConfigOC.OCPolarity = TIM_OCPOLARITY_HIGH;
 735              		.loc 1 77 19 is_stmt 0 view .LVU248
 736 007e 0023     		movs	r3, #0
 737 0080 0F93     		str	r3, [sp, #60]
  78:src/system/tim.c ****   sConfigOC.OCNPolarity = TIM_OCNPOLARITY_HIGH;
 738              		.loc 1 78 3 is_stmt 1 view .LVU249
  78:src/system/tim.c ****   sConfigOC.OCNPolarity = TIM_OCNPOLARITY_HIGH;
 739              		.loc 1 78 24 is_stmt 0 view .LVU250
 740 0082 1093     		str	r3, [sp, #64]
  79:src/system/tim.c ****   sConfigOC.OCFastMode = TIM_OCFAST_DISABLE;
 741              		.loc 1 79 3 is_stmt 1 view .LVU251
  79:src/system/tim.c ****   sConfigOC.OCFastMode = TIM_OCFAST_DISABLE;
 742              		.loc 1 79 25 is_stmt 0 view .LVU252
 743 0084 1193     		str	r3, [sp, #68]
  80:src/system/tim.c ****   sConfigOC.OCIdleState = TIM_OCIDLESTATE_RESET;
 744              		.loc 1 80 3 is_stmt 1 view .LVU253
  80:src/system/tim.c ****   sConfigOC.OCIdleState = TIM_OCIDLESTATE_RESET;
 745              		.loc 1 80 24 is_stmt 0 view .LVU254
 746 0086 1293     		str	r3, [sp, #72]
  81:src/system/tim.c ****   sConfigOC.OCNIdleState = TIM_OCNIDLESTATE_RESET;
 747              		.loc 1 81 3 is_stmt 1 view .LVU255
  81:src/system/tim.c ****   sConfigOC.OCNIdleState = TIM_OCNIDLESTATE_RESET;
 748              		.loc 1 81 25 is_stmt 0 view .LVU256
 749 0088 1393     		str	r3, [sp, #76]
  82:src/system/tim.c ****   if (HAL_TIM_PWM_ConfigChannel(&htim1, &sConfigOC, TIM_CHANNEL_1) != HAL_OK)
 750              		.loc 1 82 3 is_stmt 1 view .LVU257
  82:src/system/tim.c ****   if (HAL_TIM_PWM_ConfigChannel(&htim1, &sConfigOC, TIM_CHANNEL_1) != HAL_OK)
 751              		.loc 1 82 26 is_stmt 0 view .LVU258
 752 008a 1493     		str	r3, [sp, #80]
  83:src/system/tim.c ****   {
 753              		.loc 1 83 3 is_stmt 1 view .LVU259
  83:src/system/tim.c ****   {
 754              		.loc 1 83 7 is_stmt 0 view .LVU260
 755 008c 2948     		ldr	r0, .L45
 756 008e 0022     		movs	r2, #0
 757 0090 0EA9     		add	r1, sp, #56
 758 0092 FFF7FEFF 		bl	HAL_TIM_PWM_ConfigChannel
 759              	.LVL27:
  83:src/system/tim.c ****   {
 760              		.loc 1 83 6 view .LVU261
 761 0096 0028     		cmp	r0, #0
 762 0098 3DD1     		bne	.L40
 763              	.L31:
  87:src/system/tim.c ****   {
 764              		.loc 1 87 3 is_stmt 1 view .LVU262
  87:src/system/tim.c ****   {
 765              		.loc 1 87 7 is_stmt 0 view .LVU263
 766 009a 2648     		ldr	r0, .L45
 767 009c 0422     		movs	r2, #4
 768 009e 0EA9     		add	r1, sp, #56
ARM GAS  /tmp/ccyMvrGT.s 			page 28


 769 00a0 FFF7FEFF 		bl	HAL_TIM_PWM_ConfigChannel
 770              	.LVL28:
  87:src/system/tim.c ****   {
 771              		.loc 1 87 6 view .LVU264
 772 00a4 0028     		cmp	r0, #0
 773 00a6 39D1     		bne	.L41
 774              	.L32:
  91:src/system/tim.c ****   {
 775              		.loc 1 91 3 is_stmt 1 view .LVU265
  91:src/system/tim.c ****   {
 776              		.loc 1 91 7 is_stmt 0 view .LVU266
 777 00a8 2248     		ldr	r0, .L45
 778 00aa 0822     		movs	r2, #8
 779 00ac 0EA9     		add	r1, sp, #56
 780 00ae FFF7FEFF 		bl	HAL_TIM_PWM_ConfigChannel
 781              	.LVL29:
  91:src/system/tim.c ****   {
 782              		.loc 1 91 6 view .LVU267
 783 00b2 0028     		cmp	r0, #0
 784 00b4 35D1     		bne	.L42
 785              	.L33:
  95:src/system/tim.c ****   {
 786              		.loc 1 95 3 is_stmt 1 view .LVU268
  95:src/system/tim.c ****   {
 787              		.loc 1 95 7 is_stmt 0 view .LVU269
 788 00b6 1F48     		ldr	r0, .L45
 789 00b8 0C22     		movs	r2, #12
 790 00ba 0EA9     		add	r1, sp, #56
 791 00bc FFF7FEFF 		bl	HAL_TIM_PWM_ConfigChannel
 792              	.LVL30:
  95:src/system/tim.c ****   {
 793              		.loc 1 95 6 view .LVU270
 794 00c0 0028     		cmp	r0, #0
 795 00c2 31D1     		bne	.L43
 796              	.L34:
  99:src/system/tim.c ****   sBreakDeadTimeConfig.OffStateIDLEMode = TIM_OSSI_DISABLE;
 797              		.loc 1 99 3 is_stmt 1 view .LVU271
  99:src/system/tim.c ****   sBreakDeadTimeConfig.OffStateIDLEMode = TIM_OSSI_DISABLE;
 798              		.loc 1 99 40 is_stmt 0 view .LVU272
 799 00c4 0023     		movs	r3, #0
 800 00c6 0193     		str	r3, [sp, #4]
 100:src/system/tim.c ****   sBreakDeadTimeConfig.LockLevel = TIM_LOCKLEVEL_OFF;
 801              		.loc 1 100 3 is_stmt 1 view .LVU273
 100:src/system/tim.c ****   sBreakDeadTimeConfig.LockLevel = TIM_LOCKLEVEL_OFF;
 802              		.loc 1 100 41 is_stmt 0 view .LVU274
 803 00c8 0293     		str	r3, [sp, #8]
 101:src/system/tim.c ****   sBreakDeadTimeConfig.DeadTime = 0;
 804              		.loc 1 101 3 is_stmt 1 view .LVU275
 101:src/system/tim.c ****   sBreakDeadTimeConfig.DeadTime = 0;
 805              		.loc 1 101 34 is_stmt 0 view .LVU276
 806 00ca 0393     		str	r3, [sp, #12]
 102:src/system/tim.c ****   sBreakDeadTimeConfig.BreakState = TIM_BREAK_DISABLE;
 807              		.loc 1 102 3 is_stmt 1 view .LVU277
 102:src/system/tim.c ****   sBreakDeadTimeConfig.BreakState = TIM_BREAK_DISABLE;
 808              		.loc 1 102 33 is_stmt 0 view .LVU278
 809 00cc 0493     		str	r3, [sp, #16]
 103:src/system/tim.c ****   sBreakDeadTimeConfig.BreakPolarity = TIM_BREAKPOLARITY_HIGH;
ARM GAS  /tmp/ccyMvrGT.s 			page 29


 810              		.loc 1 103 3 is_stmt 1 view .LVU279
 103:src/system/tim.c ****   sBreakDeadTimeConfig.BreakPolarity = TIM_BREAKPOLARITY_HIGH;
 811              		.loc 1 103 35 is_stmt 0 view .LVU280
 812 00ce 0593     		str	r3, [sp, #20]
 104:src/system/tim.c ****   sBreakDeadTimeConfig.BreakFilter = 0;
 813              		.loc 1 104 3 is_stmt 1 view .LVU281
 104:src/system/tim.c ****   sBreakDeadTimeConfig.BreakFilter = 0;
 814              		.loc 1 104 38 is_stmt 0 view .LVU282
 815 00d0 8022     		movs	r2, #128
 816 00d2 9201     		lsls	r2, r2, #6
 817 00d4 0692     		str	r2, [sp, #24]
 105:src/system/tim.c ****   sBreakDeadTimeConfig.BreakAFMode = TIM_BREAK_AFMODE_INPUT;
 818              		.loc 1 105 3 is_stmt 1 view .LVU283
 105:src/system/tim.c ****   sBreakDeadTimeConfig.BreakAFMode = TIM_BREAK_AFMODE_INPUT;
 819              		.loc 1 105 36 is_stmt 0 view .LVU284
 820 00d6 0793     		str	r3, [sp, #28]
 106:src/system/tim.c ****   sBreakDeadTimeConfig.Break2State = TIM_BREAK2_DISABLE;
 821              		.loc 1 106 3 is_stmt 1 view .LVU285
 106:src/system/tim.c ****   sBreakDeadTimeConfig.Break2State = TIM_BREAK2_DISABLE;
 822              		.loc 1 106 36 is_stmt 0 view .LVU286
 823 00d8 0893     		str	r3, [sp, #32]
 107:src/system/tim.c ****   sBreakDeadTimeConfig.Break2Polarity = TIM_BREAK2POLARITY_HIGH;
 824              		.loc 1 107 3 is_stmt 1 view .LVU287
 107:src/system/tim.c ****   sBreakDeadTimeConfig.Break2Polarity = TIM_BREAK2POLARITY_HIGH;
 825              		.loc 1 107 36 is_stmt 0 view .LVU288
 826 00da 0993     		str	r3, [sp, #36]
 108:src/system/tim.c ****   sBreakDeadTimeConfig.Break2Filter = 0;
 827              		.loc 1 108 3 is_stmt 1 view .LVU289
 108:src/system/tim.c ****   sBreakDeadTimeConfig.Break2Filter = 0;
 828              		.loc 1 108 39 is_stmt 0 view .LVU290
 829 00dc 8022     		movs	r2, #128
 830 00de 9204     		lsls	r2, r2, #18
 831 00e0 0A92     		str	r2, [sp, #40]
 109:src/system/tim.c ****   sBreakDeadTimeConfig.Break2AFMode = TIM_BREAK_AFMODE_INPUT;
 832              		.loc 1 109 3 is_stmt 1 view .LVU291
 109:src/system/tim.c ****   sBreakDeadTimeConfig.Break2AFMode = TIM_BREAK_AFMODE_INPUT;
 833              		.loc 1 109 37 is_stmt 0 view .LVU292
 834 00e2 0B93     		str	r3, [sp, #44]
 110:src/system/tim.c ****   sBreakDeadTimeConfig.AutomaticOutput = TIM_AUTOMATICOUTPUT_DISABLE;
 835              		.loc 1 110 3 is_stmt 1 view .LVU293
 110:src/system/tim.c ****   sBreakDeadTimeConfig.AutomaticOutput = TIM_AUTOMATICOUTPUT_DISABLE;
 836              		.loc 1 110 37 is_stmt 0 view .LVU294
 837 00e4 0C93     		str	r3, [sp, #48]
 111:src/system/tim.c ****   if (HAL_TIMEx_ConfigBreakDeadTime(&htim1, &sBreakDeadTimeConfig) != HAL_OK)
 838              		.loc 1 111 3 is_stmt 1 view .LVU295
 111:src/system/tim.c ****   if (HAL_TIMEx_ConfigBreakDeadTime(&htim1, &sBreakDeadTimeConfig) != HAL_OK)
 839              		.loc 1 111 40 is_stmt 0 view .LVU296
 840 00e6 0D93     		str	r3, [sp, #52]
 112:src/system/tim.c ****   {
 841              		.loc 1 112 3 is_stmt 1 view .LVU297
 112:src/system/tim.c ****   {
 842              		.loc 1 112 7 is_stmt 0 view .LVU298
 843 00e8 1248     		ldr	r0, .L45
 844 00ea 01A9     		add	r1, sp, #4
 845 00ec FFF7FEFF 		bl	HAL_TIMEx_ConfigBreakDeadTime
 846              	.LVL31:
 112:src/system/tim.c ****   {
ARM GAS  /tmp/ccyMvrGT.s 			page 30


 847              		.loc 1 112 6 view .LVU299
 848 00f0 0028     		cmp	r0, #0
 849 00f2 1CD1     		bne	.L44
 850              	.L35:
 119:src/system/tim.c **** 
 851              		.loc 1 119 3 is_stmt 1 view .LVU300
 852 00f4 0F48     		ldr	r0, .L45
 853 00f6 FFF7FEFF 		bl	HAL_TIM_MspPostInit
 854              	.LVL32:
 121:src/system/tim.c **** /* TIM3 init function */
 855              		.loc 1 121 1 is_stmt 0 view .LVU301
 856 00fa 1DB0     		add	sp, sp, #116
 857              		@ sp needed
 858 00fc 00BD     		pop	{pc}
 859              	.L36:
  58:src/system/tim.c ****   }
 860              		.loc 1 58 5 is_stmt 1 view .LVU302
 861 00fe FFF7FEFF 		bl	Error_Handler
 862              	.LVL33:
 863 0102 A2E7     		b	.L27
 864              	.L37:
  63:src/system/tim.c ****   }
 865              		.loc 1 63 5 view .LVU303
 866 0104 FFF7FEFF 		bl	Error_Handler
 867              	.LVL34:
 868 0108 A8E7     		b	.L28
 869              	.L38:
  67:src/system/tim.c ****   }
 870              		.loc 1 67 5 view .LVU304
 871 010a FFF7FEFF 		bl	Error_Handler
 872              	.LVL35:
 873 010e AAE7     		b	.L29
 874              	.L39:
  74:src/system/tim.c ****   }
 875              		.loc 1 74 5 view .LVU305
 876 0110 FFF7FEFF 		bl	Error_Handler
 877              	.LVL36:
 878 0114 B1E7     		b	.L30
 879              	.L40:
  85:src/system/tim.c ****   }
 880              		.loc 1 85 5 view .LVU306
 881 0116 FFF7FEFF 		bl	Error_Handler
 882              	.LVL37:
 883 011a BEE7     		b	.L31
 884              	.L41:
  89:src/system/tim.c ****   }
 885              		.loc 1 89 5 view .LVU307
 886 011c FFF7FEFF 		bl	Error_Handler
 887              	.LVL38:
 888 0120 C2E7     		b	.L32
 889              	.L42:
  93:src/system/tim.c ****   }
 890              		.loc 1 93 5 view .LVU308
 891 0122 FFF7FEFF 		bl	Error_Handler
 892              	.LVL39:
 893 0126 C6E7     		b	.L33
 894              	.L43:
ARM GAS  /tmp/ccyMvrGT.s 			page 31


  97:src/system/tim.c ****   }
 895              		.loc 1 97 5 view .LVU309
 896 0128 FFF7FEFF 		bl	Error_Handler
 897              	.LVL40:
 898 012c CAE7     		b	.L34
 899              	.L44:
 114:src/system/tim.c ****   }
 900              		.loc 1 114 5 view .LVU310
 901 012e FFF7FEFF 		bl	Error_Handler
 902              	.LVL41:
 903 0132 DFE7     		b	.L35
 904              	.L46:
 905              		.align	2
 906              	.L45:
 907 0134 00000000 		.word	htim1
 908 0138 002C0140 		.word	1073818624
 909 013c FFFF0000 		.word	65535
 910              		.cfi_endproc
 911              	.LFE214:
 913              		.section	.text.MX_TIM3_Init,"ax",%progbits
 914              		.align	1
 915              		.global	MX_TIM3_Init
 916              		.syntax unified
 917              		.code	16
 918              		.thumb_func
 920              	MX_TIM3_Init:
 921              	.LFB215:
 124:src/system/tim.c **** 
 922              		.loc 1 124 1 view -0
 923              		.cfi_startproc
 924              		@ args = 0, pretend = 0, frame = 56
 925              		@ frame_needed = 0, uses_anonymous_args = 0
 926 0000 00B5     		push	{lr}
 927              	.LCFI5:
 928              		.cfi_def_cfa_offset 4
 929              		.cfi_offset 14, -4
 930 0002 8FB0     		sub	sp, sp, #60
 931              	.LCFI6:
 932              		.cfi_def_cfa_offset 64
 130:src/system/tim.c ****   TIM_MasterConfigTypeDef sMasterConfig = {0};
 933              		.loc 1 130 3 view .LVU312
 130:src/system/tim.c ****   TIM_MasterConfigTypeDef sMasterConfig = {0};
 934              		.loc 1 130 26 is_stmt 0 view .LVU313
 935 0004 1022     		movs	r2, #16
 936 0006 0021     		movs	r1, #0
 937 0008 0AA8     		add	r0, sp, #40
 938 000a FFF7FEFF 		bl	memset
 939              	.LVL42:
 131:src/system/tim.c ****   TIM_OC_InitTypeDef sConfigOC = {0};
 940              		.loc 1 131 3 is_stmt 1 view .LVU314
 131:src/system/tim.c ****   TIM_OC_InitTypeDef sConfigOC = {0};
 941              		.loc 1 131 27 is_stmt 0 view .LVU315
 942 000e 0C22     		movs	r2, #12
 943 0010 0021     		movs	r1, #0
 944 0012 07A8     		add	r0, sp, #28
 945 0014 FFF7FEFF 		bl	memset
 946              	.LVL43:
ARM GAS  /tmp/ccyMvrGT.s 			page 32


 132:src/system/tim.c **** 
 947              		.loc 1 132 3 is_stmt 1 view .LVU316
 132:src/system/tim.c **** 
 948              		.loc 1 132 22 is_stmt 0 view .LVU317
 949 0018 1C22     		movs	r2, #28
 950 001a 0021     		movs	r1, #0
 951 001c 6846     		mov	r0, sp
 952 001e FFF7FEFF 		bl	memset
 953              	.LVL44:
 137:src/system/tim.c ****   htim3.Init.Prescaler = 0;
 954              		.loc 1 137 3 is_stmt 1 view .LVU318
 137:src/system/tim.c ****   htim3.Init.Prescaler = 0;
 955              		.loc 1 137 18 is_stmt 0 view .LVU319
 956 0022 3248     		ldr	r0, .L64
 957 0024 324B     		ldr	r3, .L64+4
 958 0026 0360     		str	r3, [r0]
 138:src/system/tim.c ****   htim3.Init.CounterMode = TIM_COUNTERMODE_UP;
 959              		.loc 1 138 3 is_stmt 1 view .LVU320
 138:src/system/tim.c ****   htim3.Init.CounterMode = TIM_COUNTERMODE_UP;
 960              		.loc 1 138 24 is_stmt 0 view .LVU321
 961 0028 0023     		movs	r3, #0
 962 002a 4360     		str	r3, [r0, #4]
 139:src/system/tim.c ****   htim3.Init.Period = 65535;
 963              		.loc 1 139 3 is_stmt 1 view .LVU322
 139:src/system/tim.c ****   htim3.Init.Period = 65535;
 964              		.loc 1 139 26 is_stmt 0 view .LVU323
 965 002c 8360     		str	r3, [r0, #8]
 140:src/system/tim.c ****   htim3.Init.ClockDivision = TIM_CLOCKDIVISION_DIV1;
 966              		.loc 1 140 3 is_stmt 1 view .LVU324
 140:src/system/tim.c ****   htim3.Init.ClockDivision = TIM_CLOCKDIVISION_DIV1;
 967              		.loc 1 140 21 is_stmt 0 view .LVU325
 968 002e 314A     		ldr	r2, .L64+8
 969 0030 C260     		str	r2, [r0, #12]
 141:src/system/tim.c ****   htim3.Init.AutoReloadPreload = TIM_AUTORELOAD_PRELOAD_DISABLE;
 970              		.loc 1 141 3 is_stmt 1 view .LVU326
 141:src/system/tim.c ****   htim3.Init.AutoReloadPreload = TIM_AUTORELOAD_PRELOAD_DISABLE;
 971              		.loc 1 141 28 is_stmt 0 view .LVU327
 972 0032 0361     		str	r3, [r0, #16]
 142:src/system/tim.c ****   if (HAL_TIM_Base_Init(&htim3) != HAL_OK)
 973              		.loc 1 142 3 is_stmt 1 view .LVU328
 142:src/system/tim.c ****   if (HAL_TIM_Base_Init(&htim3) != HAL_OK)
 974              		.loc 1 142 32 is_stmt 0 view .LVU329
 975 0034 8361     		str	r3, [r0, #24]
 143:src/system/tim.c ****   {
 976              		.loc 1 143 3 is_stmt 1 view .LVU330
 143:src/system/tim.c ****   {
 977              		.loc 1 143 7 is_stmt 0 view .LVU331
 978 0036 FFF7FEFF 		bl	HAL_TIM_Base_Init
 979              	.LVL45:
 143:src/system/tim.c ****   {
 980              		.loc 1 143 6 view .LVU332
 981 003a 0028     		cmp	r0, #0
 982 003c 3DD1     		bne	.L56
 983              	.L48:
 147:src/system/tim.c ****   if (HAL_TIM_ConfigClockSource(&htim3, &sClockSourceConfig) != HAL_OK)
 984              		.loc 1 147 3 is_stmt 1 view .LVU333
 147:src/system/tim.c ****   if (HAL_TIM_ConfigClockSource(&htim3, &sClockSourceConfig) != HAL_OK)
ARM GAS  /tmp/ccyMvrGT.s 			page 33


 985              		.loc 1 147 34 is_stmt 0 view .LVU334
 986 003e 8023     		movs	r3, #128
 987 0040 5B01     		lsls	r3, r3, #5
 988 0042 0A93     		str	r3, [sp, #40]
 148:src/system/tim.c ****   {
 989              		.loc 1 148 3 is_stmt 1 view .LVU335
 148:src/system/tim.c ****   {
 990              		.loc 1 148 7 is_stmt 0 view .LVU336
 991 0044 2948     		ldr	r0, .L64
 992 0046 0AA9     		add	r1, sp, #40
 993 0048 FFF7FEFF 		bl	HAL_TIM_ConfigClockSource
 994              	.LVL46:
 148:src/system/tim.c ****   {
 995              		.loc 1 148 6 view .LVU337
 996 004c 0028     		cmp	r0, #0
 997 004e 37D1     		bne	.L57
 998              	.L49:
 152:src/system/tim.c ****   {
 999              		.loc 1 152 3 is_stmt 1 view .LVU338
 152:src/system/tim.c ****   {
 1000              		.loc 1 152 7 is_stmt 0 view .LVU339
 1001 0050 2648     		ldr	r0, .L64
 1002 0052 FFF7FEFF 		bl	HAL_TIM_PWM_Init
 1003              	.LVL47:
 152:src/system/tim.c ****   {
 1004              		.loc 1 152 6 view .LVU340
 1005 0056 0028     		cmp	r0, #0
 1006 0058 35D1     		bne	.L58
 1007              	.L50:
 156:src/system/tim.c ****   sMasterConfig.MasterSlaveMode = TIM_MASTERSLAVEMODE_DISABLE;
 1008              		.loc 1 156 3 is_stmt 1 view .LVU341
 156:src/system/tim.c ****   sMasterConfig.MasterSlaveMode = TIM_MASTERSLAVEMODE_DISABLE;
 1009              		.loc 1 156 37 is_stmt 0 view .LVU342
 1010 005a 0023     		movs	r3, #0
 1011 005c 0793     		str	r3, [sp, #28]
 157:src/system/tim.c ****   if (HAL_TIMEx_MasterConfigSynchronization(&htim3, &sMasterConfig) != HAL_OK)
 1012              		.loc 1 157 3 is_stmt 1 view .LVU343
 157:src/system/tim.c ****   if (HAL_TIMEx_MasterConfigSynchronization(&htim3, &sMasterConfig) != HAL_OK)
 1013              		.loc 1 157 33 is_stmt 0 view .LVU344
 1014 005e 0993     		str	r3, [sp, #36]
 158:src/system/tim.c ****   {
 1015              		.loc 1 158 3 is_stmt 1 view .LVU345
 158:src/system/tim.c ****   {
 1016              		.loc 1 158 7 is_stmt 0 view .LVU346
 1017 0060 2248     		ldr	r0, .L64
 1018 0062 07A9     		add	r1, sp, #28
 1019 0064 FFF7FEFF 		bl	HAL_TIMEx_MasterConfigSynchronization
 1020              	.LVL48:
 158:src/system/tim.c ****   {
 1021              		.loc 1 158 6 view .LVU347
 1022 0068 0028     		cmp	r0, #0
 1023 006a 2FD1     		bne	.L59
 1024              	.L51:
 162:src/system/tim.c ****   sConfigOC.Pulse = 0;
 1025              		.loc 1 162 3 is_stmt 1 view .LVU348
 162:src/system/tim.c ****   sConfigOC.Pulse = 0;
 1026              		.loc 1 162 20 is_stmt 0 view .LVU349
ARM GAS  /tmp/ccyMvrGT.s 			page 34


 1027 006c 6023     		movs	r3, #96
 1028 006e 0093     		str	r3, [sp]
 163:src/system/tim.c ****   sConfigOC.OCPolarity = TIM_OCPOLARITY_HIGH;
 1029              		.loc 1 163 3 is_stmt 1 view .LVU350
 163:src/system/tim.c ****   sConfigOC.OCPolarity = TIM_OCPOLARITY_HIGH;
 1030              		.loc 1 163 19 is_stmt 0 view .LVU351
 1031 0070 0023     		movs	r3, #0
 1032 0072 0193     		str	r3, [sp, #4]
 164:src/system/tim.c ****   sConfigOC.OCFastMode = TIM_OCFAST_DISABLE;
 1033              		.loc 1 164 3 is_stmt 1 view .LVU352
 164:src/system/tim.c ****   sConfigOC.OCFastMode = TIM_OCFAST_DISABLE;
 1034              		.loc 1 164 24 is_stmt 0 view .LVU353
 1035 0074 0293     		str	r3, [sp, #8]
 165:src/system/tim.c ****   if (HAL_TIM_PWM_ConfigChannel(&htim3, &sConfigOC, TIM_CHANNEL_1) != HAL_OK)
 1036              		.loc 1 165 3 is_stmt 1 view .LVU354
 165:src/system/tim.c ****   if (HAL_TIM_PWM_ConfigChannel(&htim3, &sConfigOC, TIM_CHANNEL_1) != HAL_OK)
 1037              		.loc 1 165 24 is_stmt 0 view .LVU355
 1038 0076 0493     		str	r3, [sp, #16]
 166:src/system/tim.c ****   {
 1039              		.loc 1 166 3 is_stmt 1 view .LVU356
 166:src/system/tim.c ****   {
 1040              		.loc 1 166 7 is_stmt 0 view .LVU357
 1041 0078 1C48     		ldr	r0, .L64
 1042 007a 0022     		movs	r2, #0
 1043 007c 6946     		mov	r1, sp
 1044 007e FFF7FEFF 		bl	HAL_TIM_PWM_ConfigChannel
 1045              	.LVL49:
 166:src/system/tim.c ****   {
 1046              		.loc 1 166 6 view .LVU358
 1047 0082 0028     		cmp	r0, #0
 1048 0084 25D1     		bne	.L60
 1049              	.L52:
 170:src/system/tim.c ****   {
 1050              		.loc 1 170 3 is_stmt 1 view .LVU359
 170:src/system/tim.c ****   {
 1051              		.loc 1 170 7 is_stmt 0 view .LVU360
 1052 0086 1948     		ldr	r0, .L64
 1053 0088 0422     		movs	r2, #4
 1054 008a 6946     		mov	r1, sp
 1055 008c FFF7FEFF 		bl	HAL_TIM_PWM_ConfigChannel
 1056              	.LVL50:
 170:src/system/tim.c ****   {
 1057              		.loc 1 170 6 view .LVU361
 1058 0090 0028     		cmp	r0, #0
 1059 0092 21D1     		bne	.L61
 1060              	.L53:
 174:src/system/tim.c ****   {
 1061              		.loc 1 174 3 is_stmt 1 view .LVU362
 174:src/system/tim.c ****   {
 1062              		.loc 1 174 7 is_stmt 0 view .LVU363
 1063 0094 1548     		ldr	r0, .L64
 1064 0096 0822     		movs	r2, #8
 1065 0098 6946     		mov	r1, sp
 1066 009a FFF7FEFF 		bl	HAL_TIM_PWM_ConfigChannel
 1067              	.LVL51:
 174:src/system/tim.c ****   {
 1068              		.loc 1 174 6 view .LVU364
ARM GAS  /tmp/ccyMvrGT.s 			page 35


 1069 009e 0028     		cmp	r0, #0
 1070 00a0 1DD1     		bne	.L62
 1071              	.L54:
 178:src/system/tim.c ****   {
 1072              		.loc 1 178 3 is_stmt 1 view .LVU365
 178:src/system/tim.c ****   {
 1073              		.loc 1 178 7 is_stmt 0 view .LVU366
 1074 00a2 1248     		ldr	r0, .L64
 1075 00a4 0C22     		movs	r2, #12
 1076 00a6 6946     		mov	r1, sp
 1077 00a8 FFF7FEFF 		bl	HAL_TIM_PWM_ConfigChannel
 1078              	.LVL52:
 178:src/system/tim.c ****   {
 1079              		.loc 1 178 6 view .LVU367
 1080 00ac 0028     		cmp	r0, #0
 1081 00ae 19D1     		bne	.L63
 1082              	.L55:
 185:src/system/tim.c **** 
 1083              		.loc 1 185 3 is_stmt 1 view .LVU368
 1084 00b0 0E48     		ldr	r0, .L64
 1085 00b2 FFF7FEFF 		bl	HAL_TIM_MspPostInit
 1086              	.LVL53:
 187:src/system/tim.c **** /* TIM14 init function */
 1087              		.loc 1 187 1 is_stmt 0 view .LVU369
 1088 00b6 0FB0     		add	sp, sp, #60
 1089              		@ sp needed
 1090 00b8 00BD     		pop	{pc}
 1091              	.L56:
 145:src/system/tim.c ****   }
 1092              		.loc 1 145 5 is_stmt 1 view .LVU370
 1093 00ba FFF7FEFF 		bl	Error_Handler
 1094              	.LVL54:
 1095 00be BEE7     		b	.L48
 1096              	.L57:
 150:src/system/tim.c ****   }
 1097              		.loc 1 150 5 view .LVU371
 1098 00c0 FFF7FEFF 		bl	Error_Handler
 1099              	.LVL55:
 1100 00c4 C4E7     		b	.L49
 1101              	.L58:
 154:src/system/tim.c ****   }
 1102              		.loc 1 154 5 view .LVU372
 1103 00c6 FFF7FEFF 		bl	Error_Handler
 1104              	.LVL56:
 1105 00ca C6E7     		b	.L50
 1106              	.L59:
 160:src/system/tim.c ****   }
 1107              		.loc 1 160 5 view .LVU373
 1108 00cc FFF7FEFF 		bl	Error_Handler
 1109              	.LVL57:
 1110 00d0 CCE7     		b	.L51
 1111              	.L60:
 168:src/system/tim.c ****   }
 1112              		.loc 1 168 5 view .LVU374
 1113 00d2 FFF7FEFF 		bl	Error_Handler
 1114              	.LVL58:
 1115 00d6 D6E7     		b	.L52
ARM GAS  /tmp/ccyMvrGT.s 			page 36


 1116              	.L61:
 172:src/system/tim.c ****   }
 1117              		.loc 1 172 5 view .LVU375
 1118 00d8 FFF7FEFF 		bl	Error_Handler
 1119              	.LVL59:
 1120 00dc DAE7     		b	.L53
 1121              	.L62:
 176:src/system/tim.c ****   }
 1122              		.loc 1 176 5 view .LVU376
 1123 00de FFF7FEFF 		bl	Error_Handler
 1124              	.LVL60:
 1125 00e2 DEE7     		b	.L54
 1126              	.L63:
 180:src/system/tim.c ****   }
 1127              		.loc 1 180 5 view .LVU377
 1128 00e4 FFF7FEFF 		bl	Error_Handler
 1129              	.LVL61:
 1130 00e8 E2E7     		b	.L55
 1131              	.L65:
 1132 00ea C046     		.align	2
 1133              	.L64:
 1134 00ec 00000000 		.word	htim3
 1135 00f0 00040040 		.word	1073742848
 1136 00f4 FFFF0000 		.word	65535
 1137              		.cfi_endproc
 1138              	.LFE215:
 1140              		.section	.text.MX_TIM14_Init,"ax",%progbits
 1141              		.align	1
 1142              		.global	MX_TIM14_Init
 1143              		.syntax unified
 1144              		.code	16
 1145              		.thumb_func
 1147              	MX_TIM14_Init:
 1148              	.LFB216:
 190:src/system/tim.c **** 
 1149              		.loc 1 190 1 view -0
 1150              		.cfi_startproc
 1151              		@ args = 0, pretend = 0, frame = 32
 1152              		@ frame_needed = 0, uses_anonymous_args = 0
 1153 0000 00B5     		push	{lr}
 1154              	.LCFI7:
 1155              		.cfi_def_cfa_offset 4
 1156              		.cfi_offset 14, -4
 1157 0002 89B0     		sub	sp, sp, #36
 1158              	.LCFI8:
 1159              		.cfi_def_cfa_offset 40
 196:src/system/tim.c **** 
 1160              		.loc 1 196 3 view .LVU379
 196:src/system/tim.c **** 
 1161              		.loc 1 196 22 is_stmt 0 view .LVU380
 1162 0004 1C22     		movs	r2, #28
 1163 0006 0021     		movs	r1, #0
 1164 0008 01A8     		add	r0, sp, #4
 1165 000a FFF7FEFF 		bl	memset
 1166              	.LVL62:
 201:src/system/tim.c ****   htim14.Init.Prescaler = 0;
 1167              		.loc 1 201 3 is_stmt 1 view .LVU381
ARM GAS  /tmp/ccyMvrGT.s 			page 37


 201:src/system/tim.c ****   htim14.Init.Prescaler = 0;
 1168              		.loc 1 201 19 is_stmt 0 view .LVU382
 1169 000e 1748     		ldr	r0, .L73
 1170 0010 174B     		ldr	r3, .L73+4
 1171 0012 0360     		str	r3, [r0]
 202:src/system/tim.c ****   htim14.Init.CounterMode = TIM_COUNTERMODE_UP;
 1172              		.loc 1 202 3 is_stmt 1 view .LVU383
 202:src/system/tim.c ****   htim14.Init.CounterMode = TIM_COUNTERMODE_UP;
 1173              		.loc 1 202 25 is_stmt 0 view .LVU384
 1174 0014 0023     		movs	r3, #0
 1175 0016 4360     		str	r3, [r0, #4]
 203:src/system/tim.c ****   htim14.Init.Period = 65535;
 1176              		.loc 1 203 3 is_stmt 1 view .LVU385
 203:src/system/tim.c ****   htim14.Init.Period = 65535;
 1177              		.loc 1 203 27 is_stmt 0 view .LVU386
 1178 0018 8360     		str	r3, [r0, #8]
 204:src/system/tim.c ****   htim14.Init.ClockDivision = TIM_CLOCKDIVISION_DIV1;
 1179              		.loc 1 204 3 is_stmt 1 view .LVU387
 204:src/system/tim.c ****   htim14.Init.ClockDivision = TIM_CLOCKDIVISION_DIV1;
 1180              		.loc 1 204 22 is_stmt 0 view .LVU388
 1181 001a 164A     		ldr	r2, .L73+8
 1182 001c C260     		str	r2, [r0, #12]
 205:src/system/tim.c ****   htim14.Init.AutoReloadPreload = TIM_AUTORELOAD_PRELOAD_DISABLE;
 1183              		.loc 1 205 3 is_stmt 1 view .LVU389
 205:src/system/tim.c ****   htim14.Init.AutoReloadPreload = TIM_AUTORELOAD_PRELOAD_DISABLE;
 1184              		.loc 1 205 29 is_stmt 0 view .LVU390
 1185 001e 0361     		str	r3, [r0, #16]
 206:src/system/tim.c ****   if (HAL_TIM_Base_Init(&htim14) != HAL_OK)
 1186              		.loc 1 206 3 is_stmt 1 view .LVU391
 206:src/system/tim.c ****   if (HAL_TIM_Base_Init(&htim14) != HAL_OK)
 1187              		.loc 1 206 33 is_stmt 0 view .LVU392
 1188 0020 8361     		str	r3, [r0, #24]
 207:src/system/tim.c ****   {
 1189              		.loc 1 207 3 is_stmt 1 view .LVU393
 207:src/system/tim.c ****   {
 1190              		.loc 1 207 7 is_stmt 0 view .LVU394
 1191 0022 FFF7FEFF 		bl	HAL_TIM_Base_Init
 1192              	.LVL63:
 207:src/system/tim.c ****   {
 1193              		.loc 1 207 6 view .LVU395
 1194 0026 0028     		cmp	r0, #0
 1195 0028 16D1     		bne	.L70
 1196              	.L67:
 211:src/system/tim.c ****   {
 1197              		.loc 1 211 3 is_stmt 1 view .LVU396
 211:src/system/tim.c ****   {
 1198              		.loc 1 211 7 is_stmt 0 view .LVU397
 1199 002a 1048     		ldr	r0, .L73
 1200 002c FFF7FEFF 		bl	HAL_TIM_PWM_Init
 1201              	.LVL64:
 211:src/system/tim.c ****   {
 1202              		.loc 1 211 6 view .LVU398
 1203 0030 0028     		cmp	r0, #0
 1204 0032 14D1     		bne	.L71
 1205              	.L68:
 215:src/system/tim.c ****   sConfigOC.Pulse = 0;
 1206              		.loc 1 215 3 is_stmt 1 view .LVU399
ARM GAS  /tmp/ccyMvrGT.s 			page 38


 215:src/system/tim.c ****   sConfigOC.Pulse = 0;
 1207              		.loc 1 215 20 is_stmt 0 view .LVU400
 1208 0034 6023     		movs	r3, #96
 1209 0036 0193     		str	r3, [sp, #4]
 216:src/system/tim.c ****   sConfigOC.OCPolarity = TIM_OCPOLARITY_HIGH;
 1210              		.loc 1 216 3 is_stmt 1 view .LVU401
 216:src/system/tim.c ****   sConfigOC.OCPolarity = TIM_OCPOLARITY_HIGH;
 1211              		.loc 1 216 19 is_stmt 0 view .LVU402
 1212 0038 0023     		movs	r3, #0
 1213 003a 0293     		str	r3, [sp, #8]
 217:src/system/tim.c ****   sConfigOC.OCFastMode = TIM_OCFAST_DISABLE;
 1214              		.loc 1 217 3 is_stmt 1 view .LVU403
 217:src/system/tim.c ****   sConfigOC.OCFastMode = TIM_OCFAST_DISABLE;
 1215              		.loc 1 217 24 is_stmt 0 view .LVU404
 1216 003c 0393     		str	r3, [sp, #12]
 218:src/system/tim.c ****   if (HAL_TIM_PWM_ConfigChannel(&htim14, &sConfigOC, TIM_CHANNEL_1) != HAL_OK)
 1217              		.loc 1 218 3 is_stmt 1 view .LVU405
 218:src/system/tim.c ****   if (HAL_TIM_PWM_ConfigChannel(&htim14, &sConfigOC, TIM_CHANNEL_1) != HAL_OK)
 1218              		.loc 1 218 24 is_stmt 0 view .LVU406
 1219 003e 0593     		str	r3, [sp, #20]
 219:src/system/tim.c ****   {
 1220              		.loc 1 219 3 is_stmt 1 view .LVU407
 219:src/system/tim.c ****   {
 1221              		.loc 1 219 7 is_stmt 0 view .LVU408
 1222 0040 0A48     		ldr	r0, .L73
 1223 0042 0022     		movs	r2, #0
 1224 0044 01A9     		add	r1, sp, #4
 1225 0046 FFF7FEFF 		bl	HAL_TIM_PWM_ConfigChannel
 1226              	.LVL65:
 219:src/system/tim.c ****   {
 1227              		.loc 1 219 6 view .LVU409
 1228 004a 0028     		cmp	r0, #0
 1229 004c 0AD1     		bne	.L72
 1230              	.L69:
 226:src/system/tim.c **** 
 1231              		.loc 1 226 3 is_stmt 1 view .LVU410
 1232 004e 0748     		ldr	r0, .L73
 1233 0050 FFF7FEFF 		bl	HAL_TIM_MspPostInit
 1234              	.LVL66:
 228:src/system/tim.c **** /* TIM16 init function */
 1235              		.loc 1 228 1 is_stmt 0 view .LVU411
 1236 0054 09B0     		add	sp, sp, #36
 1237              		@ sp needed
 1238 0056 00BD     		pop	{pc}
 1239              	.L70:
 209:src/system/tim.c ****   }
 1240              		.loc 1 209 5 is_stmt 1 view .LVU412
 1241 0058 FFF7FEFF 		bl	Error_Handler
 1242              	.LVL67:
 1243 005c E5E7     		b	.L67
 1244              	.L71:
 213:src/system/tim.c ****   }
 1245              		.loc 1 213 5 view .LVU413
 1246 005e FFF7FEFF 		bl	Error_Handler
 1247              	.LVL68:
 1248 0062 E7E7     		b	.L68
 1249              	.L72:
ARM GAS  /tmp/ccyMvrGT.s 			page 39


 221:src/system/tim.c ****   }
 1250              		.loc 1 221 5 view .LVU414
 1251 0064 FFF7FEFF 		bl	Error_Handler
 1252              	.LVL69:
 1253 0068 F1E7     		b	.L69
 1254              	.L74:
 1255 006a C046     		.align	2
 1256              	.L73:
 1257 006c 00000000 		.word	htim14
 1258 0070 00200040 		.word	1073750016
 1259 0074 FFFF0000 		.word	65535
 1260              		.cfi_endproc
 1261              	.LFE216:
 1263              		.section	.text.MX_TIM16_Init,"ax",%progbits
 1264              		.align	1
 1265              		.global	MX_TIM16_Init
 1266              		.syntax unified
 1267              		.code	16
 1268              		.thumb_func
 1270              	MX_TIM16_Init:
 1271              	.LFB217:
 231:src/system/tim.c **** 
 1272              		.loc 1 231 1 view -0
 1273              		.cfi_startproc
 1274              		@ args = 0, pretend = 0, frame = 80
 1275              		@ frame_needed = 0, uses_anonymous_args = 0
 1276 0000 00B5     		push	{lr}
 1277              	.LCFI9:
 1278              		.cfi_def_cfa_offset 4
 1279              		.cfi_offset 14, -4
 1280 0002 95B0     		sub	sp, sp, #84
 1281              	.LCFI10:
 1282              		.cfi_def_cfa_offset 88
 237:src/system/tim.c ****   TIM_BreakDeadTimeConfigTypeDef sBreakDeadTimeConfig = {0};
 1283              		.loc 1 237 3 view .LVU416
 237:src/system/tim.c ****   TIM_BreakDeadTimeConfigTypeDef sBreakDeadTimeConfig = {0};
 1284              		.loc 1 237 22 is_stmt 0 view .LVU417
 1285 0004 1C22     		movs	r2, #28
 1286 0006 0021     		movs	r1, #0
 1287 0008 0DA8     		add	r0, sp, #52
 1288 000a FFF7FEFF 		bl	memset
 1289              	.LVL70:
 238:src/system/tim.c **** 
 1290              		.loc 1 238 3 is_stmt 1 view .LVU418
 238:src/system/tim.c **** 
 1291              		.loc 1 238 34 is_stmt 0 view .LVU419
 1292 000e 3422     		movs	r2, #52
 1293 0010 0021     		movs	r1, #0
 1294 0012 6846     		mov	r0, sp
 1295 0014 FFF7FEFF 		bl	memset
 1296              	.LVL71:
 243:src/system/tim.c ****   htim16.Init.Prescaler = 0;
 1297              		.loc 1 243 3 is_stmt 1 view .LVU420
 243:src/system/tim.c ****   htim16.Init.Prescaler = 0;
 1298              		.loc 1 243 19 is_stmt 0 view .LVU421
 1299 0018 2248     		ldr	r0, .L84
 1300 001a 234B     		ldr	r3, .L84+4
ARM GAS  /tmp/ccyMvrGT.s 			page 40


 1301 001c 0360     		str	r3, [r0]
 244:src/system/tim.c ****   htim16.Init.CounterMode = TIM_COUNTERMODE_UP;
 1302              		.loc 1 244 3 is_stmt 1 view .LVU422
 244:src/system/tim.c ****   htim16.Init.CounterMode = TIM_COUNTERMODE_UP;
 1303              		.loc 1 244 25 is_stmt 0 view .LVU423
 1304 001e 0023     		movs	r3, #0
 1305 0020 4360     		str	r3, [r0, #4]
 245:src/system/tim.c ****   htim16.Init.Period = 65535;
 1306              		.loc 1 245 3 is_stmt 1 view .LVU424
 245:src/system/tim.c ****   htim16.Init.Period = 65535;
 1307              		.loc 1 245 27 is_stmt 0 view .LVU425
 1308 0022 8360     		str	r3, [r0, #8]
 246:src/system/tim.c ****   htim16.Init.ClockDivision = TIM_CLOCKDIVISION_DIV1;
 1309              		.loc 1 246 3 is_stmt 1 view .LVU426
 246:src/system/tim.c ****   htim16.Init.ClockDivision = TIM_CLOCKDIVISION_DIV1;
 1310              		.loc 1 246 22 is_stmt 0 view .LVU427
 1311 0024 214A     		ldr	r2, .L84+8
 1312 0026 C260     		str	r2, [r0, #12]
 247:src/system/tim.c ****   htim16.Init.RepetitionCounter = 0;
 1313              		.loc 1 247 3 is_stmt 1 view .LVU428
 247:src/system/tim.c ****   htim16.Init.RepetitionCounter = 0;
 1314              		.loc 1 247 29 is_stmt 0 view .LVU429
 1315 0028 0361     		str	r3, [r0, #16]
 248:src/system/tim.c ****   htim16.Init.AutoReloadPreload = TIM_AUTORELOAD_PRELOAD_DISABLE;
 1316              		.loc 1 248 3 is_stmt 1 view .LVU430
 248:src/system/tim.c ****   htim16.Init.AutoReloadPreload = TIM_AUTORELOAD_PRELOAD_DISABLE;
 1317              		.loc 1 248 33 is_stmt 0 view .LVU431
 1318 002a 4361     		str	r3, [r0, #20]
 249:src/system/tim.c ****   if (HAL_TIM_Base_Init(&htim16) != HAL_OK)
 1319              		.loc 1 249 3 is_stmt 1 view .LVU432
 249:src/system/tim.c ****   if (HAL_TIM_Base_Init(&htim16) != HAL_OK)
 1320              		.loc 1 249 33 is_stmt 0 view .LVU433
 1321 002c 8361     		str	r3, [r0, #24]
 250:src/system/tim.c ****   {
 1322              		.loc 1 250 3 is_stmt 1 view .LVU434
 250:src/system/tim.c ****   {
 1323              		.loc 1 250 7 is_stmt 0 view .LVU435
 1324 002e FFF7FEFF 		bl	HAL_TIM_Base_Init
 1325              	.LVL72:
 250:src/system/tim.c ****   {
 1326              		.loc 1 250 6 view .LVU436
 1327 0032 0028     		cmp	r0, #0
 1328 0034 2AD1     		bne	.L80
 1329              	.L76:
 254:src/system/tim.c ****   {
 1330              		.loc 1 254 3 is_stmt 1 view .LVU437
 254:src/system/tim.c ****   {
 1331              		.loc 1 254 7 is_stmt 0 view .LVU438
 1332 0036 1B48     		ldr	r0, .L84
 1333 0038 FFF7FEFF 		bl	HAL_TIM_PWM_Init
 1334              	.LVL73:
 254:src/system/tim.c ****   {
 1335              		.loc 1 254 6 view .LVU439
 1336 003c 0028     		cmp	r0, #0
 1337 003e 28D1     		bne	.L81
 1338              	.L77:
 258:src/system/tim.c ****   sConfigOC.Pulse = 0;
ARM GAS  /tmp/ccyMvrGT.s 			page 41


 1339              		.loc 1 258 3 is_stmt 1 view .LVU440
 258:src/system/tim.c ****   sConfigOC.Pulse = 0;
 1340              		.loc 1 258 20 is_stmt 0 view .LVU441
 1341 0040 6023     		movs	r3, #96
 1342 0042 0D93     		str	r3, [sp, #52]
 259:src/system/tim.c ****   sConfigOC.OCPolarity = TIM_OCPOLARITY_HIGH;
 1343              		.loc 1 259 3 is_stmt 1 view .LVU442
 259:src/system/tim.c ****   sConfigOC.OCPolarity = TIM_OCPOLARITY_HIGH;
 1344              		.loc 1 259 19 is_stmt 0 view .LVU443
 1345 0044 0023     		movs	r3, #0
 1346 0046 0E93     		str	r3, [sp, #56]
 260:src/system/tim.c ****   sConfigOC.OCNPolarity = TIM_OCNPOLARITY_HIGH;
 1347              		.loc 1 260 3 is_stmt 1 view .LVU444
 260:src/system/tim.c ****   sConfigOC.OCNPolarity = TIM_OCNPOLARITY_HIGH;
 1348              		.loc 1 260 24 is_stmt 0 view .LVU445
 1349 0048 0F93     		str	r3, [sp, #60]
 261:src/system/tim.c ****   sConfigOC.OCFastMode = TIM_OCFAST_DISABLE;
 1350              		.loc 1 261 3 is_stmt 1 view .LVU446
 261:src/system/tim.c ****   sConfigOC.OCFastMode = TIM_OCFAST_DISABLE;
 1351              		.loc 1 261 25 is_stmt 0 view .LVU447
 1352 004a 1093     		str	r3, [sp, #64]
 262:src/system/tim.c ****   sConfigOC.OCIdleState = TIM_OCIDLESTATE_RESET;
 1353              		.loc 1 262 3 is_stmt 1 view .LVU448
 262:src/system/tim.c ****   sConfigOC.OCIdleState = TIM_OCIDLESTATE_RESET;
 1354              		.loc 1 262 24 is_stmt 0 view .LVU449
 1355 004c 1193     		str	r3, [sp, #68]
 263:src/system/tim.c ****   sConfigOC.OCNIdleState = TIM_OCNIDLESTATE_RESET;
 1356              		.loc 1 263 3 is_stmt 1 view .LVU450
 263:src/system/tim.c ****   sConfigOC.OCNIdleState = TIM_OCNIDLESTATE_RESET;
 1357              		.loc 1 263 25 is_stmt 0 view .LVU451
 1358 004e 1293     		str	r3, [sp, #72]
 264:src/system/tim.c ****   if (HAL_TIM_PWM_ConfigChannel(&htim16, &sConfigOC, TIM_CHANNEL_1) != HAL_OK)
 1359              		.loc 1 264 3 is_stmt 1 view .LVU452
 264:src/system/tim.c ****   if (HAL_TIM_PWM_ConfigChannel(&htim16, &sConfigOC, TIM_CHANNEL_1) != HAL_OK)
 1360              		.loc 1 264 26 is_stmt 0 view .LVU453
 1361 0050 1393     		str	r3, [sp, #76]
 265:src/system/tim.c ****   {
 1362              		.loc 1 265 3 is_stmt 1 view .LVU454
 265:src/system/tim.c ****   {
 1363              		.loc 1 265 7 is_stmt 0 view .LVU455
 1364 0052 1448     		ldr	r0, .L84
 1365 0054 0022     		movs	r2, #0
 1366 0056 0DA9     		add	r1, sp, #52
 1367 0058 FFF7FEFF 		bl	HAL_TIM_PWM_ConfigChannel
 1368              	.LVL74:
 265:src/system/tim.c ****   {
 1369              		.loc 1 265 6 view .LVU456
 1370 005c 0028     		cmp	r0, #0
 1371 005e 1BD1     		bne	.L82
 1372              	.L78:
 269:src/system/tim.c ****   sBreakDeadTimeConfig.OffStateIDLEMode = TIM_OSSI_DISABLE;
 1373              		.loc 1 269 3 is_stmt 1 view .LVU457
 269:src/system/tim.c ****   sBreakDeadTimeConfig.OffStateIDLEMode = TIM_OSSI_DISABLE;
 1374              		.loc 1 269 40 is_stmt 0 view .LVU458
 1375 0060 0023     		movs	r3, #0
 1376 0062 0093     		str	r3, [sp]
 270:src/system/tim.c ****   sBreakDeadTimeConfig.LockLevel = TIM_LOCKLEVEL_OFF;
ARM GAS  /tmp/ccyMvrGT.s 			page 42


 1377              		.loc 1 270 3 is_stmt 1 view .LVU459
 270:src/system/tim.c ****   sBreakDeadTimeConfig.LockLevel = TIM_LOCKLEVEL_OFF;
 1378              		.loc 1 270 41 is_stmt 0 view .LVU460
 1379 0064 0193     		str	r3, [sp, #4]
 271:src/system/tim.c ****   sBreakDeadTimeConfig.DeadTime = 0;
 1380              		.loc 1 271 3 is_stmt 1 view .LVU461
 271:src/system/tim.c ****   sBreakDeadTimeConfig.DeadTime = 0;
 1381              		.loc 1 271 34 is_stmt 0 view .LVU462
 1382 0066 0293     		str	r3, [sp, #8]
 272:src/system/tim.c ****   sBreakDeadTimeConfig.BreakState = TIM_BREAK_DISABLE;
 1383              		.loc 1 272 3 is_stmt 1 view .LVU463
 272:src/system/tim.c ****   sBreakDeadTimeConfig.BreakState = TIM_BREAK_DISABLE;
 1384              		.loc 1 272 33 is_stmt 0 view .LVU464
 1385 0068 0393     		str	r3, [sp, #12]
 273:src/system/tim.c ****   sBreakDeadTimeConfig.BreakPolarity = TIM_BREAKPOLARITY_HIGH;
 1386              		.loc 1 273 3 is_stmt 1 view .LVU465
 273:src/system/tim.c ****   sBreakDeadTimeConfig.BreakPolarity = TIM_BREAKPOLARITY_HIGH;
 1387              		.loc 1 273 35 is_stmt 0 view .LVU466
 1388 006a 0493     		str	r3, [sp, #16]
 274:src/system/tim.c ****   sBreakDeadTimeConfig.BreakFilter = 0;
 1389              		.loc 1 274 3 is_stmt 1 view .LVU467
 274:src/system/tim.c ****   sBreakDeadTimeConfig.BreakFilter = 0;
 1390              		.loc 1 274 38 is_stmt 0 view .LVU468
 1391 006c 8022     		movs	r2, #128
 1392 006e 9201     		lsls	r2, r2, #6
 1393 0070 0592     		str	r2, [sp, #20]
 275:src/system/tim.c ****   sBreakDeadTimeConfig.AutomaticOutput = TIM_AUTOMATICOUTPUT_DISABLE;
 1394              		.loc 1 275 3 is_stmt 1 view .LVU469
 275:src/system/tim.c ****   sBreakDeadTimeConfig.AutomaticOutput = TIM_AUTOMATICOUTPUT_DISABLE;
 1395              		.loc 1 275 36 is_stmt 0 view .LVU470
 1396 0072 0693     		str	r3, [sp, #24]
 276:src/system/tim.c ****   if (HAL_TIMEx_ConfigBreakDeadTime(&htim16, &sBreakDeadTimeConfig) != HAL_OK)
 1397              		.loc 1 276 3 is_stmt 1 view .LVU471
 276:src/system/tim.c ****   if (HAL_TIMEx_ConfigBreakDeadTime(&htim16, &sBreakDeadTimeConfig) != HAL_OK)
 1398              		.loc 1 276 40 is_stmt 0 view .LVU472
 1399 0074 0C93     		str	r3, [sp, #48]
 277:src/system/tim.c ****   {
 1400              		.loc 1 277 3 is_stmt 1 view .LVU473
 277:src/system/tim.c ****   {
 1401              		.loc 1 277 7 is_stmt 0 view .LVU474
 1402 0076 0B48     		ldr	r0, .L84
 1403 0078 6946     		mov	r1, sp
 1404 007a FFF7FEFF 		bl	HAL_TIMEx_ConfigBreakDeadTime
 1405              	.LVL75:
 277:src/system/tim.c ****   {
 1406              		.loc 1 277 6 view .LVU475
 1407 007e 0028     		cmp	r0, #0
 1408 0080 0DD1     		bne	.L83
 1409              	.L79:
 284:src/system/tim.c **** 
 1410              		.loc 1 284 3 is_stmt 1 view .LVU476
 1411 0082 0848     		ldr	r0, .L84
 1412 0084 FFF7FEFF 		bl	HAL_TIM_MspPostInit
 1413              	.LVL76:
 286:src/system/tim.c **** /* TIM17 init function */
 1414              		.loc 1 286 1 is_stmt 0 view .LVU477
 1415 0088 15B0     		add	sp, sp, #84
ARM GAS  /tmp/ccyMvrGT.s 			page 43


 1416              		@ sp needed
 1417 008a 00BD     		pop	{pc}
 1418              	.L80:
 252:src/system/tim.c ****   }
 1419              		.loc 1 252 5 is_stmt 1 view .LVU478
 1420 008c FFF7FEFF 		bl	Error_Handler
 1421              	.LVL77:
 1422 0090 D1E7     		b	.L76
 1423              	.L81:
 256:src/system/tim.c ****   }
 1424              		.loc 1 256 5 view .LVU479
 1425 0092 FFF7FEFF 		bl	Error_Handler
 1426              	.LVL78:
 1427 0096 D3E7     		b	.L77
 1428              	.L82:
 267:src/system/tim.c ****   }
 1429              		.loc 1 267 5 view .LVU480
 1430 0098 FFF7FEFF 		bl	Error_Handler
 1431              	.LVL79:
 1432 009c E0E7     		b	.L78
 1433              	.L83:
 279:src/system/tim.c ****   }
 1434              		.loc 1 279 5 view .LVU481
 1435 009e FFF7FEFF 		bl	Error_Handler
 1436              	.LVL80:
 1437 00a2 EEE7     		b	.L79
 1438              	.L85:
 1439              		.align	2
 1440              	.L84:
 1441 00a4 00000000 		.word	htim16
 1442 00a8 00440140 		.word	1073824768
 1443 00ac FFFF0000 		.word	65535
 1444              		.cfi_endproc
 1445              	.LFE217:
 1447              		.section	.text.MX_TIM17_Init,"ax",%progbits
 1448              		.align	1
 1449              		.global	MX_TIM17_Init
 1450              		.syntax unified
 1451              		.code	16
 1452              		.thumb_func
 1454              	MX_TIM17_Init:
 1455              	.LFB218:
 289:src/system/tim.c **** 
 1456              		.loc 1 289 1 view -0
 1457              		.cfi_startproc
 1458              		@ args = 0, pretend = 0, frame = 80
 1459              		@ frame_needed = 0, uses_anonymous_args = 0
 1460 0000 00B5     		push	{lr}
 1461              	.LCFI11:
 1462              		.cfi_def_cfa_offset 4
 1463              		.cfi_offset 14, -4
 1464 0002 95B0     		sub	sp, sp, #84
 1465              	.LCFI12:
 1466              		.cfi_def_cfa_offset 88
 295:src/system/tim.c ****   TIM_BreakDeadTimeConfigTypeDef sBreakDeadTimeConfig = {0};
 1467              		.loc 1 295 3 view .LVU483
 295:src/system/tim.c ****   TIM_BreakDeadTimeConfigTypeDef sBreakDeadTimeConfig = {0};
ARM GAS  /tmp/ccyMvrGT.s 			page 44


 1468              		.loc 1 295 22 is_stmt 0 view .LVU484
 1469 0004 1C22     		movs	r2, #28
 1470 0006 0021     		movs	r1, #0
 1471 0008 0DA8     		add	r0, sp, #52
 1472 000a FFF7FEFF 		bl	memset
 1473              	.LVL81:
 296:src/system/tim.c **** 
 1474              		.loc 1 296 3 is_stmt 1 view .LVU485
 296:src/system/tim.c **** 
 1475              		.loc 1 296 34 is_stmt 0 view .LVU486
 1476 000e 3422     		movs	r2, #52
 1477 0010 0021     		movs	r1, #0
 1478 0012 6846     		mov	r0, sp
 1479 0014 FFF7FEFF 		bl	memset
 1480              	.LVL82:
 301:src/system/tim.c ****   htim17.Init.Prescaler = 0;
 1481              		.loc 1 301 3 is_stmt 1 view .LVU487
 301:src/system/tim.c ****   htim17.Init.Prescaler = 0;
 1482              		.loc 1 301 19 is_stmt 0 view .LVU488
 1483 0018 2248     		ldr	r0, .L95
 1484 001a 234B     		ldr	r3, .L95+4
 1485 001c 0360     		str	r3, [r0]
 302:src/system/tim.c ****   htim17.Init.CounterMode = TIM_COUNTERMODE_UP;
 1486              		.loc 1 302 3 is_stmt 1 view .LVU489
 302:src/system/tim.c ****   htim17.Init.CounterMode = TIM_COUNTERMODE_UP;
 1487              		.loc 1 302 25 is_stmt 0 view .LVU490
 1488 001e 0023     		movs	r3, #0
 1489 0020 4360     		str	r3, [r0, #4]
 303:src/system/tim.c ****   htim17.Init.Period = 65535;
 1490              		.loc 1 303 3 is_stmt 1 view .LVU491
 303:src/system/tim.c ****   htim17.Init.Period = 65535;
 1491              		.loc 1 303 27 is_stmt 0 view .LVU492
 1492 0022 8360     		str	r3, [r0, #8]
 304:src/system/tim.c ****   htim17.Init.ClockDivision = TIM_CLOCKDIVISION_DIV1;
 1493              		.loc 1 304 3 is_stmt 1 view .LVU493
 304:src/system/tim.c ****   htim17.Init.ClockDivision = TIM_CLOCKDIVISION_DIV1;
 1494              		.loc 1 304 22 is_stmt 0 view .LVU494
 1495 0024 214A     		ldr	r2, .L95+8
 1496 0026 C260     		str	r2, [r0, #12]
 305:src/system/tim.c ****   htim17.Init.RepetitionCounter = 0;
 1497              		.loc 1 305 3 is_stmt 1 view .LVU495
 305:src/system/tim.c ****   htim17.Init.RepetitionCounter = 0;
 1498              		.loc 1 305 29 is_stmt 0 view .LVU496
 1499 0028 0361     		str	r3, [r0, #16]
 306:src/system/tim.c ****   htim17.Init.AutoReloadPreload = TIM_AUTORELOAD_PRELOAD_DISABLE;
 1500              		.loc 1 306 3 is_stmt 1 view .LVU497
 306:src/system/tim.c ****   htim17.Init.AutoReloadPreload = TIM_AUTORELOAD_PRELOAD_DISABLE;
 1501              		.loc 1 306 33 is_stmt 0 view .LVU498
 1502 002a 4361     		str	r3, [r0, #20]
 307:src/system/tim.c ****   if (HAL_TIM_Base_Init(&htim17) != HAL_OK)
 1503              		.loc 1 307 3 is_stmt 1 view .LVU499
 307:src/system/tim.c ****   if (HAL_TIM_Base_Init(&htim17) != HAL_OK)
 1504              		.loc 1 307 33 is_stmt 0 view .LVU500
 1505 002c 8361     		str	r3, [r0, #24]
 308:src/system/tim.c ****   {
 1506              		.loc 1 308 3 is_stmt 1 view .LVU501
 308:src/system/tim.c ****   {
ARM GAS  /tmp/ccyMvrGT.s 			page 45


 1507              		.loc 1 308 7 is_stmt 0 view .LVU502
 1508 002e FFF7FEFF 		bl	HAL_TIM_Base_Init
 1509              	.LVL83:
 308:src/system/tim.c ****   {
 1510              		.loc 1 308 6 view .LVU503
 1511 0032 0028     		cmp	r0, #0
 1512 0034 2AD1     		bne	.L91
 1513              	.L87:
 312:src/system/tim.c ****   {
 1514              		.loc 1 312 3 is_stmt 1 view .LVU504
 312:src/system/tim.c ****   {
 1515              		.loc 1 312 7 is_stmt 0 view .LVU505
 1516 0036 1B48     		ldr	r0, .L95
 1517 0038 FFF7FEFF 		bl	HAL_TIM_PWM_Init
 1518              	.LVL84:
 312:src/system/tim.c ****   {
 1519              		.loc 1 312 6 view .LVU506
 1520 003c 0028     		cmp	r0, #0
 1521 003e 28D1     		bne	.L92
 1522              	.L88:
 316:src/system/tim.c ****   sConfigOC.Pulse = 0;
 1523              		.loc 1 316 3 is_stmt 1 view .LVU507
 316:src/system/tim.c ****   sConfigOC.Pulse = 0;
 1524              		.loc 1 316 20 is_stmt 0 view .LVU508
 1525 0040 6023     		movs	r3, #96
 1526 0042 0D93     		str	r3, [sp, #52]
 317:src/system/tim.c ****   sConfigOC.OCPolarity = TIM_OCPOLARITY_HIGH;
 1527              		.loc 1 317 3 is_stmt 1 view .LVU509
 317:src/system/tim.c ****   sConfigOC.OCPolarity = TIM_OCPOLARITY_HIGH;
 1528              		.loc 1 317 19 is_stmt 0 view .LVU510
 1529 0044 0023     		movs	r3, #0
 1530 0046 0E93     		str	r3, [sp, #56]
 318:src/system/tim.c ****   sConfigOC.OCNPolarity = TIM_OCNPOLARITY_HIGH;
 1531              		.loc 1 318 3 is_stmt 1 view .LVU511
 318:src/system/tim.c ****   sConfigOC.OCNPolarity = TIM_OCNPOLARITY_HIGH;
 1532              		.loc 1 318 24 is_stmt 0 view .LVU512
 1533 0048 0F93     		str	r3, [sp, #60]
 319:src/system/tim.c ****   sConfigOC.OCFastMode = TIM_OCFAST_DISABLE;
 1534              		.loc 1 319 3 is_stmt 1 view .LVU513
 319:src/system/tim.c ****   sConfigOC.OCFastMode = TIM_OCFAST_DISABLE;
 1535              		.loc 1 319 25 is_stmt 0 view .LVU514
 1536 004a 1093     		str	r3, [sp, #64]
 320:src/system/tim.c ****   sConfigOC.OCIdleState = TIM_OCIDLESTATE_RESET;
 1537              		.loc 1 320 3 is_stmt 1 view .LVU515
 320:src/system/tim.c ****   sConfigOC.OCIdleState = TIM_OCIDLESTATE_RESET;
 1538              		.loc 1 320 24 is_stmt 0 view .LVU516
 1539 004c 1193     		str	r3, [sp, #68]
 321:src/system/tim.c ****   sConfigOC.OCNIdleState = TIM_OCNIDLESTATE_RESET;
 1540              		.loc 1 321 3 is_stmt 1 view .LVU517
 321:src/system/tim.c ****   sConfigOC.OCNIdleState = TIM_OCNIDLESTATE_RESET;
 1541              		.loc 1 321 25 is_stmt 0 view .LVU518
 1542 004e 1293     		str	r3, [sp, #72]
 322:src/system/tim.c ****   if (HAL_TIM_PWM_ConfigChannel(&htim17, &sConfigOC, TIM_CHANNEL_1) != HAL_OK)
 1543              		.loc 1 322 3 is_stmt 1 view .LVU519
 322:src/system/tim.c ****   if (HAL_TIM_PWM_ConfigChannel(&htim17, &sConfigOC, TIM_CHANNEL_1) != HAL_OK)
 1544              		.loc 1 322 26 is_stmt 0 view .LVU520
 1545 0050 1393     		str	r3, [sp, #76]
ARM GAS  /tmp/ccyMvrGT.s 			page 46


 323:src/system/tim.c ****   {
 1546              		.loc 1 323 3 is_stmt 1 view .LVU521
 323:src/system/tim.c ****   {
 1547              		.loc 1 323 7 is_stmt 0 view .LVU522
 1548 0052 1448     		ldr	r0, .L95
 1549 0054 0022     		movs	r2, #0
 1550 0056 0DA9     		add	r1, sp, #52
 1551 0058 FFF7FEFF 		bl	HAL_TIM_PWM_ConfigChannel
 1552              	.LVL85:
 323:src/system/tim.c ****   {
 1553              		.loc 1 323 6 view .LVU523
 1554 005c 0028     		cmp	r0, #0
 1555 005e 1BD1     		bne	.L93
 1556              	.L89:
 327:src/system/tim.c ****   sBreakDeadTimeConfig.OffStateIDLEMode = TIM_OSSI_DISABLE;
 1557              		.loc 1 327 3 is_stmt 1 view .LVU524
 327:src/system/tim.c ****   sBreakDeadTimeConfig.OffStateIDLEMode = TIM_OSSI_DISABLE;
 1558              		.loc 1 327 40 is_stmt 0 view .LVU525
 1559 0060 0023     		movs	r3, #0
 1560 0062 0093     		str	r3, [sp]
 328:src/system/tim.c ****   sBreakDeadTimeConfig.LockLevel = TIM_LOCKLEVEL_OFF;
 1561              		.loc 1 328 3 is_stmt 1 view .LVU526
 328:src/system/tim.c ****   sBreakDeadTimeConfig.LockLevel = TIM_LOCKLEVEL_OFF;
 1562              		.loc 1 328 41 is_stmt 0 view .LVU527
 1563 0064 0193     		str	r3, [sp, #4]
 329:src/system/tim.c ****   sBreakDeadTimeConfig.DeadTime = 0;
 1564              		.loc 1 329 3 is_stmt 1 view .LVU528
 329:src/system/tim.c ****   sBreakDeadTimeConfig.DeadTime = 0;
 1565              		.loc 1 329 34 is_stmt 0 view .LVU529
 1566 0066 0293     		str	r3, [sp, #8]
 330:src/system/tim.c ****   sBreakDeadTimeConfig.BreakState = TIM_BREAK_DISABLE;
 1567              		.loc 1 330 3 is_stmt 1 view .LVU530
 330:src/system/tim.c ****   sBreakDeadTimeConfig.BreakState = TIM_BREAK_DISABLE;
 1568              		.loc 1 330 33 is_stmt 0 view .LVU531
 1569 0068 0393     		str	r3, [sp, #12]
 331:src/system/tim.c ****   sBreakDeadTimeConfig.BreakPolarity = TIM_BREAKPOLARITY_HIGH;
 1570              		.loc 1 331 3 is_stmt 1 view .LVU532
 331:src/system/tim.c ****   sBreakDeadTimeConfig.BreakPolarity = TIM_BREAKPOLARITY_HIGH;
 1571              		.loc 1 331 35 is_stmt 0 view .LVU533
 1572 006a 0493     		str	r3, [sp, #16]
 332:src/system/tim.c ****   sBreakDeadTimeConfig.BreakFilter = 0;
 1573              		.loc 1 332 3 is_stmt 1 view .LVU534
 332:src/system/tim.c ****   sBreakDeadTimeConfig.BreakFilter = 0;
 1574              		.loc 1 332 38 is_stmt 0 view .LVU535
 1575 006c 8022     		movs	r2, #128
 1576 006e 9201     		lsls	r2, r2, #6
 1577 0070 0592     		str	r2, [sp, #20]
 333:src/system/tim.c ****   sBreakDeadTimeConfig.AutomaticOutput = TIM_AUTOMATICOUTPUT_DISABLE;
 1578              		.loc 1 333 3 is_stmt 1 view .LVU536
 333:src/system/tim.c ****   sBreakDeadTimeConfig.AutomaticOutput = TIM_AUTOMATICOUTPUT_DISABLE;
 1579              		.loc 1 333 36 is_stmt 0 view .LVU537
 1580 0072 0693     		str	r3, [sp, #24]
 334:src/system/tim.c ****   if (HAL_TIMEx_ConfigBreakDeadTime(&htim17, &sBreakDeadTimeConfig) != HAL_OK)
 1581              		.loc 1 334 3 is_stmt 1 view .LVU538
 334:src/system/tim.c ****   if (HAL_TIMEx_ConfigBreakDeadTime(&htim17, &sBreakDeadTimeConfig) != HAL_OK)
 1582              		.loc 1 334 40 is_stmt 0 view .LVU539
 1583 0074 0C93     		str	r3, [sp, #48]
ARM GAS  /tmp/ccyMvrGT.s 			page 47


 335:src/system/tim.c ****   {
 1584              		.loc 1 335 3 is_stmt 1 view .LVU540
 335:src/system/tim.c ****   {
 1585              		.loc 1 335 7 is_stmt 0 view .LVU541
 1586 0076 0B48     		ldr	r0, .L95
 1587 0078 6946     		mov	r1, sp
 1588 007a FFF7FEFF 		bl	HAL_TIMEx_ConfigBreakDeadTime
 1589              	.LVL86:
 335:src/system/tim.c ****   {
 1590              		.loc 1 335 6 view .LVU542
 1591 007e 0028     		cmp	r0, #0
 1592 0080 0DD1     		bne	.L94
 1593              	.L90:
 342:src/system/tim.c **** 
 1594              		.loc 1 342 3 is_stmt 1 view .LVU543
 1595 0082 0848     		ldr	r0, .L95
 1596 0084 FFF7FEFF 		bl	HAL_TIM_MspPostInit
 1597              	.LVL87:
 344:src/system/tim.c **** 
 1598              		.loc 1 344 1 is_stmt 0 view .LVU544
 1599 0088 15B0     		add	sp, sp, #84
 1600              		@ sp needed
 1601 008a 00BD     		pop	{pc}
 1602              	.L91:
 310:src/system/tim.c ****   }
 1603              		.loc 1 310 5 is_stmt 1 view .LVU545
 1604 008c FFF7FEFF 		bl	Error_Handler
 1605              	.LVL88:
 1606 0090 D1E7     		b	.L87
 1607              	.L92:
 314:src/system/tim.c ****   }
 1608              		.loc 1 314 5 view .LVU546
 1609 0092 FFF7FEFF 		bl	Error_Handler
 1610              	.LVL89:
 1611 0096 D3E7     		b	.L88
 1612              	.L93:
 325:src/system/tim.c ****   }
 1613              		.loc 1 325 5 view .LVU547
 1614 0098 FFF7FEFF 		bl	Error_Handler
 1615              	.LVL90:
 1616 009c E0E7     		b	.L89
 1617              	.L94:
 337:src/system/tim.c ****   }
 1618              		.loc 1 337 5 view .LVU548
 1619 009e FFF7FEFF 		bl	Error_Handler
 1620              	.LVL91:
 1621 00a2 EEE7     		b	.L90
 1622              	.L96:
 1623              		.align	2
 1624              	.L95:
 1625 00a4 00000000 		.word	htim17
 1626 00a8 00480140 		.word	1073825792
 1627 00ac FFFF0000 		.word	65535
 1628              		.cfi_endproc
 1629              	.LFE218:
 1631              		.section	.text.HAL_TIM_Base_MspDeInit,"ax",%progbits
 1632              		.align	1
ARM GAS  /tmp/ccyMvrGT.s 			page 48


 1633              		.global	HAL_TIM_Base_MspDeInit
 1634              		.syntax unified
 1635              		.code	16
 1636              		.thumb_func
 1638              	HAL_TIM_Base_MspDeInit:
 1639              	.LVL92:
 1640              	.LFB221:
 552:src/system/tim.c **** 
 553:src/system/tim.c **** void HAL_TIM_Base_MspDeInit(TIM_HandleTypeDef* tim_baseHandle)
 554:src/system/tim.c **** {
 1641              		.loc 1 554 1 view -0
 1642              		.cfi_startproc
 1643              		@ args = 0, pretend = 0, frame = 0
 1644              		@ frame_needed = 0, uses_anonymous_args = 0
 1645              		@ link register save eliminated.
 555:src/system/tim.c **** 
 556:src/system/tim.c ****   if(tim_baseHandle->Instance==TIM1)
 1646              		.loc 1 556 3 view .LVU550
 1647              		.loc 1 556 20 is_stmt 0 view .LVU551
 1648 0000 0368     		ldr	r3, [r0]
 1649              		.loc 1 556 5 view .LVU552
 1650 0002 164A     		ldr	r2, .L107
 1651 0004 9342     		cmp	r3, r2
 1652 0006 11D0     		beq	.L103
 557:src/system/tim.c ****   {
 558:src/system/tim.c ****   /* USER CODE BEGIN TIM1_MspDeInit 0 */
 559:src/system/tim.c **** 
 560:src/system/tim.c ****   /* USER CODE END TIM1_MspDeInit 0 */
 561:src/system/tim.c ****     /* Peripheral clock disable */
 562:src/system/tim.c ****     __HAL_RCC_TIM1_CLK_DISABLE();
 563:src/system/tim.c ****   /* USER CODE BEGIN TIM1_MspDeInit 1 */
 564:src/system/tim.c **** 
 565:src/system/tim.c ****   /* USER CODE END TIM1_MspDeInit 1 */
 566:src/system/tim.c ****   }
 567:src/system/tim.c ****   else if(tim_baseHandle->Instance==TIM3)
 1653              		.loc 1 567 8 is_stmt 1 view .LVU553
 1654              		.loc 1 567 10 is_stmt 0 view .LVU554
 1655 0008 154A     		ldr	r2, .L107+4
 1656 000a 9342     		cmp	r3, r2
 1657 000c 14D0     		beq	.L104
 568:src/system/tim.c ****   {
 569:src/system/tim.c ****   /* USER CODE BEGIN TIM3_MspDeInit 0 */
 570:src/system/tim.c **** 
 571:src/system/tim.c ****   /* USER CODE END TIM3_MspDeInit 0 */
 572:src/system/tim.c ****     /* Peripheral clock disable */
 573:src/system/tim.c ****     __HAL_RCC_TIM3_CLK_DISABLE();
 574:src/system/tim.c ****   /* USER CODE BEGIN TIM3_MspDeInit 1 */
 575:src/system/tim.c **** 
 576:src/system/tim.c ****   /* USER CODE END TIM3_MspDeInit 1 */
 577:src/system/tim.c ****   }
 578:src/system/tim.c ****   else if(tim_baseHandle->Instance==TIM14)
 1658              		.loc 1 578 8 is_stmt 1 view .LVU555
 1659              		.loc 1 578 10 is_stmt 0 view .LVU556
 1660 000e 154A     		ldr	r2, .L107+8
 1661 0010 9342     		cmp	r3, r2
 1662 0012 17D0     		beq	.L105
 579:src/system/tim.c ****   {
ARM GAS  /tmp/ccyMvrGT.s 			page 49


 580:src/system/tim.c ****   /* USER CODE BEGIN TIM14_MspDeInit 0 */
 581:src/system/tim.c **** 
 582:src/system/tim.c ****   /* USER CODE END TIM14_MspDeInit 0 */
 583:src/system/tim.c ****     /* Peripheral clock disable */
 584:src/system/tim.c ****     __HAL_RCC_TIM14_CLK_DISABLE();
 585:src/system/tim.c ****   /* USER CODE BEGIN TIM14_MspDeInit 1 */
 586:src/system/tim.c **** 
 587:src/system/tim.c ****   /* USER CODE END TIM14_MspDeInit 1 */
 588:src/system/tim.c ****   }
 589:src/system/tim.c ****   else if(tim_baseHandle->Instance==TIM16)
 1663              		.loc 1 589 8 is_stmt 1 view .LVU557
 1664              		.loc 1 589 10 is_stmt 0 view .LVU558
 1665 0014 144A     		ldr	r2, .L107+12
 1666 0016 9342     		cmp	r3, r2
 1667 0018 1AD0     		beq	.L106
 590:src/system/tim.c ****   {
 591:src/system/tim.c ****   /* USER CODE BEGIN TIM16_MspDeInit 0 */
 592:src/system/tim.c **** 
 593:src/system/tim.c ****   /* USER CODE END TIM16_MspDeInit 0 */
 594:src/system/tim.c ****     /* Peripheral clock disable */
 595:src/system/tim.c ****     __HAL_RCC_TIM16_CLK_DISABLE();
 596:src/system/tim.c ****   /* USER CODE BEGIN TIM16_MspDeInit 1 */
 597:src/system/tim.c **** 
 598:src/system/tim.c ****   /* USER CODE END TIM16_MspDeInit 1 */
 599:src/system/tim.c ****   }
 600:src/system/tim.c ****   else if(tim_baseHandle->Instance==TIM17)
 1668              		.loc 1 600 8 is_stmt 1 view .LVU559
 1669              		.loc 1 600 10 is_stmt 0 view .LVU560
 1670 001a 144A     		ldr	r2, .L107+16
 1671 001c 9342     		cmp	r3, r2
 1672 001e 0AD1     		bne	.L97
 601:src/system/tim.c ****   {
 602:src/system/tim.c ****   /* USER CODE BEGIN TIM17_MspDeInit 0 */
 603:src/system/tim.c **** 
 604:src/system/tim.c ****   /* USER CODE END TIM17_MspDeInit 0 */
 605:src/system/tim.c ****     /* Peripheral clock disable */
 606:src/system/tim.c ****     __HAL_RCC_TIM17_CLK_DISABLE();
 1673              		.loc 1 606 5 is_stmt 1 view .LVU561
 1674 0020 134A     		ldr	r2, .L107+20
 1675 0022 136C     		ldr	r3, [r2, #64]
 1676 0024 1349     		ldr	r1, .L107+24
 1677 0026 0B40     		ands	r3, r1
 1678 0028 1364     		str	r3, [r2, #64]
 607:src/system/tim.c ****   /* USER CODE BEGIN TIM17_MspDeInit 1 */
 608:src/system/tim.c **** 
 609:src/system/tim.c ****   /* USER CODE END TIM17_MspDeInit 1 */
 610:src/system/tim.c ****   }
 611:src/system/tim.c **** }
 1679              		.loc 1 611 1 is_stmt 0 view .LVU562
 1680 002a 04E0     		b	.L97
 1681              	.L103:
 562:src/system/tim.c ****   /* USER CODE BEGIN TIM1_MspDeInit 1 */
 1682              		.loc 1 562 5 is_stmt 1 view .LVU563
 1683 002c 104A     		ldr	r2, .L107+20
 1684 002e 136C     		ldr	r3, [r2, #64]
 1685 0030 1149     		ldr	r1, .L107+28
 1686 0032 0B40     		ands	r3, r1
ARM GAS  /tmp/ccyMvrGT.s 			page 50


 1687 0034 1364     		str	r3, [r2, #64]
 1688              	.L97:
 1689              		.loc 1 611 1 is_stmt 0 view .LVU564
 1690              		@ sp needed
 1691 0036 7047     		bx	lr
 1692              	.L104:
 573:src/system/tim.c ****   /* USER CODE BEGIN TIM3_MspDeInit 1 */
 1693              		.loc 1 573 5 is_stmt 1 view .LVU565
 1694 0038 0D4A     		ldr	r2, .L107+20
 1695 003a D36B     		ldr	r3, [r2, #60]
 1696 003c 0221     		movs	r1, #2
 1697 003e 8B43     		bics	r3, r1
 1698 0040 D363     		str	r3, [r2, #60]
 1699 0042 F8E7     		b	.L97
 1700              	.L105:
 584:src/system/tim.c ****   /* USER CODE BEGIN TIM14_MspDeInit 1 */
 1701              		.loc 1 584 5 view .LVU566
 1702 0044 0A4A     		ldr	r2, .L107+20
 1703 0046 136C     		ldr	r3, [r2, #64]
 1704 0048 0C49     		ldr	r1, .L107+32
 1705 004a 0B40     		ands	r3, r1
 1706 004c 1364     		str	r3, [r2, #64]
 1707 004e F2E7     		b	.L97
 1708              	.L106:
 595:src/system/tim.c ****   /* USER CODE BEGIN TIM16_MspDeInit 1 */
 1709              		.loc 1 595 5 view .LVU567
 1710 0050 074A     		ldr	r2, .L107+20
 1711 0052 136C     		ldr	r3, [r2, #64]
 1712 0054 0A49     		ldr	r1, .L107+36
 1713 0056 0B40     		ands	r3, r1
 1714 0058 1364     		str	r3, [r2, #64]
 1715 005a ECE7     		b	.L97
 1716              	.L108:
 1717              		.align	2
 1718              	.L107:
 1719 005c 002C0140 		.word	1073818624
 1720 0060 00040040 		.word	1073742848
 1721 0064 00200040 		.word	1073750016
 1722 0068 00440140 		.word	1073824768
 1723 006c 00480140 		.word	1073825792
 1724 0070 00100240 		.word	1073876992
 1725 0074 FFFFFBFF 		.word	-262145
 1726 0078 FFF7FFFF 		.word	-2049
 1727 007c FF7FFFFF 		.word	-32769
 1728 0080 FFFFFDFF 		.word	-131073
 1729              		.cfi_endproc
 1730              	.LFE221:
 1732              		.global	htim17
 1733              		.section	.bss.htim17,"aw",%nobits
 1734              		.align	2
 1737              	htim17:
 1738 0000 00000000 		.space	76
 1738      00000000 
 1738      00000000 
 1738      00000000 
 1738      00000000 
 1739              		.global	htim16
ARM GAS  /tmp/ccyMvrGT.s 			page 51


 1740              		.section	.bss.htim16,"aw",%nobits
 1741              		.align	2
 1744              	htim16:
 1745 0000 00000000 		.space	76
 1745      00000000 
 1745      00000000 
 1745      00000000 
 1745      00000000 
 1746              		.global	htim14
 1747              		.section	.bss.htim14,"aw",%nobits
 1748              		.align	2
 1751              	htim14:
 1752 0000 00000000 		.space	76
 1752      00000000 
 1752      00000000 
 1752      00000000 
 1752      00000000 
 1753              		.global	htim3
 1754              		.section	.bss.htim3,"aw",%nobits
 1755              		.align	2
 1758              	htim3:
 1759 0000 00000000 		.space	76
 1759      00000000 
 1759      00000000 
 1759      00000000 
 1759      00000000 
 1760              		.global	htim1
 1761              		.section	.bss.htim1,"aw",%nobits
 1762              		.align	2
 1765              	htim1:
 1766 0000 00000000 		.space	76
 1766      00000000 
 1766      00000000 
 1766      00000000 
 1766      00000000 
 1767              		.text
 1768              	.Letext0:
 1769              		.file 2 "/usr/lib/gcc/arm-none-eabi/12.2.1/include/stdint.h"
 1770              		.file 3 "external/drivers/cmsis/include/stm32c031xx.h"
 1771              		.file 4 "external/drivers/stm32c0xx/include/stm32c0xx_hal_def.h"
 1772              		.file 5 "external/drivers/stm32c0xx/include/stm32c0xx_hal_gpio.h"
 1773              		.file 6 "external/drivers/stm32c0xx/include/stm32c0xx_hal_dma.h"
 1774              		.file 7 "external/drivers/stm32c0xx/include/stm32c0xx_hal_tim.h"
 1775              		.file 8 "src/system/tim.h"
 1776              		.file 9 "external/drivers/stm32c0xx/include/stm32c0xx_hal_tim_ex.h"
 1777              		.file 10 "src/system/init.h"
 1778              		.file 11 "<built-in>"
ARM GAS  /tmp/ccyMvrGT.s 			page 52


DEFINED SYMBOLS
                            *ABS*:00000000 tim.c
     /tmp/ccyMvrGT.s:19     .text.HAL_TIM_Base_MspInit:00000000 $t
     /tmp/ccyMvrGT.s:25     .text.HAL_TIM_Base_MspInit:00000000 HAL_TIM_Base_MspInit
     /tmp/ccyMvrGT.s:170    .text.HAL_TIM_Base_MspInit:00000090 $d
     /tmp/ccyMvrGT.s:180    .text.HAL_TIM_MspPostInit:00000000 $t
     /tmp/ccyMvrGT.s:186    .text.HAL_TIM_MspPostInit:00000000 HAL_TIM_MspPostInit
     /tmp/ccyMvrGT.s:592    .text.HAL_TIM_MspPostInit:0000018c $d
     /tmp/ccyMvrGT.s:606    .text.MX_TIM1_Init:00000000 $t
     /tmp/ccyMvrGT.s:612    .text.MX_TIM1_Init:00000000 MX_TIM1_Init
     /tmp/ccyMvrGT.s:907    .text.MX_TIM1_Init:00000134 $d
     /tmp/ccyMvrGT.s:1765   .bss.htim1:00000000 htim1
     /tmp/ccyMvrGT.s:914    .text.MX_TIM3_Init:00000000 $t
     /tmp/ccyMvrGT.s:920    .text.MX_TIM3_Init:00000000 MX_TIM3_Init
     /tmp/ccyMvrGT.s:1134   .text.MX_TIM3_Init:000000ec $d
     /tmp/ccyMvrGT.s:1758   .bss.htim3:00000000 htim3
     /tmp/ccyMvrGT.s:1141   .text.MX_TIM14_Init:00000000 $t
     /tmp/ccyMvrGT.s:1147   .text.MX_TIM14_Init:00000000 MX_TIM14_Init
     /tmp/ccyMvrGT.s:1257   .text.MX_TIM14_Init:0000006c $d
     /tmp/ccyMvrGT.s:1751   .bss.htim14:00000000 htim14
     /tmp/ccyMvrGT.s:1264   .text.MX_TIM16_Init:00000000 $t
     /tmp/ccyMvrGT.s:1270   .text.MX_TIM16_Init:00000000 MX_TIM16_Init
     /tmp/ccyMvrGT.s:1441   .text.MX_TIM16_Init:000000a4 $d
     /tmp/ccyMvrGT.s:1744   .bss.htim16:00000000 htim16
     /tmp/ccyMvrGT.s:1448   .text.MX_TIM17_Init:00000000 $t
     /tmp/ccyMvrGT.s:1454   .text.MX_TIM17_Init:00000000 MX_TIM17_Init
     /tmp/ccyMvrGT.s:1625   .text.MX_TIM17_Init:000000a4 $d
     /tmp/ccyMvrGT.s:1737   .bss.htim17:00000000 htim17
     /tmp/ccyMvrGT.s:1632   .text.HAL_TIM_Base_MspDeInit:00000000 $t
     /tmp/ccyMvrGT.s:1638   .text.HAL_TIM_Base_MspDeInit:00000000 HAL_TIM_Base_MspDeInit
     /tmp/ccyMvrGT.s:1719   .text.HAL_TIM_Base_MspDeInit:0000005c $d
     /tmp/ccyMvrGT.s:1734   .bss.htim17:00000000 $d
     /tmp/ccyMvrGT.s:1741   .bss.htim16:00000000 $d
     /tmp/ccyMvrGT.s:1748   .bss.htim14:00000000 $d
     /tmp/ccyMvrGT.s:1755   .bss.htim3:00000000 $d
     /tmp/ccyMvrGT.s:1762   .bss.htim1:00000000 $d

UNDEFINED SYMBOLS
memset
HAL_GPIO_Init
HAL_TIM_Base_Init
HAL_TIM_ConfigClockSource
HAL_TIM_PWM_Init
HAL_TIMEx_MasterConfigSynchronization
HAL_TIM_PWM_ConfigChannel
HAL_TIMEx_ConfigBreakDeadTime
Error_Handler
