ARM GAS  /tmp/ccqGE2Ma.s 			page 1


   1              		.cpu cortex-m0plus
   2              		.arch armv6s-m
   3              		.fpu softvfp
   4              		.eabi_attribute 20, 1
   5              		.eabi_attribute 21, 1
   6              		.eabi_attribute 23, 3
   7              		.eabi_attribute 24, 1
   8              		.eabi_attribute 25, 1
   9              		.eabi_attribute 26, 1
  10              		.eabi_attribute 30, 2
  11              		.eabi_attribute 34, 0
  12              		.eabi_attribute 18, 4
  13              		.file	"usart.c"
  14              		.text
  15              	.Ltext0:
  16              		.cfi_sections	.debug_frame
  17              		.file 1 "src/system/usart.c"
  18              		.section	.text.MX_USART2_UART_Init,"ax",%progbits
  19              		.align	1
  20              		.p2align 2,,3
  21              		.global	MX_USART2_UART_Init
  22              		.syntax unified
  23              		.code	16
  24              		.thumb_func
  26              	MX_USART2_UART_Init:
  27              	.LFB214:
   1:src/system/usart.c **** /* USER CODE BEGIN Header */
   2:src/system/usart.c **** /**
   3:src/system/usart.c ****   ******************************************************************************
   4:src/system/usart.c ****   * @file    usart.c
   5:src/system/usart.c ****   * @brief   This file provides code for the configuration
   6:src/system/usart.c ****   *          of the USART instances.
   7:src/system/usart.c ****   ******************************************************************************
   8:src/system/usart.c ****   * @attention
   9:src/system/usart.c ****   *
  10:src/system/usart.c ****   * Copyright (c) 2025 STMicroelectronics.
  11:src/system/usart.c ****   * All rights reserved.
  12:src/system/usart.c ****   *
  13:src/system/usart.c ****   * This software is licensed under terms that can be found in the LICENSE file
  14:src/system/usart.c ****   * in the root directory of this software component.
  15:src/system/usart.c ****   * If no LICENSE file comes with this software, it is provided AS-IS.
  16:src/system/usart.c ****   *
  17:src/system/usart.c ****   ******************************************************************************
  18:src/system/usart.c ****   */
  19:src/system/usart.c **** /* USER CODE END Header */
  20:src/system/usart.c **** /* Includes ------------------------------------------------------------------*/
  21:src/system/usart.c **** #include "usart.h"
  22:src/system/usart.c **** 
  23:src/system/usart.c **** /* USER CODE BEGIN 0 */
  24:src/system/usart.c **** 
  25:src/system/usart.c **** /* USER CODE END 0 */
  26:src/system/usart.c **** 
  27:src/system/usart.c **** UART_HandleTypeDef huart2;
  28:src/system/usart.c **** 
  29:src/system/usart.c **** /* USART2 init function */
  30:src/system/usart.c **** 
  31:src/system/usart.c **** void MX_USART2_UART_Init(void)
ARM GAS  /tmp/ccqGE2Ma.s 			page 2


  32:src/system/usart.c **** {
  28              		.loc 1 32 1 view -0
  29              		.cfi_startproc
  30              		@ args = 0, pretend = 0, frame = 0
  31              		@ frame_needed = 0, uses_anonymous_args = 0
  33:src/system/usart.c **** 
  34:src/system/usart.c ****   /* USER CODE BEGIN USART2_Init 0 */
  35:src/system/usart.c **** 
  36:src/system/usart.c ****   /* USER CODE END USART2_Init 0 */
  37:src/system/usart.c **** 
  38:src/system/usart.c ****   /* USER CODE BEGIN USART2_Init 1 */
  39:src/system/usart.c **** 
  40:src/system/usart.c ****   /* USER CODE END USART2_Init 1 */
  41:src/system/usart.c ****   huart2.Instance = USART2;
  32              		.loc 1 41 3 view .LVU1
  33              		.loc 1 41 19 is_stmt 0 view .LVU2
  34 0000 0C48     		ldr	r0, .L8
  35 0002 0D4B     		ldr	r3, .L8+4
  32:src/system/usart.c **** 
  36              		.loc 1 32 1 view .LVU3
  37 0004 10B5     		push	{r4, lr}
  38              	.LCFI0:
  39              		.cfi_def_cfa_offset 8
  40              		.cfi_offset 4, -8
  41              		.cfi_offset 14, -4
  42              		.loc 1 41 19 view .LVU4
  43 0006 0360     		str	r3, [r0]
  42:src/system/usart.c ****   huart2.Init.BaudRate = 115200;
  44              		.loc 1 42 3 is_stmt 1 view .LVU5
  45              		.loc 1 42 24 is_stmt 0 view .LVU6
  46 0008 E123     		movs	r3, #225
  47 000a 5B02     		lsls	r3, r3, #9
  43:src/system/usart.c ****   huart2.Init.WordLength = UART_WORDLENGTH_8B;
  44:src/system/usart.c ****   huart2.Init.StopBits = UART_STOPBITS_1;
  45:src/system/usart.c ****   huart2.Init.Parity = UART_PARITY_NONE;
  46:src/system/usart.c ****   huart2.Init.Mode = UART_MODE_TX_RX;
  48              		.loc 1 46 20 view .LVU7
  49 000c 0C22     		movs	r2, #12
  42:src/system/usart.c ****   huart2.Init.BaudRate = 115200;
  50              		.loc 1 42 24 view .LVU8
  51 000e 4360     		str	r3, [r0, #4]
  43:src/system/usart.c ****   huart2.Init.WordLength = UART_WORDLENGTH_8B;
  52              		.loc 1 43 3 is_stmt 1 view .LVU9
  43:src/system/usart.c ****   huart2.Init.WordLength = UART_WORDLENGTH_8B;
  53              		.loc 1 43 26 is_stmt 0 view .LVU10
  54 0010 0023     		movs	r3, #0
  55              		.loc 1 46 20 view .LVU11
  56 0012 4261     		str	r2, [r0, #20]
  43:src/system/usart.c ****   huart2.Init.WordLength = UART_WORDLENGTH_8B;
  57              		.loc 1 43 26 view .LVU12
  58 0014 8360     		str	r3, [r0, #8]
  44:src/system/usart.c ****   huart2.Init.Parity = UART_PARITY_NONE;
  59              		.loc 1 44 3 is_stmt 1 view .LVU13
  44:src/system/usart.c ****   huart2.Init.Parity = UART_PARITY_NONE;
  60              		.loc 1 44 24 is_stmt 0 view .LVU14
  61 0016 C360     		str	r3, [r0, #12]
  45:src/system/usart.c ****   huart2.Init.Mode = UART_MODE_TX_RX;
ARM GAS  /tmp/ccqGE2Ma.s 			page 3


  62              		.loc 1 45 3 is_stmt 1 view .LVU15
  45:src/system/usart.c ****   huart2.Init.Mode = UART_MODE_TX_RX;
  63              		.loc 1 45 22 is_stmt 0 view .LVU16
  64 0018 0361     		str	r3, [r0, #16]
  65              		.loc 1 46 3 is_stmt 1 view .LVU17
  47:src/system/usart.c ****   huart2.Init.HwFlowCtl = UART_HWCONTROL_NONE;
  66              		.loc 1 47 3 view .LVU18
  67              		.loc 1 47 25 is_stmt 0 view .LVU19
  68 001a 8361     		str	r3, [r0, #24]
  48:src/system/usart.c ****   huart2.Init.OverSampling = UART_OVERSAMPLING_16;
  69              		.loc 1 48 3 is_stmt 1 view .LVU20
  70              		.loc 1 48 28 is_stmt 0 view .LVU21
  71 001c C361     		str	r3, [r0, #28]
  49:src/system/usart.c ****   huart2.Init.OneBitSampling = UART_ONE_BIT_SAMPLE_DISABLE;
  72              		.loc 1 49 3 is_stmt 1 view .LVU22
  73              		.loc 1 49 30 is_stmt 0 view .LVU23
  74 001e 0362     		str	r3, [r0, #32]
  50:src/system/usart.c ****   huart2.Init.ClockPrescaler = UART_PRESCALER_DIV1;
  75              		.loc 1 50 3 is_stmt 1 view .LVU24
  76              		.loc 1 50 30 is_stmt 0 view .LVU25
  77 0020 4362     		str	r3, [r0, #36]
  51:src/system/usart.c ****   huart2.AdvancedInit.AdvFeatureInit = UART_ADVFEATURE_NO_INIT;
  78              		.loc 1 51 3 is_stmt 1 view .LVU26
  79              		.loc 1 51 38 is_stmt 0 view .LVU27
  80 0022 8362     		str	r3, [r0, #40]
  52:src/system/usart.c ****   if (HAL_UART_Init(&huart2) != HAL_OK)
  81              		.loc 1 52 3 is_stmt 1 view .LVU28
  82              		.loc 1 52 7 is_stmt 0 view .LVU29
  83 0024 FFF7FEFF 		bl	HAL_UART_Init
  84              	.LVL0:
  85              		.loc 1 52 6 view .LVU30
  86 0028 0028     		cmp	r0, #0
  87 002a 00D1     		bne	.L7
  88              	.L1:
  53:src/system/usart.c ****   {
  54:src/system/usart.c ****     Error_Handler();
  55:src/system/usart.c ****   }
  56:src/system/usart.c ****   /* USER CODE BEGIN USART2_Init 2 */
  57:src/system/usart.c **** 
  58:src/system/usart.c ****   /* USER CODE END USART2_Init 2 */
  59:src/system/usart.c **** 
  60:src/system/usart.c **** }
  89              		.loc 1 60 1 view .LVU31
  90              		@ sp needed
  91 002c 10BD     		pop	{r4, pc}
  92              	.L7:
  54:src/system/usart.c ****   }
  93              		.loc 1 54 5 is_stmt 1 view .LVU32
  94 002e FFF7FEFF 		bl	Error_Handler
  95              	.LVL1:
  96              		.loc 1 60 1 is_stmt 0 view .LVU33
  97 0032 FBE7     		b	.L1
  98              	.L9:
  99              		.align	2
 100              	.L8:
 101 0034 00000000 		.word	huart2
 102 0038 00440040 		.word	1073759232
ARM GAS  /tmp/ccqGE2Ma.s 			page 4


 103              		.cfi_endproc
 104              	.LFE214:
 106              		.section	.text.HAL_UART_MspInit,"ax",%progbits
 107              		.align	1
 108              		.p2align 2,,3
 109              		.global	HAL_UART_MspInit
 110              		.syntax unified
 111              		.code	16
 112              		.thumb_func
 114              	HAL_UART_MspInit:
 115              	.LVL2:
 116              	.LFB215:
  61:src/system/usart.c **** 
  62:src/system/usart.c **** void HAL_UART_MspInit(UART_HandleTypeDef* uartHandle)
  63:src/system/usart.c **** {
 117              		.loc 1 63 1 is_stmt 1 view -0
 118              		.cfi_startproc
 119              		@ args = 0, pretend = 0, frame = 32
 120              		@ frame_needed = 0, uses_anonymous_args = 0
  64:src/system/usart.c **** 
  65:src/system/usart.c ****   GPIO_InitTypeDef GPIO_InitStruct = {0};
 121              		.loc 1 65 3 view .LVU35
  63:src/system/usart.c **** 
 122              		.loc 1 63 1 is_stmt 0 view .LVU36
 123 0000 10B5     		push	{r4, lr}
 124              	.LCFI1:
 125              		.cfi_def_cfa_offset 8
 126              		.cfi_offset 4, -8
 127              		.cfi_offset 14, -4
 128 0002 0400     		movs	r4, r0
 129 0004 88B0     		sub	sp, sp, #32
 130              	.LCFI2:
 131              		.cfi_def_cfa_offset 40
 132              		.loc 1 65 20 view .LVU37
 133 0006 1422     		movs	r2, #20
 134 0008 0021     		movs	r1, #0
 135 000a 02A8     		add	r0, sp, #8
 136              	.LVL3:
 137              		.loc 1 65 20 view .LVU38
 138 000c FFF7FEFF 		bl	memset
 139              	.LVL4:
  66:src/system/usart.c ****   if(uartHandle->Instance==USART2)
 140              		.loc 1 66 3 is_stmt 1 view .LVU39
 141              		.loc 1 66 5 is_stmt 0 view .LVU40
 142 0010 114B     		ldr	r3, .L13
 143 0012 2268     		ldr	r2, [r4]
 144 0014 9A42     		cmp	r2, r3
 145 0016 01D0     		beq	.L12
 146              	.L10:
  67:src/system/usart.c ****   {
  68:src/system/usart.c ****   /* USER CODE BEGIN USART2_MspInit 0 */
  69:src/system/usart.c **** 
  70:src/system/usart.c ****   /* USER CODE END USART2_MspInit 0 */
  71:src/system/usart.c ****     /* USART2 clock enable */
  72:src/system/usart.c ****     __HAL_RCC_USART2_CLK_ENABLE();
  73:src/system/usart.c **** 
  74:src/system/usart.c ****     __HAL_RCC_GPIOA_CLK_ENABLE();
ARM GAS  /tmp/ccqGE2Ma.s 			page 5


  75:src/system/usart.c ****     /**USART2 GPIO Configuration
  76:src/system/usart.c ****     PA2     ------> USART2_TX
  77:src/system/usart.c ****     PA3     ------> USART2_RX
  78:src/system/usart.c ****     */
  79:src/system/usart.c ****     GPIO_InitStruct.Pin = GPIO_PIN_2|GPIO_PIN_3;
  80:src/system/usart.c ****     GPIO_InitStruct.Mode = GPIO_MODE_AF_PP;
  81:src/system/usart.c ****     GPIO_InitStruct.Pull = GPIO_NOPULL;
  82:src/system/usart.c ****     GPIO_InitStruct.Speed = GPIO_SPEED_FREQ_LOW;
  83:src/system/usart.c ****     GPIO_InitStruct.Alternate = GPIO_AF1_USART2;
  84:src/system/usart.c ****     HAL_GPIO_Init(GPIOA, &GPIO_InitStruct);
  85:src/system/usart.c **** 
  86:src/system/usart.c ****   /* USER CODE BEGIN USART2_MspInit 1 */
  87:src/system/usart.c **** 
  88:src/system/usart.c ****   /* USER CODE END USART2_MspInit 1 */
  89:src/system/usart.c ****   }
  90:src/system/usart.c **** }
 147              		.loc 1 90 1 view .LVU41
 148 0018 08B0     		add	sp, sp, #32
 149              		@ sp needed
 150              	.LVL5:
 151              		.loc 1 90 1 view .LVU42
 152 001a 10BD     		pop	{r4, pc}
 153              	.LVL6:
 154              	.L12:
  72:src/system/usart.c **** 
 155              		.loc 1 72 5 is_stmt 1 view .LVU43
 156              	.LBB2:
  72:src/system/usart.c **** 
 157              		.loc 1 72 5 view .LVU44
  72:src/system/usart.c **** 
 158              		.loc 1 72 5 view .LVU45
 159 001c 8021     		movs	r1, #128
 160 001e 0F4B     		ldr	r3, .L13+4
 161 0020 8902     		lsls	r1, r1, #10
 162 0022 DA6B     		ldr	r2, [r3, #60]
 163              	.LBE2:
  79:src/system/usart.c ****     GPIO_InitStruct.Mode = GPIO_MODE_AF_PP;
 164              		.loc 1 79 25 is_stmt 0 view .LVU46
 165 0024 0C20     		movs	r0, #12
 166              	.LBB3:
  72:src/system/usart.c **** 
 167              		.loc 1 72 5 view .LVU47
 168 0026 0A43     		orrs	r2, r1
 169 0028 DA63     		str	r2, [r3, #60]
  72:src/system/usart.c **** 
 170              		.loc 1 72 5 is_stmt 1 view .LVU48
 171 002a DA6B     		ldr	r2, [r3, #60]
 172 002c 0A40     		ands	r2, r1
 173 002e 0092     		str	r2, [sp]
  72:src/system/usart.c **** 
 174              		.loc 1 72 5 view .LVU49
 175 0030 009A     		ldr	r2, [sp]
 176              	.LBE3:
  72:src/system/usart.c **** 
 177              		.loc 1 72 5 view .LVU50
  74:src/system/usart.c ****     /**USART2 GPIO Configuration
 178              		.loc 1 74 5 view .LVU51
ARM GAS  /tmp/ccqGE2Ma.s 			page 6


 179              	.LBB4:
  74:src/system/usart.c ****     /**USART2 GPIO Configuration
 180              		.loc 1 74 5 view .LVU52
  74:src/system/usart.c ****     /**USART2 GPIO Configuration
 181              		.loc 1 74 5 view .LVU53
 182 0032 0122     		movs	r2, #1
 183 0034 596B     		ldr	r1, [r3, #52]
 184 0036 1143     		orrs	r1, r2
 185 0038 5963     		str	r1, [r3, #52]
  74:src/system/usart.c ****     /**USART2 GPIO Configuration
 186              		.loc 1 74 5 view .LVU54
 187              	.LBE4:
  79:src/system/usart.c ****     GPIO_InitStruct.Mode = GPIO_MODE_AF_PP;
 188              		.loc 1 79 25 is_stmt 0 view .LVU55
 189 003a 0221     		movs	r1, #2
 190              	.LBB5:
  74:src/system/usart.c ****     /**USART2 GPIO Configuration
 191              		.loc 1 74 5 view .LVU56
 192 003c 5B6B     		ldr	r3, [r3, #52]
 193              	.LBE5:
  79:src/system/usart.c ****     GPIO_InitStruct.Mode = GPIO_MODE_AF_PP;
 194              		.loc 1 79 25 view .LVU57
 195 003e 0290     		str	r0, [sp, #8]
 196 0040 0391     		str	r1, [sp, #12]
  84:src/system/usart.c **** 
 197              		.loc 1 84 5 view .LVU58
 198 0042 A020     		movs	r0, #160
 199              	.LBB6:
  74:src/system/usart.c ****     /**USART2 GPIO Configuration
 200              		.loc 1 74 5 view .LVU59
 201 0044 1340     		ands	r3, r2
 202 0046 0193     		str	r3, [sp, #4]
  74:src/system/usart.c ****     /**USART2 GPIO Configuration
 203              		.loc 1 74 5 is_stmt 1 view .LVU60
 204              	.LBE6:
  84:src/system/usart.c **** 
 205              		.loc 1 84 5 is_stmt 0 view .LVU61
 206 0048 02A9     		add	r1, sp, #8
 207 004a C005     		lsls	r0, r0, #23
 208              	.LBB7:
  74:src/system/usart.c ****     /**USART2 GPIO Configuration
 209              		.loc 1 74 5 view .LVU62
 210 004c 019B     		ldr	r3, [sp, #4]
 211              	.LBE7:
  74:src/system/usart.c ****     /**USART2 GPIO Configuration
 212              		.loc 1 74 5 is_stmt 1 view .LVU63
  79:src/system/usart.c ****     GPIO_InitStruct.Mode = GPIO_MODE_AF_PP;
 213              		.loc 1 79 5 view .LVU64
  80:src/system/usart.c ****     GPIO_InitStruct.Pull = GPIO_NOPULL;
 214              		.loc 1 80 5 view .LVU65
  81:src/system/usart.c ****     GPIO_InitStruct.Speed = GPIO_SPEED_FREQ_LOW;
 215              		.loc 1 81 5 view .LVU66
  82:src/system/usart.c ****     GPIO_InitStruct.Alternate = GPIO_AF1_USART2;
 216              		.loc 1 82 5 view .LVU67
  83:src/system/usart.c ****     HAL_GPIO_Init(GPIOA, &GPIO_InitStruct);
 217              		.loc 1 83 5 view .LVU68
  83:src/system/usart.c ****     HAL_GPIO_Init(GPIOA, &GPIO_InitStruct);
ARM GAS  /tmp/ccqGE2Ma.s 			page 7


 218              		.loc 1 83 31 is_stmt 0 view .LVU69
 219 004e 0692     		str	r2, [sp, #24]
  84:src/system/usart.c **** 
 220              		.loc 1 84 5 is_stmt 1 view .LVU70
 221 0050 FFF7FEFF 		bl	HAL_GPIO_Init
 222              	.LVL7:
 223              		.loc 1 90 1 is_stmt 0 view .LVU71
 224 0054 E0E7     		b	.L10
 225              	.L14:
 226 0056 C046     		.align	2
 227              	.L13:
 228 0058 00440040 		.word	1073759232
 229 005c 00100240 		.word	1073876992
 230              		.cfi_endproc
 231              	.LFE215:
 233              		.section	.text.HAL_UART_MspDeInit,"ax",%progbits
 234              		.align	1
 235              		.p2align 2,,3
 236              		.global	HAL_UART_MspDeInit
 237              		.syntax unified
 238              		.code	16
 239              		.thumb_func
 241              	HAL_UART_MspDeInit:
 242              	.LVL8:
 243              	.LFB216:
  91:src/system/usart.c **** 
  92:src/system/usart.c **** void HAL_UART_MspDeInit(UART_HandleTypeDef* uartHandle)
  93:src/system/usart.c **** {
 244              		.loc 1 93 1 is_stmt 1 view -0
 245              		.cfi_startproc
 246              		@ args = 0, pretend = 0, frame = 0
 247              		@ frame_needed = 0, uses_anonymous_args = 0
  94:src/system/usart.c **** 
  95:src/system/usart.c ****   if(uartHandle->Instance==USART2)
 248              		.loc 1 95 3 view .LVU73
 249              		.loc 1 95 5 is_stmt 0 view .LVU74
 250 0000 084B     		ldr	r3, .L18
 251 0002 0268     		ldr	r2, [r0]
  93:src/system/usart.c **** 
 252              		.loc 1 93 1 view .LVU75
 253 0004 10B5     		push	{r4, lr}
 254              	.LCFI3:
 255              		.cfi_def_cfa_offset 8
 256              		.cfi_offset 4, -8
 257              		.cfi_offset 14, -4
 258              		.loc 1 95 5 view .LVU76
 259 0006 9A42     		cmp	r2, r3
 260 0008 00D0     		beq	.L17
 261              	.LVL9:
 262              	.L15:
  96:src/system/usart.c ****   {
  97:src/system/usart.c ****   /* USER CODE BEGIN USART2_MspDeInit 0 */
  98:src/system/usart.c **** 
  99:src/system/usart.c ****   /* USER CODE END USART2_MspDeInit 0 */
 100:src/system/usart.c ****     /* Peripheral clock disable */
 101:src/system/usart.c ****     __HAL_RCC_USART2_CLK_DISABLE();
 102:src/system/usart.c **** 
ARM GAS  /tmp/ccqGE2Ma.s 			page 8


 103:src/system/usart.c ****     /**USART2 GPIO Configuration
 104:src/system/usart.c ****     PA2     ------> USART2_TX
 105:src/system/usart.c ****     PA3     ------> USART2_RX
 106:src/system/usart.c ****     */
 107:src/system/usart.c ****     HAL_GPIO_DeInit(GPIOA, GPIO_PIN_2|GPIO_PIN_3);
 108:src/system/usart.c **** 
 109:src/system/usart.c ****   /* USER CODE BEGIN USART2_MspDeInit 1 */
 110:src/system/usart.c **** 
 111:src/system/usart.c ****   /* USER CODE END USART2_MspDeInit 1 */
 112:src/system/usart.c ****   }
 113:src/system/usart.c **** }
 263              		.loc 1 113 1 view .LVU77
 264              		@ sp needed
 265 000a 10BD     		pop	{r4, pc}
 266              	.LVL10:
 267              	.L17:
 101:src/system/usart.c **** 
 268              		.loc 1 101 5 is_stmt 1 view .LVU78
 107:src/system/usart.c **** 
 269              		.loc 1 107 5 is_stmt 0 view .LVU79
 270 000c A020     		movs	r0, #160
 271              	.LVL11:
 101:src/system/usart.c **** 
 272              		.loc 1 101 5 view .LVU80
 273 000e 064A     		ldr	r2, .L18+4
 274 0010 0649     		ldr	r1, .L18+8
 275 0012 D36B     		ldr	r3, [r2, #60]
 107:src/system/usart.c **** 
 276              		.loc 1 107 5 view .LVU81
 277 0014 C005     		lsls	r0, r0, #23
 101:src/system/usart.c **** 
 278              		.loc 1 101 5 view .LVU82
 279 0016 0B40     		ands	r3, r1
 280 0018 D363     		str	r3, [r2, #60]
 107:src/system/usart.c **** 
 281              		.loc 1 107 5 is_stmt 1 view .LVU83
 282 001a 0C21     		movs	r1, #12
 283 001c FFF7FEFF 		bl	HAL_GPIO_DeInit
 284              	.LVL12:
 285              		.loc 1 113 1 is_stmt 0 view .LVU84
 286 0020 F3E7     		b	.L15
 287              	.L19:
 288 0022 C046     		.align	2
 289              	.L18:
 290 0024 00440040 		.word	1073759232
 291 0028 00100240 		.word	1073876992
 292 002c FFFFFDFF 		.word	-131073
 293              		.cfi_endproc
 294              	.LFE216:
 296              		.global	huart2
 297              		.section	.bss.huart2,"aw",%nobits
 298              		.align	2
 301              	huart2:
 302 0000 00000000 		.space	148
 302      00000000 
 302      00000000 
 302      00000000 
ARM GAS  /tmp/ccqGE2Ma.s 			page 9


 302      00000000 
 303              		.text
 304              	.Letext0:
 305              		.file 2 "/usr/lib/gcc/arm-none-eabi/12.2.1/include/stdint.h"
 306              		.file 3 "external/drivers/cmsis/include/stm32c031xx.h"
 307              		.file 4 "external/drivers/stm32c0xx/include/stm32c0xx_hal_def.h"
 308              		.file 5 "external/drivers/stm32c0xx/include/stm32c0xx_hal_gpio.h"
 309              		.file 6 "external/drivers/stm32c0xx/include/stm32c0xx_hal_dma.h"
 310              		.file 7 "external/drivers/stm32c0xx/include/stm32c0xx_hal_uart.h"
 311              		.file 8 "src/system/usart.h"
 312              		.file 9 "src/system/init.h"
 313              		.file 10 "<built-in>"
ARM GAS  /tmp/ccqGE2Ma.s 			page 10

