ARM GAS  /tmp/ccRcRg8Y.s 			page 1


   1              		.cpu cortex-m7
   2              		.arch armv7e-m
   3              		.fpu fpv5-d16
   4              		.eabi_attribute 28, 1
   5              		.eabi_attribute 20, 1
   6              		.eabi_attribute 21, 1
   7              		.eabi_attribute 23, 3
   8              		.eabi_attribute 24, 1
   9              		.eabi_attribute 25, 1
  10              		.eabi_attribute 26, 1
  11              		.eabi_attribute 30, 1
  12              		.eabi_attribute 34, 1
  13              		.eabi_attribute 18, 4
  14              		.file	"adis16577.c"
  15              		.text
  16              	.Ltext0:
  17              		.cfi_sections	.debug_frame
  18              		.file 1 "src/drivers/adis16577/adis16577.c"
  19              		.section	.text.adis16577_init,"ax",%progbits
  20              		.align	1
  21              		.global	adis16577_init
  22              		.syntax unified
  23              		.thumb
  24              		.thumb_func
  26              	adis16577_init:
  27              	.LVL0:
  28              	.LFB147:
   1:src/drivers/adis16577/adis16577.c **** #include "adis16577.h"
   2:src/drivers/adis16577/adis16577.c **** #include "stm32h7xx_hal.h"
   3:src/drivers/adis16577/adis16577.c **** 
   4:src/drivers/adis16577/adis16577.c **** // TODO: figure out what the fuck is wrong with the read/write register functions 
   5:src/drivers/adis16577/adis16577.c **** // this does not work properly as written, hence the commented out code 
   6:src/drivers/adis16577/adis16577.c **** // burst read/write works fine otherwise
   7:src/drivers/adis16577/adis16577.c **** adis16577_err_t adis16577_init(adis16577_device_t *device) {
  29              		.loc 1 7 60 view -0
  30              		.cfi_startproc
  31              		@ args = 0, pretend = 0, frame = 8
  32              		@ frame_needed = 0, uses_anonymous_args = 0
  33              		.loc 1 7 60 is_stmt 0 view .LVU1
  34 0000 10B5     		push	{r4, lr}
  35              	.LCFI0:
  36              		.cfi_def_cfa_offset 8
  37              		.cfi_offset 4, -8
  38              		.cfi_offset 14, -4
  39 0002 82B0     		sub	sp, sp, #8
  40              	.LCFI1:
  41              		.cfi_def_cfa_offset 16
  42 0004 0446     		mov	r4, r0
   8:src/drivers/adis16577/adis16577.c ****   adis16577_err_t ret;
  43              		.loc 1 8 3 is_stmt 1 view .LVU2
   9:src/drivers/adis16577/adis16577.c **** 
  10:src/drivers/adis16577/adis16577.c ****   // Wait for the startup time (datasheet Table 1, p.3)
  11:src/drivers/adis16577/adis16577.c ****   adis16577_delay_ms(300);
  44              		.loc 1 11 3 view .LVU3
  45 0006 4FF49670 		mov	r0, #300
  46              	.LVL1:
  47              		.loc 1 11 3 is_stmt 0 view .LVU4
ARM GAS  /tmp/ccRcRg8Y.s 			page 2


  48 000a FFF7FEFF 		bl	adis16577_delay_ms
  49              	.LVL2:
  12:src/drivers/adis16577/adis16577.c **** 
  13:src/drivers/adis16577/adis16577.c ****   // // Soft reset (datasheet p.40)
  14:src/drivers/adis16577/adis16577.c ****   // uint8_t tx[] = {0xE8, 0x80, 0xE9, 0x00};
  15:src/drivers/adis16577/adis16577.c ****   // ret = adis16577_write_reg(device, ADIS16577_REG_GLOB_CMD, ADIS16577_SOFT_RESET);
  16:src/drivers/adis16577/adis16577.c ****   
  17:src/drivers/adis16577/adis16577.c ****   // if (ret != ADIS16577_ERR_OK) {
  18:src/drivers/adis16577/adis16577.c ****   //   return ret;
  19:src/drivers/adis16577/adis16577.c ****   // }s
  20:src/drivers/adis16577/adis16577.c **** 
  21:src/drivers/adis16577/adis16577.c ****   // Wait for the reset time (datasheet Table 1, p.3)
  22:src/drivers/adis16577/adis16577.c ****   // adis16577_delay_ms(250);
  23:src/drivers/adis16577/adis16577.c **** 
  24:src/drivers/adis16577/adis16577.c ****   // // Read/clear diag_stat
  25:src/drivers/adis16577/adis16577.c ****   // uint16_t diag_stat;
  26:src/drivers/adis16577/adis16577.c ****   // adis16577_read_reg(device, ADIS16577_REG_DIAG_STAT, &diag_stat);
  27:src/drivers/adis16577/adis16577.c **** 
  28:src/drivers/adis16577/adis16577.c ****   // printf("%x\r\n", diag_stat);  // TODO: better way of handling this
  29:src/drivers/adis16577/adis16577.c **** 
  30:src/drivers/adis16577/adis16577.c ****   // Verify product ID register (datasheet Table 135 p.41)
  31:src/drivers/adis16577/adis16577.c ****   uint16_t id;
  50              		.loc 1 31 3 is_stmt 1 view .LVU5
  32:src/drivers/adis16577/adis16577.c ****   // adis16577_read_id(device, &id);
  33:src/drivers/adis16577/adis16577.c ****   adis16577_read_id(device, &id);
  51              		.loc 1 33 3 view .LVU6
  52 000e 0DF10601 		add	r1, sp, #6
  53 0012 2046     		mov	r0, r4
  54 0014 FFF7FEFF 		bl	adis16577_read_id
  55              	.LVL3:
  34:src/drivers/adis16577/adis16577.c **** 
  35:src/drivers/adis16577/adis16577.c ****   if (id != ADIS16577_PROD_ID) {
  56              		.loc 1 35 3 view .LVU7
  57              		.loc 1 35 10 is_stmt 0 view .LVU8
  58 0018 BDF80620 		ldrh	r2, [sp, #6]
  59              		.loc 1 35 6 view .LVU9
  60 001c 44F2C103 		movw	r3, #16577
  61 0020 9A42     		cmp	r2, r3
  62 0022 02D0     		beq	.L5
  36:src/drivers/adis16577/adis16577.c ****     return ADIS16577_ERR_BAD_ID;
  63              		.loc 1 36 12 view .LVU10
  64 0024 0720     		movs	r0, #7
  65              	.L2:
  37:src/drivers/adis16577/adis16577.c ****   }
  38:src/drivers/adis16577/adis16577.c **** 
  39:src/drivers/adis16577/adis16577.c ****   // Form and write control register command
  40:src/drivers/adis16577/adis16577.c ****   uint16_t ctrl_reg = device->sync_mode | device->burst_data_length | device->burst_out_sel | devic
  41:src/drivers/adis16577/adis16577.c ****   ret = adis16577_write_reg(device, ADIS16577_REG_MSC_CTRL, ctrl_reg);
  42:src/drivers/adis16577/adis16577.c **** 
  43:src/drivers/adis16577/adis16577.c ****   if (ret != ADIS16577_ERR_OK) {
  44:src/drivers/adis16577/adis16577.c ****     return ret;
  45:src/drivers/adis16577/adis16577.c ****   }
  46:src/drivers/adis16577/adis16577.c **** 
  47:src/drivers/adis16577/adis16577.c **** 
  48:src/drivers/adis16577/adis16577.c ****   return ADIS16577_ERR_OK;
  49:src/drivers/adis16577/adis16577.c **** }
  66              		.loc 1 49 1 view .LVU11
ARM GAS  /tmp/ccRcRg8Y.s 			page 3


  67 0026 02B0     		add	sp, sp, #8
  68              	.LCFI2:
  69              		.cfi_remember_state
  70              		.cfi_def_cfa_offset 8
  71              		@ sp needed
  72 0028 10BD     		pop	{r4, pc}
  73              	.LVL4:
  74              	.L5:
  75              	.LCFI3:
  76              		.cfi_restore_state
  40:src/drivers/adis16577/adis16577.c ****   ret = adis16577_write_reg(device, ADIS16577_REG_MSC_CTRL, ctrl_reg);
  77              		.loc 1 40 3 is_stmt 1 view .LVU12
  40:src/drivers/adis16577/adis16577.c ****   ret = adis16577_write_reg(device, ADIS16577_REG_MSC_CTRL, ctrl_reg);
  78              		.loc 1 40 29 is_stmt 0 view .LVU13
  79 002a A188     		ldrh	r1, [r4, #4]
  40:src/drivers/adis16577/adis16577.c ****   ret = adis16577_write_reg(device, ADIS16577_REG_MSC_CTRL, ctrl_reg);
  80              		.loc 1 40 49 view .LVU14
  81 002c E088     		ldrh	r0, [r4, #6]
  40:src/drivers/adis16577/adis16577.c ****   ret = adis16577_write_reg(device, ADIS16577_REG_MSC_CTRL, ctrl_reg);
  82              		.loc 1 40 77 view .LVU15
  83 002e 2389     		ldrh	r3, [r4, #8]
  40:src/drivers/adis16577/adis16577.c ****   ret = adis16577_write_reg(device, ADIS16577_REG_MSC_CTRL, ctrl_reg);
  84              		.loc 1 40 101 view .LVU16
  85 0030 6289     		ldrh	r2, [r4, #10]
  40:src/drivers/adis16577/adis16577.c ****   ret = adis16577_write_reg(device, ADIS16577_REG_MSC_CTRL, ctrl_reg);
  86              		.loc 1 40 12 view .LVU17
  87 0032 0143     		orrs	r1, r1, r0
  88 0034 0B43     		orrs	r3, r3, r1
  89              	.LVL5:
  41:src/drivers/adis16577/adis16577.c **** 
  90              		.loc 1 41 3 is_stmt 1 view .LVU18
  41:src/drivers/adis16577/adis16577.c **** 
  91              		.loc 1 41 9 is_stmt 0 view .LVU19
  92 0036 1A43     		orrs	r2, r2, r3
  93              	.LVL6:
  41:src/drivers/adis16577/adis16577.c **** 
  94              		.loc 1 41 9 view .LVU20
  95 0038 6021     		movs	r1, #96
  96 003a 2046     		mov	r0, r4
  97 003c FFF7FEFF 		bl	adis16577_write_reg
  98              	.LVL7:
  43:src/drivers/adis16577/adis16577.c ****     return ret;
  99              		.loc 1 43 3 is_stmt 1 view .LVU21
 100 0040 F1E7     		b	.L2
 101              		.cfi_endproc
 102              	.LFE147:
 104              		.section	.text.adis16577_compute_checksum,"ax",%progbits
 105              		.align	1
 106              		.global	adis16577_compute_checksum
 107              		.syntax unified
 108              		.thumb
 109              		.thumb_func
 111              	adis16577_compute_checksum:
 112              	.LVL8:
 113              	.LFB151:
  50:src/drivers/adis16577/adis16577.c **** 
  51:src/drivers/adis16577/adis16577.c **** adis16577_err_t adis16577_get_raw(adis16577_device_t *device, float *gyro, float *accel, float *tem
ARM GAS  /tmp/ccRcRg8Y.s 			page 4


  52:src/drivers/adis16577/adis16577.c ****   adis16577_err_t ret;
  53:src/drivers/adis16577/adis16577.c **** 
  54:src/drivers/adis16577/adis16577.c ****   // Check we are in the right mode 
  55:src/drivers/adis16577/adis16577.c ****   if (device->burst_out_sel != ADIS16577_OUT_GYR_ACC) {
  56:src/drivers/adis16577/adis16577.c ****     return ADIS16577_ERR_BAD_CONFIG;
  57:src/drivers/adis16577/adis16577.c ****   }
  58:src/drivers/adis16577/adis16577.c **** 
  59:src/drivers/adis16577/adis16577.c ****   // Perform read and get data
  60:src/drivers/adis16577/adis16577.c ****   float gyro_raw[3];
  61:src/drivers/adis16577/adis16577.c ****   float accel_raw[3];
  62:src/drivers/adis16577/adis16577.c ****   ret = adis16577_read_data(device, gyro_raw, accel_raw, temp);
  63:src/drivers/adis16577/adis16577.c **** 
  64:src/drivers/adis16577/adis16577.c ****   if (ret != ADIS16577_ERR_OK) {
  65:src/drivers/adis16577/adis16577.c ****     return ret;
  66:src/drivers/adis16577/adis16577.c ****   }
  67:src/drivers/adis16577/adis16577.c **** 
  68:src/drivers/adis16577/adis16577.c ****   // Apply scale factors to data (see p.26 through 29)
  69:src/drivers/adis16577/adis16577.c ****   gyro[0] = gyro_raw[0]/655360.f;
  70:src/drivers/adis16577/adis16577.c ****   gyro[1] = gyro_raw[1]/655360.f;
  71:src/drivers/adis16577/adis16577.c ****   gyro[2] = gyro_raw[2]/655360.f;
  72:src/drivers/adis16577/adis16577.c **** 
  73:src/drivers/adis16577/adis16577.c ****   accel[0] = accel_raw[0]/52428800.f;
  74:src/drivers/adis16577/adis16577.c ****   accel[1] = accel_raw[1]/52428800.f;
  75:src/drivers/adis16577/adis16577.c ****   accel[2] = accel_raw[2]/52428800.f;
  76:src/drivers/adis16577/adis16577.c **** 
  77:src/drivers/adis16577/adis16577.c ****   return ADIS16577_ERR_OK;
  78:src/drivers/adis16577/adis16577.c **** }
  79:src/drivers/adis16577/adis16577.c **** 
  80:src/drivers/adis16577/adis16577.c **** adis16577_err_t adis16577_get_deltas(adis16577_device_t *device, float *delta_angle, float *delta_v
  81:src/drivers/adis16577/adis16577.c ****   adis16577_err_t ret;
  82:src/drivers/adis16577/adis16577.c **** 
  83:src/drivers/adis16577/adis16577.c ****   // Check we are in the right mode 
  84:src/drivers/adis16577/adis16577.c ****   if (device->burst_out_sel != ADIS16577_OUT_DELTA) {
  85:src/drivers/adis16577/adis16577.c ****     return ADIS16577_ERR_BAD_CONFIG;
  86:src/drivers/adis16577/adis16577.c ****   }
  87:src/drivers/adis16577/adis16577.c **** 
  88:src/drivers/adis16577/adis16577.c ****   // Perform read and get data
  89:src/drivers/adis16577/adis16577.c ****   float gyro_raw[3];
  90:src/drivers/adis16577/adis16577.c ****   float accel_raw[3];
  91:src/drivers/adis16577/adis16577.c ****   ret = adis16577_read_data(device, gyro_raw, accel_raw, temp);
  92:src/drivers/adis16577/adis16577.c **** 
  93:src/drivers/adis16577/adis16577.c ****   if (ret != ADIS16577_ERR_OK) {
  94:src/drivers/adis16577/adis16577.c ****     return ret;
  95:src/drivers/adis16577/adis16577.c ****   }
  96:src/drivers/adis16577/adis16577.c **** 
  97:src/drivers/adis16577/adis16577.c ****   // Apply scale factors to data (see p.30 through 32)
  98:src/drivers/adis16577/adis16577.c ****   // TODO: correct scale factors
  99:src/drivers/adis16577/adis16577.c ****   delta_angle[0] = gyro_raw[0]/655360.f;
 100:src/drivers/adis16577/adis16577.c ****   delta_angle[1] = gyro_raw[1]/655360.f;
 101:src/drivers/adis16577/adis16577.c ****   delta_angle[2] = gyro_raw[2]/655360.f;
 102:src/drivers/adis16577/adis16577.c **** 
 103:src/drivers/adis16577/adis16577.c ****   delta_vel[0] = accel_raw[0]/52428800.f;
 104:src/drivers/adis16577/adis16577.c ****   delta_vel[1] = accel_raw[1]/52428800.f;
 105:src/drivers/adis16577/adis16577.c ****   delta_vel[2] = accel_raw[2]/52428800.f;
 106:src/drivers/adis16577/adis16577.c **** 
 107:src/drivers/adis16577/adis16577.c ****   return ADIS16577_ERR_OK;
 108:src/drivers/adis16577/adis16577.c **** 
ARM GAS  /tmp/ccRcRg8Y.s 			page 5


 109:src/drivers/adis16577/adis16577.c **** }
 110:src/drivers/adis16577/adis16577.c **** 
 111:src/drivers/adis16577/adis16577.c **** adis16577_err_t adis16577_read_data(adis16577_device_t *device, float *data1, float *data2, float *
 112:src/drivers/adis16577/adis16577.c ****   // Declare variables 
 113:src/drivers/adis16577/adis16577.c ****   adis16577_err_t ret;
 114:src/drivers/adis16577/adis16577.c ****   uint16_t buf[ADIS16577_MAX_RX_BUFFER];
 115:src/drivers/adis16577/adis16577.c **** 
 116:src/drivers/adis16577/adis16577.c ****   // Burst-read the device in 32-bit or 16-bit mode
 117:src/drivers/adis16577/adis16577.c ****   if (device->burst_data_length == ADIS16577_BURST_32) { // 32-bit case
 118:src/drivers/adis16577/adis16577.c ****     // Burst-read device
 119:src/drivers/adis16577/adis16577.c ****     ret = adis16577_burst_read(device, ADIS16577_BURST_32_NUM_VALS, buf);
 120:src/drivers/adis16577/adis16577.c ****     
 121:src/drivers/adis16577/adis16577.c ****     if (ret != ADIS16577_ERR_OK) {
 122:src/drivers/adis16577/adis16577.c ****       return ret;
 123:src/drivers/adis16577/adis16577.c ****     }
 124:src/drivers/adis16577/adis16577.c **** 
 125:src/drivers/adis16577/adis16577.c ****     // Decode device
 126:src/drivers/adis16577/adis16577.c ****     ret = adis16577_decode_32(buf, data1, data2, temp);
 127:src/drivers/adis16577/adis16577.c ****     
 128:src/drivers/adis16577/adis16577.c ****     if (ret != ADIS16577_ERR_OK) {
 129:src/drivers/adis16577/adis16577.c ****       return ret;
 130:src/drivers/adis16577/adis16577.c ****     }
 131:src/drivers/adis16577/adis16577.c ****   } else if (device->burst_data_length == ADIS16577_BURST_16) { // 16-bit case
 132:src/drivers/adis16577/adis16577.c ****     // Burst-read device
 133:src/drivers/adis16577/adis16577.c ****     ret = adis16577_burst_read(device, ADIS16577_BURST_16_NUM_VALS, buf);
 134:src/drivers/adis16577/adis16577.c ****     
 135:src/drivers/adis16577/adis16577.c ****     if (ret != ADIS16577_ERR_OK) {
 136:src/drivers/adis16577/adis16577.c ****       return ret;
 137:src/drivers/adis16577/adis16577.c ****     }
 138:src/drivers/adis16577/adis16577.c ****     
 139:src/drivers/adis16577/adis16577.c ****     ret = adis16577_decode_16(buf, data1, data2, temp);
 140:src/drivers/adis16577/adis16577.c ****     
 141:src/drivers/adis16577/adis16577.c ****     if (ret != ADIS16577_ERR_OK) {
 142:src/drivers/adis16577/adis16577.c ****       return ret;
 143:src/drivers/adis16577/adis16577.c ****     }
 144:src/drivers/adis16577/adis16577.c ****   } else {  // Otherwise
 145:src/drivers/adis16577/adis16577.c ****     return ADIS16577_ERR_BAD_CONFIG;
 146:src/drivers/adis16577/adis16577.c ****   }
 147:src/drivers/adis16577/adis16577.c **** 
 148:src/drivers/adis16577/adis16577.c ****   return ADIS16577_ERR_OK;
 149:src/drivers/adis16577/adis16577.c **** }
 150:src/drivers/adis16577/adis16577.c **** 
 151:src/drivers/adis16577/adis16577.c **** adis16577_err_t adis16577_compute_checksum(uint16_t num_vals, uint16_t *buf, uint16_t *checksum) {
 114              		.loc 1 151 98 view -0
 115              		.cfi_startproc
 116              		@ args = 0, pretend = 0, frame = 0
 117              		@ frame_needed = 0, uses_anonymous_args = 0
 118              		.loc 1 151 98 is_stmt 0 view .LVU23
 119 0000 00B5     		push	{lr}
 120              	.LCFI4:
 121              		.cfi_def_cfa_offset 4
 122              		.cfi_offset 14, -4
 152:src/drivers/adis16577/adis16577.c ****   uint16_t sum = 0;
 123              		.loc 1 152 3 is_stmt 1 view .LVU24
 124              	.LVL9:
 153:src/drivers/adis16577/adis16577.c **** 
 154:src/drivers/adis16577/adis16577.c ****   // Cycle through all bytes except for FIFO_CNT, DIAG_STAT, and checksum
ARM GAS  /tmp/ccRcRg8Y.s 			page 6


 155:src/drivers/adis16577/adis16577.c ****   for (uint8_t i = 2; i < num_vals - 1; i++) {
 125              		.loc 1 155 3 view .LVU25
 126              	.LBB2:
 127              		.loc 1 155 8 view .LVU26
 128              		.loc 1 155 16 is_stmt 0 view .LVU27
 129 0002 0223     		movs	r3, #2
 130              	.LBE2:
 152:src/drivers/adis16577/adis16577.c ****   uint16_t sum = 0;
 131              		.loc 1 152 12 view .LVU28
 132 0004 4FF0000C 		mov	ip, #0
 133              	.LBB3:
 134              		.loc 1 155 3 view .LVU29
 135 0008 0BE0     		b	.L7
 136              	.LVL10:
 137              	.L8:
 156:src/drivers/adis16577/adis16577.c ****     sum += (uint16_t)(buf[i] >> 8);
 138              		.loc 1 156 5 is_stmt 1 discriminator 3 view .LVU30
 139              		.loc 1 156 26 is_stmt 0 discriminator 3 view .LVU31
 140 000a 31F813E0 		ldrh	lr, [r1, r3, lsl #1]
 141              		.loc 1 156 9 discriminator 3 view .LVU32
 142 000e 0CEB1E2C 		add	ip, ip, lr, lsr #8
 143              	.LVL11:
 157:src/drivers/adis16577/adis16577.c ****     sum += (uint16_t)(buf[i] & 0x00FF);
 144              		.loc 1 157 5 is_stmt 1 discriminator 3 view .LVU33
 145              		.loc 1 157 12 is_stmt 0 discriminator 3 view .LVU34
 146 0012 5FFA8EFE 		uxtb	lr, lr
 147              		.loc 1 157 9 discriminator 3 view .LVU35
 148 0016 1EFA8CFC 		uxtah	ip, lr, ip
 149              	.LVL12:
 150              		.loc 1 157 9 discriminator 3 view .LVU36
 151 001a 1FFA8CFC 		uxth	ip, ip
 152              	.LVL13:
 155:src/drivers/adis16577/adis16577.c ****     sum += (uint16_t)(buf[i] >> 8);
 153              		.loc 1 155 42 is_stmt 1 discriminator 3 view .LVU37
 154 001e 0133     		adds	r3, r3, #1
 155              	.LVL14:
 155:src/drivers/adis16577/adis16577.c ****     sum += (uint16_t)(buf[i] >> 8);
 156              		.loc 1 155 42 is_stmt 0 discriminator 3 view .LVU38
 157 0020 DBB2     		uxtb	r3, r3
 158              	.LVL15:
 159              	.L7:
 155:src/drivers/adis16577/adis16577.c ****     sum += (uint16_t)(buf[i] >> 8);
 160              		.loc 1 155 25 is_stmt 1 discriminator 1 view .LVU39
 155:src/drivers/adis16577/adis16577.c ****     sum += (uint16_t)(buf[i] >> 8);
 161              		.loc 1 155 36 is_stmt 0 discriminator 1 view .LVU40
 162 0022 00F1FF3E 		add	lr, r0, #-1
 155:src/drivers/adis16577/adis16577.c ****     sum += (uint16_t)(buf[i] >> 8);
 163              		.loc 1 155 25 discriminator 1 view .LVU41
 164 0026 7345     		cmp	r3, lr
 165 0028 EFDB     		blt	.L8
 166              	.LBE3:
 158:src/drivers/adis16577/adis16577.c ****   }
 159:src/drivers/adis16577/adis16577.c **** 
 160:src/drivers/adis16577/adis16577.c ****   *checksum = sum;
 167              		.loc 1 160 3 is_stmt 1 view .LVU42
 168              		.loc 1 160 13 is_stmt 0 view .LVU43
 169 002a A2F800C0 		strh	ip, [r2]	@ movhi
ARM GAS  /tmp/ccRcRg8Y.s 			page 7


 161:src/drivers/adis16577/adis16577.c ****   
 162:src/drivers/adis16577/adis16577.c ****   return ADIS16577_ERR_OK;
 170              		.loc 1 162 3 is_stmt 1 view .LVU44
 163:src/drivers/adis16577/adis16577.c **** }
 171              		.loc 1 163 1 is_stmt 0 view .LVU45
 172 002e 0020     		movs	r0, #0
 173              	.LVL16:
 174              		.loc 1 163 1 view .LVU46
 175 0030 5DF804FB 		ldr	pc, [sp], #4
 176              		.cfi_endproc
 177              	.LFE151:
 179              		.section	.text.adis16577_decode_16,"ax",%progbits
 180              		.align	1
 181              		.global	adis16577_decode_16
 182              		.syntax unified
 183              		.thumb
 184              		.thumb_func
 186              	adis16577_decode_16:
 187              	.LVL17:
 188              	.LFB152:
 164:src/drivers/adis16577/adis16577.c **** 
 165:src/drivers/adis16577/adis16577.c **** // TODO: make all values float32_t not float
 166:src/drivers/adis16577/adis16577.c **** adis16577_err_t adis16577_decode_16(uint16_t *buf, float g[3], float a[3], float *temp) {
 189              		.loc 1 166 89 is_stmt 1 view -0
 190              		.cfi_startproc
 191              		@ args = 0, pretend = 0, frame = 8
 192              		@ frame_needed = 0, uses_anonymous_args = 0
 193              		.loc 1 166 89 is_stmt 0 view .LVU48
 194 0000 F0B5     		push	{r4, r5, r6, r7, lr}
 195              	.LCFI5:
 196              		.cfi_def_cfa_offset 20
 197              		.cfi_offset 4, -20
 198              		.cfi_offset 5, -16
 199              		.cfi_offset 6, -12
 200              		.cfi_offset 7, -8
 201              		.cfi_offset 14, -4
 202 0002 83B0     		sub	sp, sp, #12
 203              	.LCFI6:
 204              		.cfi_def_cfa_offset 32
 205 0004 0446     		mov	r4, r0
 206 0006 0E46     		mov	r6, r1
 207 0008 1546     		mov	r5, r2
 208 000a 1F46     		mov	r7, r3
 167:src/drivers/adis16577/adis16577.c ****   // Compute checksum
 168:src/drivers/adis16577/adis16577.c ****   uint16_t checksum;
 209              		.loc 1 168 3 is_stmt 1 view .LVU49
 169:src/drivers/adis16577/adis16577.c ****   adis16577_compute_checksum(ADIS16577_BURST_16_NUM_VALS, buf, &checksum);
 210              		.loc 1 169 3 view .LVU50
 211 000c 0DF10602 		add	r2, sp, #6
 212              	.LVL18:
 213              		.loc 1 169 3 is_stmt 0 view .LVU51
 214 0010 0146     		mov	r1, r0
 215              	.LVL19:
 216              		.loc 1 169 3 view .LVU52
 217 0012 0B20     		movs	r0, #11
 218              	.LVL20:
 219              		.loc 1 169 3 view .LVU53
ARM GAS  /tmp/ccRcRg8Y.s 			page 8


 220 0014 FFF7FEFF 		bl	adis16577_compute_checksum
 221              	.LVL21:
 170:src/drivers/adis16577/adis16577.c **** 
 171:src/drivers/adis16577/adis16577.c ****   if (checksum != buf[ADIS16577_BURST_16_NUM_VALS - 1]) {
 222              		.loc 1 171 3 is_stmt 1 view .LVU54
 223              		.loc 1 171 22 is_stmt 0 view .LVU55
 224 0018 A28A     		ldrh	r2, [r4, #20]
 225              		.loc 1 171 16 view .LVU56
 226 001a BDF80630 		ldrh	r3, [sp, #6]
 227              		.loc 1 171 6 view .LVU57
 228 001e 9A42     		cmp	r2, r3
 229 0020 3ED1     		bne	.L12
 172:src/drivers/adis16577/adis16577.c ****     return ADIS16577_ERR_BAD_CHECKSUM;
 173:src/drivers/adis16577/adis16577.c ****   }
 174:src/drivers/adis16577/adis16577.c **** 
 175:src/drivers/adis16577/adis16577.c ****   // Otherwise, parse packet based on datasheet Table 88 (p.33)
 176:src/drivers/adis16577/adis16577.c ****   g[0] = (float)((int32_t)(buf[2] << 16));
 230              		.loc 1 176 3 is_stmt 1 view .LVU58
 231              		.loc 1 176 31 is_stmt 0 view .LVU59
 232 0022 A388     		ldrh	r3, [r4, #4]
 233              		.loc 1 176 18 view .LVU60
 234 0024 1B04     		lsls	r3, r3, #16
 235              		.loc 1 176 10 view .LVU61
 236 0026 07EE903A 		vmov	s15, r3	@ int
 237 002a F8EEE77A 		vcvt.f32.s32	s15, s15
 238              		.loc 1 176 8 view .LVU62
 239 002e C6ED007A 		vstr.32	s15, [r6]
 177:src/drivers/adis16577/adis16577.c ****   g[1] = (float)((int32_t)(buf[3] << 16));
 240              		.loc 1 177 3 is_stmt 1 view .LVU63
 241              		.loc 1 177 31 is_stmt 0 view .LVU64
 242 0032 E388     		ldrh	r3, [r4, #6]
 243              		.loc 1 177 18 view .LVU65
 244 0034 1B04     		lsls	r3, r3, #16
 245              		.loc 1 177 10 view .LVU66
 246 0036 07EE903A 		vmov	s15, r3	@ int
 247 003a F8EEE77A 		vcvt.f32.s32	s15, s15
 248              		.loc 1 177 8 view .LVU67
 249 003e C6ED017A 		vstr.32	s15, [r6, #4]
 178:src/drivers/adis16577/adis16577.c ****   g[2] = (float)((int32_t)(buf[4] << 16));
 250              		.loc 1 178 3 is_stmt 1 view .LVU68
 251              		.loc 1 178 31 is_stmt 0 view .LVU69
 252 0042 2389     		ldrh	r3, [r4, #8]
 253              		.loc 1 178 18 view .LVU70
 254 0044 1B04     		lsls	r3, r3, #16
 255              		.loc 1 178 10 view .LVU71
 256 0046 07EE903A 		vmov	s15, r3	@ int
 257 004a F8EEE77A 		vcvt.f32.s32	s15, s15
 258              		.loc 1 178 8 view .LVU72
 259 004e C6ED027A 		vstr.32	s15, [r6, #8]
 179:src/drivers/adis16577/adis16577.c **** 
 180:src/drivers/adis16577/adis16577.c ****   a[0] = (float)((int32_t)(buf[5] << 16));
 260              		.loc 1 180 3 is_stmt 1 view .LVU73
 261              		.loc 1 180 31 is_stmt 0 view .LVU74
 262 0052 6389     		ldrh	r3, [r4, #10]
 263              		.loc 1 180 18 view .LVU75
 264 0054 1B04     		lsls	r3, r3, #16
 265              		.loc 1 180 10 view .LVU76
ARM GAS  /tmp/ccRcRg8Y.s 			page 9


 266 0056 07EE903A 		vmov	s15, r3	@ int
 267 005a F8EEE77A 		vcvt.f32.s32	s15, s15
 268              		.loc 1 180 8 view .LVU77
 269 005e C5ED007A 		vstr.32	s15, [r5]
 181:src/drivers/adis16577/adis16577.c ****   a[1] = (float)((int32_t)(buf[6] << 16));
 270              		.loc 1 181 3 is_stmt 1 view .LVU78
 271              		.loc 1 181 31 is_stmt 0 view .LVU79
 272 0062 A289     		ldrh	r2, [r4, #12]
 273              		.loc 1 181 18 view .LVU80
 274 0064 1204     		lsls	r2, r2, #16
 275              		.loc 1 181 10 view .LVU81
 276 0066 07EE902A 		vmov	s15, r2	@ int
 277 006a F8EEE77A 		vcvt.f32.s32	s15, s15
 278              		.loc 1 181 8 view .LVU82
 279 006e C5ED017A 		vstr.32	s15, [r5, #4]
 182:src/drivers/adis16577/adis16577.c ****   a[2] = (float)((int32_t)(buf[7] << 16));
 280              		.loc 1 182 3 is_stmt 1 view .LVU83
 281              		.loc 1 182 31 is_stmt 0 view .LVU84
 282 0072 E289     		ldrh	r2, [r4, #14]
 283              		.loc 1 182 18 view .LVU85
 284 0074 1204     		lsls	r2, r2, #16
 285              		.loc 1 182 10 view .LVU86
 286 0076 07EE902A 		vmov	s15, r2	@ int
 287 007a F8EEE77A 		vcvt.f32.s32	s15, s15
 288              		.loc 1 182 8 view .LVU87
 289 007e C5ED027A 		vstr.32	s15, [r5, #8]
 183:src/drivers/adis16577/adis16577.c **** 
 184:src/drivers/adis16577/adis16577.c ****   *temp = (float)((int16_t)buf[8]*0.1f);
 290              		.loc 1 184 3 is_stmt 1 view .LVU88
 291              		.loc 1 184 19 is_stmt 0 view .LVU89
 292 0082 B4F91030 		ldrsh	r3, [r4, #16]
 293 0086 07EE903A 		vmov	s15, r3	@ int
 294              		.loc 1 184 11 view .LVU90
 295 008a F8EEE77A 		vcvt.f32.s32	s15, s15
 296 008e 9FED057A 		vldr.32	s14, .L14
 297 0092 67EE877A 		vmul.f32	s15, s15, s14
 298              		.loc 1 184 9 view .LVU91
 299 0096 C7ED007A 		vstr.32	s15, [r7]
 185:src/drivers/adis16577/adis16577.c **** 
 186:src/drivers/adis16577/adis16577.c ****   return ADIS16577_ERR_OK;
 300              		.loc 1 186 3 is_stmt 1 view .LVU92
 301              		.loc 1 186 10 is_stmt 0 view .LVU93
 302 009a 0020     		movs	r0, #0
 303              	.L11:
 187:src/drivers/adis16577/adis16577.c **** }
 304              		.loc 1 187 1 view .LVU94
 305 009c 03B0     		add	sp, sp, #12
 306              	.LCFI7:
 307              		.cfi_remember_state
 308              		.cfi_def_cfa_offset 20
 309              		@ sp needed
 310 009e F0BD     		pop	{r4, r5, r6, r7, pc}
 311              	.LVL22:
 312              	.L12:
 313              	.LCFI8:
 314              		.cfi_restore_state
 172:src/drivers/adis16577/adis16577.c ****   }
ARM GAS  /tmp/ccRcRg8Y.s 			page 10


 315              		.loc 1 172 12 view .LVU95
 316 00a0 0420     		movs	r0, #4
 317 00a2 FBE7     		b	.L11
 318              	.L15:
 319              		.align	2
 320              	.L14:
 321 00a4 CDCCCC3D 		.word	1036831949
 322              		.cfi_endproc
 323              	.LFE152:
 325              		.section	.text.adis16577_decode_32,"ax",%progbits
 326              		.align	1
 327              		.global	adis16577_decode_32
 328              		.syntax unified
 329              		.thumb
 330              		.thumb_func
 332              	adis16577_decode_32:
 333              	.LVL23:
 334              	.LFB153:
 188:src/drivers/adis16577/adis16577.c **** 
 189:src/drivers/adis16577/adis16577.c **** // TODO: make these all float32_t values
 190:src/drivers/adis16577/adis16577.c **** adis16577_err_t adis16577_decode_32(uint16_t *buf, float g[3], float a[3], float *temp) {
 335              		.loc 1 190 89 is_stmt 1 view -0
 336              		.cfi_startproc
 337              		@ args = 0, pretend = 0, frame = 8
 338              		@ frame_needed = 0, uses_anonymous_args = 0
 339              		.loc 1 190 89 is_stmt 0 view .LVU97
 340 0000 F0B5     		push	{r4, r5, r6, r7, lr}
 341              	.LCFI9:
 342              		.cfi_def_cfa_offset 20
 343              		.cfi_offset 4, -20
 344              		.cfi_offset 5, -16
 345              		.cfi_offset 6, -12
 346              		.cfi_offset 7, -8
 347              		.cfi_offset 14, -4
 348 0002 83B0     		sub	sp, sp, #12
 349              	.LCFI10:
 350              		.cfi_def_cfa_offset 32
 351 0004 0446     		mov	r4, r0
 352 0006 0E46     		mov	r6, r1
 353 0008 1546     		mov	r5, r2
 354 000a 1F46     		mov	r7, r3
 191:src/drivers/adis16577/adis16577.c ****   // Compute checksum 
 192:src/drivers/adis16577/adis16577.c ****   uint16_t checksum;
 355              		.loc 1 192 3 is_stmt 1 view .LVU98
 193:src/drivers/adis16577/adis16577.c ****   adis16577_compute_checksum(ADIS16577_BURST_32_NUM_VALS, buf, &checksum);
 356              		.loc 1 193 3 view .LVU99
 357 000c 0DF10602 		add	r2, sp, #6
 358              	.LVL24:
 359              		.loc 1 193 3 is_stmt 0 view .LVU100
 360 0010 0146     		mov	r1, r0
 361              	.LVL25:
 362              		.loc 1 193 3 view .LVU101
 363 0012 1220     		movs	r0, #18
 364              	.LVL26:
 365              		.loc 1 193 3 view .LVU102
 366 0014 FFF7FEFF 		bl	adis16577_compute_checksum
 367              	.LVL27:
ARM GAS  /tmp/ccRcRg8Y.s 			page 11


 194:src/drivers/adis16577/adis16577.c **** 
 195:src/drivers/adis16577/adis16577.c ****   if (checksum != buf[ADIS16577_BURST_32_NUM_VALS - 1]) {
 368              		.loc 1 195 3 is_stmt 1 view .LVU103
 369              		.loc 1 195 22 is_stmt 0 view .LVU104
 370 0018 628C     		ldrh	r2, [r4, #34]
 371              		.loc 1 195 16 view .LVU105
 372 001a BDF80630 		ldrh	r3, [sp, #6]
 373              		.loc 1 195 6 view .LVU106
 374 001e 9A42     		cmp	r2, r3
 375 0020 4AD1     		bne	.L18
 196:src/drivers/adis16577/adis16577.c ****     return ADIS16577_ERR_BAD_CHECKSUM;
 197:src/drivers/adis16577/adis16577.c ****   }
 198:src/drivers/adis16577/adis16577.c **** 
 199:src/drivers/adis16577/adis16577.c ****   // Otherwise, parse packet based on datasheet Table 88 (p.33)
 200:src/drivers/adis16577/adis16577.c ****   g[0] = (float)((int32_t)((buf[3] << 16) | buf[2]));
 376              		.loc 1 200 3 is_stmt 1 view .LVU107
 377              		.loc 1 200 32 is_stmt 0 view .LVU108
 378 0022 E288     		ldrh	r2, [r4, #6]
 379              		.loc 1 200 48 view .LVU109
 380 0024 A388     		ldrh	r3, [r4, #4]
 381              		.loc 1 200 43 view .LVU110
 382 0026 43EA0243 		orr	r3, r3, r2, lsl #16
 383              		.loc 1 200 10 view .LVU111
 384 002a 07EE903A 		vmov	s15, r3	@ int
 385 002e F8EEE77A 		vcvt.f32.s32	s15, s15
 386              		.loc 1 200 8 view .LVU112
 387 0032 C6ED007A 		vstr.32	s15, [r6]
 201:src/drivers/adis16577/adis16577.c ****   g[1] = (float)((int32_t)((buf[5] << 16) | buf[4]));
 388              		.loc 1 201 3 is_stmt 1 view .LVU113
 389              		.loc 1 201 32 is_stmt 0 view .LVU114
 390 0036 6289     		ldrh	r2, [r4, #10]
 391              		.loc 1 201 48 view .LVU115
 392 0038 2389     		ldrh	r3, [r4, #8]
 393              		.loc 1 201 43 view .LVU116
 394 003a 43EA0243 		orr	r3, r3, r2, lsl #16
 395              		.loc 1 201 10 view .LVU117
 396 003e 07EE903A 		vmov	s15, r3	@ int
 397 0042 F8EEE77A 		vcvt.f32.s32	s15, s15
 398              		.loc 1 201 8 view .LVU118
 399 0046 C6ED017A 		vstr.32	s15, [r6, #4]
 202:src/drivers/adis16577/adis16577.c ****   g[2] = (float)((int32_t)((buf[7] << 16) | buf[6]));
 400              		.loc 1 202 3 is_stmt 1 view .LVU119
 401              		.loc 1 202 32 is_stmt 0 view .LVU120
 402 004a E289     		ldrh	r2, [r4, #14]
 403              		.loc 1 202 48 view .LVU121
 404 004c A389     		ldrh	r3, [r4, #12]
 405              		.loc 1 202 43 view .LVU122
 406 004e 43EA0243 		orr	r3, r3, r2, lsl #16
 407              		.loc 1 202 10 view .LVU123
 408 0052 07EE903A 		vmov	s15, r3	@ int
 409 0056 F8EEE77A 		vcvt.f32.s32	s15, s15
 410              		.loc 1 202 8 view .LVU124
 411 005a C6ED027A 		vstr.32	s15, [r6, #8]
 203:src/drivers/adis16577/adis16577.c **** 
 204:src/drivers/adis16577/adis16577.c ****   a[0] = (float)((int32_t)((buf[9] << 16) | buf[8]));
 412              		.loc 1 204 3 is_stmt 1 view .LVU125
 413              		.loc 1 204 32 is_stmt 0 view .LVU126
ARM GAS  /tmp/ccRcRg8Y.s 			page 12


 414 005e 628A     		ldrh	r2, [r4, #18]
 415              		.loc 1 204 48 view .LVU127
 416 0060 238A     		ldrh	r3, [r4, #16]
 417              		.loc 1 204 43 view .LVU128
 418 0062 43EA0243 		orr	r3, r3, r2, lsl #16
 419              		.loc 1 204 10 view .LVU129
 420 0066 07EE903A 		vmov	s15, r3	@ int
 421 006a F8EEE77A 		vcvt.f32.s32	s15, s15
 422              		.loc 1 204 8 view .LVU130
 423 006e C5ED007A 		vstr.32	s15, [r5]
 205:src/drivers/adis16577/adis16577.c ****   a[1] = (float)((int32_t)((buf[11] << 16) | buf[10]));
 424              		.loc 1 205 3 is_stmt 1 view .LVU131
 425              		.loc 1 205 32 is_stmt 0 view .LVU132
 426 0072 E38A     		ldrh	r3, [r4, #22]
 427              		.loc 1 205 49 view .LVU133
 428 0074 A28A     		ldrh	r2, [r4, #20]
 429              		.loc 1 205 44 view .LVU134
 430 0076 42EA0342 		orr	r2, r2, r3, lsl #16
 431              		.loc 1 205 10 view .LVU135
 432 007a 07EE902A 		vmov	s15, r2	@ int
 433 007e F8EEE77A 		vcvt.f32.s32	s15, s15
 434              		.loc 1 205 8 view .LVU136
 435 0082 C5ED017A 		vstr.32	s15, [r5, #4]
 206:src/drivers/adis16577/adis16577.c ****   a[2] = (float)((int32_t)((buf[13] << 16) | buf[12]));
 436              		.loc 1 206 3 is_stmt 1 view .LVU137
 437              		.loc 1 206 32 is_stmt 0 view .LVU138
 438 0086 638B     		ldrh	r3, [r4, #26]
 439              		.loc 1 206 49 view .LVU139
 440 0088 228B     		ldrh	r2, [r4, #24]
 441              		.loc 1 206 44 view .LVU140
 442 008a 42EA0342 		orr	r2, r2, r3, lsl #16
 443              		.loc 1 206 10 view .LVU141
 444 008e 07EE902A 		vmov	s15, r2	@ int
 445 0092 F8EEE77A 		vcvt.f32.s32	s15, s15
 446              		.loc 1 206 8 view .LVU142
 447 0096 C5ED027A 		vstr.32	s15, [r5, #8]
 207:src/drivers/adis16577/adis16577.c **** 
 208:src/drivers/adis16577/adis16577.c ****   *temp = (float)((int16_t)buf[14]*0.1f);
 448              		.loc 1 208 3 is_stmt 1 view .LVU143
 449              		.loc 1 208 19 is_stmt 0 view .LVU144
 450 009a B4F91C30 		ldrsh	r3, [r4, #28]
 451 009e 07EE903A 		vmov	s15, r3	@ int
 452              		.loc 1 208 11 view .LVU145
 453 00a2 F8EEE77A 		vcvt.f32.s32	s15, s15
 454 00a6 9FED057A 		vldr.32	s14, .L20
 455 00aa 67EE877A 		vmul.f32	s15, s15, s14
 456              		.loc 1 208 9 view .LVU146
 457 00ae C7ED007A 		vstr.32	s15, [r7]
 209:src/drivers/adis16577/adis16577.c **** 
 210:src/drivers/adis16577/adis16577.c ****   return ADIS16577_ERR_OK;
 458              		.loc 1 210 3 is_stmt 1 view .LVU147
 459              		.loc 1 210 10 is_stmt 0 view .LVU148
 460 00b2 0020     		movs	r0, #0
 461              	.L17:
 211:src/drivers/adis16577/adis16577.c **** }...
 462              		.loc 1 211 1 view .LVU149
 463 00b4 03B0     		add	sp, sp, #12
ARM GAS  /tmp/ccRcRg8Y.s 			page 13


 464              	.LCFI11:
 465              		.cfi_remember_state
 466              		.cfi_def_cfa_offset 20
 467              		@ sp needed
 468 00b6 F0BD     		pop	{r4, r5, r6, r7, pc}
 469              	.LVL28:
 470              	.L18:
 471              	.LCFI12:
 472              		.cfi_restore_state
 196:src/drivers/adis16577/adis16577.c ****     return ADIS16577_ERR_BAD_CHECKSUM;
 473              		.loc 1 196 12 view .LVU150
 474 00b8 0420     		movs	r0, #4
 475 00ba FBE7     		b	.L17
 476              	.L21:
 477              		.align	2
 478              	.L20:
 479 00bc CDCCCC3D 		.word	1036831949
 480              		.cfi_endproc
 481              	.LFE153:
 483              		.section	.text.adis16577_read_data,"ax",%progbits
 484              		.align	1
 485              		.global	adis16577_read_data
 486              		.syntax unified
 487              		.thumb
 488              		.thumb_func
 490              	adis16577_read_data:
 491              	.LVL29:
 492              	.LFB150:
 111:src/drivers/adis16577/adis16577.c **** adis16577_err_t adis16577_read_data(adis16577_device_t *device, float *data1, float *data2, float *
 493              		.loc 1 111 106 is_stmt 1 view -0
 494              		.cfi_startproc
 495              		@ args = 0, pretend = 0, frame = 512
 496              		@ frame_needed = 0, uses_anonymous_args = 0
 111:src/drivers/adis16577/adis16577.c **** adis16577_err_t adis16577_read_data(adis16577_device_t *device, float *data1, float *data2, float *
 497              		.loc 1 111 106 is_stmt 0 view .LVU152
 498 0000 70B5     		push	{r4, r5, r6, lr}
 499              	.LCFI13:
 500              		.cfi_def_cfa_offset 16
 501              		.cfi_offset 4, -16
 502              		.cfi_offset 5, -12
 503              		.cfi_offset 6, -8
 504              		.cfi_offset 14, -4
 505 0002 ADF5007D 		sub	sp, sp, #512
 506              	.LCFI14:
 507              		.cfi_def_cfa_offset 528
 508 0006 0E46     		mov	r6, r1
 509 0008 1546     		mov	r5, r2
 510 000a 1C46     		mov	r4, r3
 113:src/drivers/adis16577/adis16577.c ****   adis16577_err_t ret;
 511              		.loc 1 113 3 is_stmt 1 view .LVU153
 114:src/drivers/adis16577/adis16577.c ****   uint16_t buf[ADIS16577_MAX_RX_BUFFER];
 512              		.loc 1 114 3 view .LVU154
 117:src/drivers/adis16577/adis16577.c ****   if (device->burst_data_length == ADIS16577_BURST_32) { // 32-bit case
 513              		.loc 1 117 3 view .LVU155
 117:src/drivers/adis16577/adis16577.c ****   if (device->burst_data_length == ADIS16577_BURST_32) { // 32-bit case
 514              		.loc 1 117 13 is_stmt 0 view .LVU156
 515 000c C388     		ldrh	r3, [r0, #6]
ARM GAS  /tmp/ccRcRg8Y.s 			page 14


 516              	.LVL30:
 117:src/drivers/adis16577/adis16577.c ****   if (device->burst_data_length == ADIS16577_BURST_32) { // 32-bit case
 517              		.loc 1 117 6 view .LVU157
 518 000e B3F5007F 		cmp	r3, #512
 519 0012 0CD0     		beq	.L27
 131:src/drivers/adis16577/adis16577.c ****   } else if (device->burst_data_length == ADIS16577_BURST_16) { // 16-bit case
 520              		.loc 1 131 10 is_stmt 1 view .LVU158
 131:src/drivers/adis16577/adis16577.c ****   } else if (device->burst_data_length == ADIS16577_BURST_16) { // 16-bit case
 521              		.loc 1 131 13 is_stmt 0 view .LVU159
 522 0014 BBB9     		cbnz	r3, .L25
 133:src/drivers/adis16577/adis16577.c ****     ret = adis16577_burst_read(device, ADIS16577_BURST_16_NUM_VALS, buf);
 523              		.loc 1 133 5 is_stmt 1 view .LVU160
 133:src/drivers/adis16577/adis16577.c ****     ret = adis16577_burst_read(device, ADIS16577_BURST_16_NUM_VALS, buf);
 524              		.loc 1 133 11 is_stmt 0 view .LVU161
 525 0016 6A46     		mov	r2, sp
 526              	.LVL31:
 133:src/drivers/adis16577/adis16577.c ****     ret = adis16577_burst_read(device, ADIS16577_BURST_16_NUM_VALS, buf);
 527              		.loc 1 133 11 view .LVU162
 528 0018 0B21     		movs	r1, #11
 529              	.LVL32:
 133:src/drivers/adis16577/adis16577.c ****     ret = adis16577_burst_read(device, ADIS16577_BURST_16_NUM_VALS, buf);
 530              		.loc 1 133 11 view .LVU163
 531 001a FFF7FEFF 		bl	adis16577_burst_read
 532              	.LVL33:
 135:src/drivers/adis16577/adis16577.c ****     if (ret != ADIS16577_ERR_OK) {
 533              		.loc 1 135 5 is_stmt 1 view .LVU164
 135:src/drivers/adis16577/adis16577.c ****     if (ret != ADIS16577_ERR_OK) {
 534              		.loc 1 135 8 is_stmt 0 view .LVU165
 535 001e 98B9     		cbnz	r0, .L24
 139:src/drivers/adis16577/adis16577.c ****     ret = adis16577_decode_16(buf, data1, data2, temp);
 536              		.loc 1 139 5 is_stmt 1 view .LVU166
 139:src/drivers/adis16577/adis16577.c ****     ret = adis16577_decode_16(buf, data1, data2, temp);
 537              		.loc 1 139 11 is_stmt 0 view .LVU167
 538 0020 2346     		mov	r3, r4
 539 0022 2A46     		mov	r2, r5
 540 0024 3146     		mov	r1, r6
 541 0026 6846     		mov	r0, sp
 542              	.LVL34:
 139:src/drivers/adis16577/adis16577.c ****     ret = adis16577_decode_16(buf, data1, data2, temp);
 543              		.loc 1 139 11 view .LVU168
 544 0028 FFF7FEFF 		bl	adis16577_decode_16
 545              	.LVL35:
 141:src/drivers/adis16577/adis16577.c ****     if (ret != ADIS16577_ERR_OK) {
 546              		.loc 1 141 5 is_stmt 1 view .LVU169
 547 002c 0CE0     		b	.L24
 548              	.LVL36:
 549              	.L27:
 119:src/drivers/adis16577/adis16577.c ****     ret = adis16577_burst_read(device, ADIS16577_BURST_32_NUM_VALS, buf);
 550              		.loc 1 119 5 view .LVU170
 119:src/drivers/adis16577/adis16577.c ****     ret = adis16577_burst_read(device, ADIS16577_BURST_32_NUM_VALS, buf);
 551              		.loc 1 119 11 is_stmt 0 view .LVU171
 552 002e 6A46     		mov	r2, sp
 553              	.LVL37:
 119:src/drivers/adis16577/adis16577.c ****     ret = adis16577_burst_read(device, ADIS16577_BURST_32_NUM_VALS, buf);
 554              		.loc 1 119 11 view .LVU172
 555 0030 1221     		movs	r1, #18
 556              	.LVL38:
ARM GAS  /tmp/ccRcRg8Y.s 			page 15


 119:src/drivers/adis16577/adis16577.c ****     ret = adis16577_burst_read(device, ADIS16577_BURST_32_NUM_VALS, buf);
 557              		.loc 1 119 11 view .LVU173
 558 0032 FFF7FEFF 		bl	adis16577_burst_read
 559              	.LVL39:
 121:src/drivers/adis16577/adis16577.c ****     if (ret != ADIS16577_ERR_OK) {
 560              		.loc 1 121 5 is_stmt 1 view .LVU174
 121:src/drivers/adis16577/adis16577.c ****     if (ret != ADIS16577_ERR_OK) {
 561              		.loc 1 121 8 is_stmt 0 view .LVU175
 562 0036 38B9     		cbnz	r0, .L24
 126:src/drivers/adis16577/adis16577.c ****     ret = adis16577_decode_32(buf, data1, data2, temp);
 563              		.loc 1 126 5 is_stmt 1 view .LVU176
 126:src/drivers/adis16577/adis16577.c ****     ret = adis16577_decode_32(buf, data1, data2, temp);
 564              		.loc 1 126 11 is_stmt 0 view .LVU177
 565 0038 2346     		mov	r3, r4
 566 003a 2A46     		mov	r2, r5
 567 003c 3146     		mov	r1, r6
 568 003e 6846     		mov	r0, sp
 569              	.LVL40:
 126:src/drivers/adis16577/adis16577.c ****     ret = adis16577_decode_32(buf, data1, data2, temp);
 570              		.loc 1 126 11 view .LVU178
 571 0040 FFF7FEFF 		bl	adis16577_decode_32
 572              	.LVL41:
 128:src/drivers/adis16577/adis16577.c ****     if (ret != ADIS16577_ERR_OK) {
 573              		.loc 1 128 5 is_stmt 1 view .LVU179
 574 0044 00E0     		b	.L24
 575              	.LVL42:
 576              	.L25:
 145:src/drivers/adis16577/adis16577.c ****     return ADIS16577_ERR_BAD_CONFIG;
 577              		.loc 1 145 12 is_stmt 0 view .LVU180
 578 0046 0620     		movs	r0, #6
 579              	.LVL43:
 580              	.L24:
 149:src/drivers/adis16577/adis16577.c **** }
 581              		.loc 1 149 1 view .LVU181
 582 0048 0DF5007D 		add	sp, sp, #512
 583              	.LCFI15:
 584              		.cfi_def_cfa_offset 16
 585              		@ sp needed
 586 004c 70BD     		pop	{r4, r5, r6, pc}
 149:src/drivers/adis16577/adis16577.c **** }
 587              		.loc 1 149 1 view .LVU182
 588              		.cfi_endproc
 589              	.LFE150:
 591              		.section	.text.adis16577_get_raw,"ax",%progbits
 592              		.align	1
 593              		.global	adis16577_get_raw
 594              		.syntax unified
 595              		.thumb
 596              		.thumb_func
 598              	adis16577_get_raw:
 599              	.LVL44:
 600              	.LFB148:
  51:src/drivers/adis16577/adis16577.c **** adis16577_err_t adis16577_get_raw(adis16577_device_t *device, float *gyro, float *accel, float *tem
 601              		.loc 1 51 103 is_stmt 1 view -0
 602              		.cfi_startproc
 603              		@ args = 0, pretend = 0, frame = 24
 604              		@ frame_needed = 0, uses_anonymous_args = 0
ARM GAS  /tmp/ccRcRg8Y.s 			page 16


  51:src/drivers/adis16577/adis16577.c **** adis16577_err_t adis16577_get_raw(adis16577_device_t *device, float *gyro, float *accel, float *tem
 605              		.loc 1 51 103 is_stmt 0 view .LVU184
 606 0000 30B5     		push	{r4, r5, lr}
 607              	.LCFI16:
 608              		.cfi_def_cfa_offset 12
 609              		.cfi_offset 4, -12
 610              		.cfi_offset 5, -8
 611              		.cfi_offset 14, -4
 612 0002 87B0     		sub	sp, sp, #28
 613              	.LCFI17:
 614              		.cfi_def_cfa_offset 40
 615 0004 1446     		mov	r4, r2
  52:src/drivers/adis16577/adis16577.c ****   adis16577_err_t ret;
 616              		.loc 1 52 3 is_stmt 1 view .LVU185
  55:src/drivers/adis16577/adis16577.c ****   if (device->burst_out_sel != ADIS16577_OUT_GYR_ACC) {
 617              		.loc 1 55 3 view .LVU186
  55:src/drivers/adis16577/adis16577.c ****   if (device->burst_out_sel != ADIS16577_OUT_GYR_ACC) {
 618              		.loc 1 55 13 is_stmt 0 view .LVU187
 619 0006 0289     		ldrh	r2, [r0, #8]
 620              	.LVL45:
  55:src/drivers/adis16577/adis16577.c ****   if (device->burst_out_sel != ADIS16577_OUT_GYR_ACC) {
 621              		.loc 1 55 6 view .LVU188
 622 0008 7ABB     		cbnz	r2, .L30
 623 000a 0D46     		mov	r5, r1
  60:src/drivers/adis16577/adis16577.c ****   float gyro_raw[3];
 624              		.loc 1 60 3 is_stmt 1 view .LVU189
  61:src/drivers/adis16577/adis16577.c ****   float accel_raw[3];
 625              		.loc 1 61 3 view .LVU190
  62:src/drivers/adis16577/adis16577.c ****   ret = adis16577_read_data(device, gyro_raw, accel_raw, temp);
 626              		.loc 1 62 3 view .LVU191
  62:src/drivers/adis16577/adis16577.c ****   ret = adis16577_read_data(device, gyro_raw, accel_raw, temp);
 627              		.loc 1 62 9 is_stmt 0 view .LVU192
 628 000c 6A46     		mov	r2, sp
 629 000e 03A9     		add	r1, sp, #12
 630              	.LVL46:
  62:src/drivers/adis16577/adis16577.c ****   ret = adis16577_read_data(device, gyro_raw, accel_raw, temp);
 631              		.loc 1 62 9 view .LVU193
 632 0010 FFF7FEFF 		bl	adis16577_read_data
 633              	.LVL47:
  64:src/drivers/adis16577/adis16577.c ****   if (ret != ADIS16577_ERR_OK) {
 634              		.loc 1 64 3 is_stmt 1 view .LVU194
  64:src/drivers/adis16577/adis16577.c ****   if (ret != ADIS16577_ERR_OK) {
 635              		.loc 1 64 6 is_stmt 0 view .LVU195
 636 0014 38BB     		cbnz	r0, .L29
  69:src/drivers/adis16577/adis16577.c ****   gyro[0] = gyro_raw[0]/655360.f;
 637              		.loc 1 69 3 is_stmt 1 view .LVU196
  69:src/drivers/adis16577/adis16577.c ****   gyro[0] = gyro_raw[0]/655360.f;
 638              		.loc 1 69 24 is_stmt 0 view .LVU197
 639 0016 DFED167A 		vldr.32	s15, .L32
 640 001a DDED036A 		vldr.32	s13, [sp, #12]
 641 001e 86EEA77A 		vdiv.f32	s14, s13, s15
  69:src/drivers/adis16577/adis16577.c ****   gyro[0] = gyro_raw[0]/655360.f;
 642              		.loc 1 69 11 view .LVU198
 643 0022 85ED007A 		vstr.32	s14, [r5]
  70:src/drivers/adis16577/adis16577.c ****   gyro[1] = gyro_raw[1]/655360.f;
 644              		.loc 1 70 3 is_stmt 1 view .LVU199
  70:src/drivers/adis16577/adis16577.c ****   gyro[1] = gyro_raw[1]/655360.f;
ARM GAS  /tmp/ccRcRg8Y.s 			page 17


 645              		.loc 1 70 21 is_stmt 0 view .LVU200
 646 0026 DDED046A 		vldr.32	s13, [sp, #16]
  70:src/drivers/adis16577/adis16577.c ****   gyro[1] = gyro_raw[1]/655360.f;
 647              		.loc 1 70 24 view .LVU201
 648 002a 86EEA77A 		vdiv.f32	s14, s13, s15
  70:src/drivers/adis16577/adis16577.c ****   gyro[1] = gyro_raw[1]/655360.f;
 649              		.loc 1 70 11 view .LVU202
 650 002e 85ED017A 		vstr.32	s14, [r5, #4]
  71:src/drivers/adis16577/adis16577.c ****   gyro[2] = gyro_raw[2]/655360.f;
 651              		.loc 1 71 3 is_stmt 1 view .LVU203
  71:src/drivers/adis16577/adis16577.c ****   gyro[2] = gyro_raw[2]/655360.f;
 652              		.loc 1 71 21 is_stmt 0 view .LVU204
 653 0032 DDED056A 		vldr.32	s13, [sp, #20]
  71:src/drivers/adis16577/adis16577.c ****   gyro[2] = gyro_raw[2]/655360.f;
 654              		.loc 1 71 24 view .LVU205
 655 0036 86EEA77A 		vdiv.f32	s14, s13, s15
  71:src/drivers/adis16577/adis16577.c ****   gyro[2] = gyro_raw[2]/655360.f;
 656              		.loc 1 71 11 view .LVU206
 657 003a 85ED027A 		vstr.32	s14, [r5, #8]
  73:src/drivers/adis16577/adis16577.c ****   accel[0] = accel_raw[0]/52428800.f;
 658              		.loc 1 73 3 is_stmt 1 view .LVU207
  73:src/drivers/adis16577/adis16577.c ****   accel[0] = accel_raw[0]/52428800.f;
 659              		.loc 1 73 26 is_stmt 0 view .LVU208
 660 003e DFED0D7A 		vldr.32	s15, .L32+4
 661 0042 DDED006A 		vldr.32	s13, [sp]
 662 0046 86EEA77A 		vdiv.f32	s14, s13, s15
  73:src/drivers/adis16577/adis16577.c ****   accel[0] = accel_raw[0]/52428800.f;
 663              		.loc 1 73 12 view .LVU209
 664 004a 84ED007A 		vstr.32	s14, [r4]
  74:src/drivers/adis16577/adis16577.c ****   accel[1] = accel_raw[1]/52428800.f;
 665              		.loc 1 74 3 is_stmt 1 view .LVU210
  74:src/drivers/adis16577/adis16577.c ****   accel[1] = accel_raw[1]/52428800.f;
 666              		.loc 1 74 23 is_stmt 0 view .LVU211
 667 004e DDED016A 		vldr.32	s13, [sp, #4]
  74:src/drivers/adis16577/adis16577.c ****   accel[1] = accel_raw[1]/52428800.f;
 668              		.loc 1 74 26 view .LVU212
 669 0052 86EEA77A 		vdiv.f32	s14, s13, s15
  74:src/drivers/adis16577/adis16577.c ****   accel[1] = accel_raw[1]/52428800.f;
 670              		.loc 1 74 12 view .LVU213
 671 0056 84ED017A 		vstr.32	s14, [r4, #4]
  75:src/drivers/adis16577/adis16577.c ****   accel[2] = accel_raw[2]/52428800.f;
 672              		.loc 1 75 3 is_stmt 1 view .LVU214
  75:src/drivers/adis16577/adis16577.c ****   accel[2] = accel_raw[2]/52428800.f;
 673              		.loc 1 75 23 is_stmt 0 view .LVU215
 674 005a DDED026A 		vldr.32	s13, [sp, #8]
  75:src/drivers/adis16577/adis16577.c ****   accel[2] = accel_raw[2]/52428800.f;
 675              		.loc 1 75 26 view .LVU216
 676 005e 86EEA77A 		vdiv.f32	s14, s13, s15
  75:src/drivers/adis16577/adis16577.c ****   accel[2] = accel_raw[2]/52428800.f;
 677              		.loc 1 75 12 view .LVU217
 678 0062 84ED027A 		vstr.32	s14, [r4, #8]
  77:src/drivers/adis16577/adis16577.c ****   return ADIS16577_ERR_OK;
 679              		.loc 1 77 3 is_stmt 1 view .LVU218
 680              	.LVL48:
 681              	.L29:
  78:src/drivers/adis16577/adis16577.c **** }
 682              		.loc 1 78 1 is_stmt 0 view .LVU219
ARM GAS  /tmp/ccRcRg8Y.s 			page 18


 683 0066 07B0     		add	sp, sp, #28
 684              	.LCFI18:
 685              		.cfi_remember_state
 686              		.cfi_def_cfa_offset 12
 687              		@ sp needed
 688 0068 30BD     		pop	{r4, r5, pc}
 689              	.LVL49:
 690              	.L30:
 691              	.LCFI19:
 692              		.cfi_restore_state
  56:src/drivers/adis16577/adis16577.c ****     return ADIS16577_ERR_BAD_CONFIG;
 693              		.loc 1 56 12 view .LVU220
 694 006a 0620     		movs	r0, #6
 695              	.LVL50:
  56:src/drivers/adis16577/adis16577.c ****     return ADIS16577_ERR_BAD_CONFIG;
 696              		.loc 1 56 12 view .LVU221
 697 006c FBE7     		b	.L29
 698              	.L33:
 699 006e 00BF     		.align	2
 700              	.L32:
 701 0070 00002049 		.word	1226833920
 702 0074 0000484C 		.word	1279787008
 703              		.cfi_endproc
 704              	.LFE148:
 706              		.section	.text.adis16577_get_deltas,"ax",%progbits
 707              		.align	1
 708              		.global	adis16577_get_deltas
 709              		.syntax unified
 710              		.thumb
 711              		.thumb_func
 713              	adis16577_get_deltas:
 714              	.LVL51:
 715              	.LFB149:
  80:src/drivers/adis16577/adis16577.c **** adis16577_err_t adis16577_get_deltas(adis16577_device_t *device, float *delta_angle, float *delta_v
 716              		.loc 1 80 117 is_stmt 1 view -0
 717              		.cfi_startproc
 718              		@ args = 0, pretend = 0, frame = 24
 719              		@ frame_needed = 0, uses_anonymous_args = 0
  80:src/drivers/adis16577/adis16577.c **** adis16577_err_t adis16577_get_deltas(adis16577_device_t *device, float *delta_angle, float *delta_v
 720              		.loc 1 80 117 is_stmt 0 view .LVU223
 721 0000 30B5     		push	{r4, r5, lr}
 722              	.LCFI20:
 723              		.cfi_def_cfa_offset 12
 724              		.cfi_offset 4, -12
 725              		.cfi_offset 5, -8
 726              		.cfi_offset 14, -4
 727 0002 87B0     		sub	sp, sp, #28
 728              	.LCFI21:
 729              		.cfi_def_cfa_offset 40
 730 0004 1446     		mov	r4, r2
  81:src/drivers/adis16577/adis16577.c ****   adis16577_err_t ret;
 731              		.loc 1 81 3 is_stmt 1 view .LVU224
  84:src/drivers/adis16577/adis16577.c ****   if (device->burst_out_sel != ADIS16577_OUT_DELTA) {
 732              		.loc 1 84 3 view .LVU225
  84:src/drivers/adis16577/adis16577.c ****   if (device->burst_out_sel != ADIS16577_OUT_DELTA) {
 733              		.loc 1 84 13 is_stmt 0 view .LVU226
 734 0006 0289     		ldrh	r2, [r0, #8]
ARM GAS  /tmp/ccRcRg8Y.s 			page 19


 735              	.LVL52:
  84:src/drivers/adis16577/adis16577.c ****   if (device->burst_out_sel != ADIS16577_OUT_DELTA) {
 736              		.loc 1 84 6 view .LVU227
 737 0008 B2F5807F 		cmp	r2, #256
 738 000c 02D0     		beq	.L38
  85:src/drivers/adis16577/adis16577.c ****     return ADIS16577_ERR_BAD_CONFIG;
 739              		.loc 1 85 12 view .LVU228
 740 000e 0620     		movs	r0, #6
 741              	.LVL53:
 742              	.L35:
 109:src/drivers/adis16577/adis16577.c **** }
 743              		.loc 1 109 1 view .LVU229
 744 0010 07B0     		add	sp, sp, #28
 745              	.LCFI22:
 746              		.cfi_remember_state
 747              		.cfi_def_cfa_offset 12
 748              		@ sp needed
 749 0012 30BD     		pop	{r4, r5, pc}
 750              	.LVL54:
 751              	.L38:
 752              	.LCFI23:
 753              		.cfi_restore_state
 109:src/drivers/adis16577/adis16577.c **** }
 754              		.loc 1 109 1 view .LVU230
 755 0014 0D46     		mov	r5, r1
  89:src/drivers/adis16577/adis16577.c ****   float gyro_raw[3];
 756              		.loc 1 89 3 is_stmt 1 view .LVU231
  90:src/drivers/adis16577/adis16577.c ****   float accel_raw[3];
 757              		.loc 1 90 3 view .LVU232
  91:src/drivers/adis16577/adis16577.c ****   ret = adis16577_read_data(device, gyro_raw, accel_raw, temp);
 758              		.loc 1 91 3 view .LVU233
  91:src/drivers/adis16577/adis16577.c ****   ret = adis16577_read_data(device, gyro_raw, accel_raw, temp);
 759              		.loc 1 91 9 is_stmt 0 view .LVU234
 760 0016 6A46     		mov	r2, sp
 761 0018 03A9     		add	r1, sp, #12
 762              	.LVL55:
  91:src/drivers/adis16577/adis16577.c ****   ret = adis16577_read_data(device, gyro_raw, accel_raw, temp);
 763              		.loc 1 91 9 view .LVU235
 764 001a FFF7FEFF 		bl	adis16577_read_data
 765              	.LVL56:
  93:src/drivers/adis16577/adis16577.c ****   if (ret != ADIS16577_ERR_OK) {
 766              		.loc 1 93 3 is_stmt 1 view .LVU236
  93:src/drivers/adis16577/adis16577.c ****   if (ret != ADIS16577_ERR_OK) {
 767              		.loc 1 93 6 is_stmt 0 view .LVU237
 768 001e 0028     		cmp	r0, #0
 769 0020 F6D1     		bne	.L35
  99:src/drivers/adis16577/adis16577.c ****   delta_angle[0] = gyro_raw[0]/655360.f;
 770              		.loc 1 99 3 is_stmt 1 view .LVU238
  99:src/drivers/adis16577/adis16577.c ****   delta_angle[0] = gyro_raw[0]/655360.f;
 771              		.loc 1 99 31 is_stmt 0 view .LVU239
 772 0022 DFED147A 		vldr.32	s15, .L39
 773 0026 DDED036A 		vldr.32	s13, [sp, #12]
 774 002a 86EEA77A 		vdiv.f32	s14, s13, s15
  99:src/drivers/adis16577/adis16577.c ****   delta_angle[0] = gyro_raw[0]/655360.f;
 775              		.loc 1 99 18 view .LVU240
 776 002e 85ED007A 		vstr.32	s14, [r5]
 100:src/drivers/adis16577/adis16577.c ****   delta_angle[1] = gyro_raw[1]/655360.f;
ARM GAS  /tmp/ccRcRg8Y.s 			page 20


 777              		.loc 1 100 3 is_stmt 1 view .LVU241
 100:src/drivers/adis16577/adis16577.c ****   delta_angle[1] = gyro_raw[1]/655360.f;
 778              		.loc 1 100 28 is_stmt 0 view .LVU242
 779 0032 DDED046A 		vldr.32	s13, [sp, #16]
 100:src/drivers/adis16577/adis16577.c ****   delta_angle[1] = gyro_raw[1]/655360.f;
 780              		.loc 1 100 31 view .LVU243
 781 0036 86EEA77A 		vdiv.f32	s14, s13, s15
 100:src/drivers/adis16577/adis16577.c ****   delta_angle[1] = gyro_raw[1]/655360.f;
 782              		.loc 1 100 18 view .LVU244
 783 003a 85ED017A 		vstr.32	s14, [r5, #4]
 101:src/drivers/adis16577/adis16577.c ****   delta_angle[2] = gyro_raw[2]/655360.f;
 784              		.loc 1 101 3 is_stmt 1 view .LVU245
 101:src/drivers/adis16577/adis16577.c ****   delta_angle[2] = gyro_raw[2]/655360.f;
 785              		.loc 1 101 28 is_stmt 0 view .LVU246
 786 003e DDED056A 		vldr.32	s13, [sp, #20]
 101:src/drivers/adis16577/adis16577.c ****   delta_angle[2] = gyro_raw[2]/655360.f;
 787              		.loc 1 101 31 view .LVU247
 788 0042 86EEA77A 		vdiv.f32	s14, s13, s15
 101:src/drivers/adis16577/adis16577.c ****   delta_angle[2] = gyro_raw[2]/655360.f;
 789              		.loc 1 101 18 view .LVU248
 790 0046 85ED027A 		vstr.32	s14, [r5, #8]
 103:src/drivers/adis16577/adis16577.c ****   delta_vel[0] = accel_raw[0]/52428800.f;
 791              		.loc 1 103 3 is_stmt 1 view .LVU249
 103:src/drivers/adis16577/adis16577.c ****   delta_vel[0] = accel_raw[0]/52428800.f;
 792              		.loc 1 103 30 is_stmt 0 view .LVU250
 793 004a DFED0B7A 		vldr.32	s15, .L39+4
 794 004e DDED006A 		vldr.32	s13, [sp]
 795 0052 86EEA77A 		vdiv.f32	s14, s13, s15
 103:src/drivers/adis16577/adis16577.c ****   delta_vel[0] = accel_raw[0]/52428800.f;
 796              		.loc 1 103 16 view .LVU251
 797 0056 84ED007A 		vstr.32	s14, [r4]
 104:src/drivers/adis16577/adis16577.c ****   delta_vel[1] = accel_raw[1]/52428800.f;
 798              		.loc 1 104 3 is_stmt 1 view .LVU252
 104:src/drivers/adis16577/adis16577.c ****   delta_vel[1] = accel_raw[1]/52428800.f;
 799              		.loc 1 104 27 is_stmt 0 view .LVU253
 800 005a DDED016A 		vldr.32	s13, [sp, #4]
 104:src/drivers/adis16577/adis16577.c ****   delta_vel[1] = accel_raw[1]/52428800.f;
 801              		.loc 1 104 30 view .LVU254
 802 005e 86EEA77A 		vdiv.f32	s14, s13, s15
 104:src/drivers/adis16577/adis16577.c ****   delta_vel[1] = accel_raw[1]/52428800.f;
 803              		.loc 1 104 16 view .LVU255
 804 0062 84ED017A 		vstr.32	s14, [r4, #4]
 105:src/drivers/adis16577/adis16577.c ****   delta_vel[2] = accel_raw[2]/52428800.f;
 805              		.loc 1 105 3 is_stmt 1 view .LVU256
 105:src/drivers/adis16577/adis16577.c ****   delta_vel[2] = accel_raw[2]/52428800.f;
 806              		.loc 1 105 27 is_stmt 0 view .LVU257
 807 0066 DDED026A 		vldr.32	s13, [sp, #8]
 105:src/drivers/adis16577/adis16577.c ****   delta_vel[2] = accel_raw[2]/52428800.f;
 808              		.loc 1 105 30 view .LVU258
 809 006a 86EEA77A 		vdiv.f32	s14, s13, s15
 105:src/drivers/adis16577/adis16577.c ****   delta_vel[2] = accel_raw[2]/52428800.f;
 810              		.loc 1 105 16 view .LVU259
 811 006e 84ED027A 		vstr.32	s14, [r4, #8]
 107:src/drivers/adis16577/adis16577.c ****   return ADIS16577_ERR_OK;
 812              		.loc 1 107 3 is_stmt 1 view .LVU260
 107:src/drivers/adis16577/adis16577.c ****   return ADIS16577_ERR_OK;
 813              		.loc 1 107 10 is_stmt 0 view .LVU261
ARM GAS  /tmp/ccRcRg8Y.s 			page 21


 814 0072 CDE7     		b	.L35
 815              	.L40:
 816              		.align	2
 817              	.L39:
 818 0074 00002049 		.word	1226833920
 819 0078 0000484C 		.word	1279787008
 820              		.cfi_endproc
 821              	.LFE149:
 823              		.text
 824              	.Letext0:
 825              		.file 2 "/usr/lib/gcc/arm-none-eabi/12.2.1/include/stdint.h"
 826              		.file 3 "external/drivers/cmsis/include/stm32h723xx.h"
 827              		.file 4 "external/drivers/stm32h7xx/include/stm32h7xx_hal_def.h"
 828              		.file 5 "external/drivers/stm32h7xx/include/stm32h7xx_hal_dma.h"
 829              		.file 6 "external/drivers/stm32h7xx/include/stm32h7xx_hal_tim.h"
 830              		.file 7 "src/drivers/us_timer/us_timer.h"
 831              		.file 8 "src/drivers/adis16577/adis16577.h"
ARM GAS  /tmp/ccRcRg8Y.s 			page 22

