ARM GAS  /tmp/ccY5pqER.s 			page 1


   1              		.cpu cortex-m7
   2              		.arch armv7e-m
   3              		.fpu fpv5-d16
   4              		.eabi_attribute 28, 1
   5              		.eabi_attribute 20, 1
   6              		.eabi_attribute 21, 1
   7              		.eabi_attribute 23, 3
   8              		.eabi_attribute 24, 1
   9              		.eabi_attribute 25, 1
  10              		.eabi_attribute 26, 1
  11              		.eabi_attribute 30, 1
  12              		.eabi_attribute 34, 1
  13              		.eabi_attribute 18, 4
  14              		.file	"icm45686.c"
  15              		.text
  16              	.Ltext0:
  17              		.cfi_sections	.debug_frame
  18              		.file 1 "src/drivers/icm45686/icm45686.c"
  19              		.section	.text.icm45686_read_byte,"ax",%progbits
  20              		.align	1
  21              		.global	icm45686_read_byte
  22              		.syntax unified
  23              		.thumb
  24              		.thumb_func
  26              	icm45686_read_byte:
  27              	.LVL0:
  28              	.LFB150:
   1:src/drivers/icm45686/icm45686.c **** #include "icm45686.h"
   2:src/drivers/icm45686/icm45686.c **** #include "stm32h7xx_hal.h"
   3:src/drivers/icm45686/icm45686.c **** 
   4:src/drivers/icm45686/icm45686.c **** icm45686_err_t icm45686_soft_reset(icm45686_device_t *device) {
   5:src/drivers/icm45686/icm45686.c ****   icm45686_err_t status;
   6:src/drivers/icm45686/icm45686.c **** 
   7:src/drivers/icm45686/icm45686.c ****   // Trigger soft reset
   8:src/drivers/icm45686/icm45686.c ****   status = icm45686_write_byte(device, ICM45686_REG_MISC2, ICM45686_SOFT_RESET);
   9:src/drivers/icm45686/icm45686.c ****   if (status != ICM45686_ERR_OK) {
  10:src/drivers/icm45686/icm45686.c ****     return status;
  11:src/drivers/icm45686/icm45686.c ****   }
  12:src/drivers/icm45686/icm45686.c **** 
  13:src/drivers/icm45686/icm45686.c ****   // Wait 1ms
  14:src/drivers/icm45686/icm45686.c ****   status = icm45686_delay_ms(1);
  15:src/drivers/icm45686/icm45686.c **** 
  16:src/drivers/icm45686/icm45686.c ****   return status;
  17:src/drivers/icm45686/icm45686.c **** }
  18:src/drivers/icm45686/icm45686.c **** 
  19:src/drivers/icm45686/icm45686.c **** icm45686_err_t icm45686_read_whoami(icm45686_device_t *device,
  20:src/drivers/icm45686/icm45686.c ****                                        uint8_t *whoami) {
  21:src/drivers/icm45686/icm45686.c ****   icm45686_err_t status = ICM45686_ERR_OK;
  22:src/drivers/icm45686/icm45686.c **** 
  23:src/drivers/icm45686/icm45686.c ****   // Read whoami register
  24:src/drivers/icm45686/icm45686.c ****   status = icm45686_read_byte(device, ICM45686_REG_WHO_AM_I, whoami);
  25:src/drivers/icm45686/icm45686.c **** 
  26:src/drivers/icm45686/icm45686.c ****   return status;
  27:src/drivers/icm45686/icm45686.c **** }
  28:src/drivers/icm45686/icm45686.c **** 
  29:src/drivers/icm45686/icm45686.c **** icm45686_err_t icm45686_init(icm45686_device_t *device) {
  30:src/drivers/icm45686/icm45686.c ****   icm45686_err_t status = ICM45686_ERR_OK;
ARM GAS  /tmp/ccY5pqER.s 			page 2


  31:src/drivers/icm45686/icm45686.c **** 
  32:src/drivers/icm45686/icm45686.c ****   // Perform soft reset
  33:src/drivers/icm45686/icm45686.c ****   status = icm45686_soft_reset(device);
  34:src/drivers/icm45686/icm45686.c **** 
  35:src/drivers/icm45686/icm45686.c ****   if (status != ICM45686_ERR_OK) {
  36:src/drivers/icm45686/icm45686.c ****     return status;
  37:src/drivers/icm45686/icm45686.c ****   }
  38:src/drivers/icm45686/icm45686.c **** 
  39:src/drivers/icm45686/icm45686.c ****   // Read whoami register
  40:src/drivers/icm45686/icm45686.c ****   uint8_t whoami;
  41:src/drivers/icm45686/icm45686.c ****   status = icm45686_read_byte(device, ICM45686_REG_WHO_AM_I, &whoami);
  42:src/drivers/icm45686/icm45686.c **** 
  43:src/drivers/icm45686/icm45686.c ****   if (status != ICM45686_ERR_OK) {
  44:src/drivers/icm45686/icm45686.c ****     return status;
  45:src/drivers/icm45686/icm45686.c ****   }
  46:src/drivers/icm45686/icm45686.c **** 
  47:src/drivers/icm45686/icm45686.c ****   if (whoami != ICM45686_WHOAMI) {
  48:src/drivers/icm45686/icm45686.c ****     return ICM45686_ERR_VALUE;
  49:src/drivers/icm45686/icm45686.c ****   }
  50:src/drivers/icm45686/icm45686.c **** 
  51:src/drivers/icm45686/icm45686.c ****   // Set power modes
  52:src/drivers/icm45686/icm45686.c ****   uint8_t pwr_mgmt0 = device->gyro_pwr_mode | device->accel_pwr_mode;
  53:src/drivers/icm45686/icm45686.c ****   status = icm45686_write_byte(device, ICM45686_REG_PWR_MGMT0, pwr_mgmt0);
  54:src/drivers/icm45686/icm45686.c **** 
  55:src/drivers/icm45686/icm45686.c ****   if (status != ICM45686_ERR_OK) {
  56:src/drivers/icm45686/icm45686.c ****     return status;
  57:src/drivers/icm45686/icm45686.c ****   }
  58:src/drivers/icm45686/icm45686.c **** 
  59:src/drivers/icm45686/icm45686.c ****   // Set gyro config
  60:src/drivers/icm45686/icm45686.c ****   uint8_t gyro_config0 = device->gyro_fs | device->gyro_odr;
  61:src/drivers/icm45686/icm45686.c ****   status = icm45686_write_byte(device, ICM45686_REG_GYRO_CONFIG0, gyro_config0);
  62:src/drivers/icm45686/icm45686.c **** 
  63:src/drivers/icm45686/icm45686.c ****   if (status != ICM45686_ERR_OK) {
  64:src/drivers/icm45686/icm45686.c ****     return status;
  65:src/drivers/icm45686/icm45686.c ****   }
  66:src/drivers/icm45686/icm45686.c ****   
  67:src/drivers/icm45686/icm45686.c ****   switch (device->gyro_fs) {
  68:src/drivers/icm45686/icm45686.c ****         case ICM45686_GYRO_FS_4000DPS:
  69:src/drivers/icm45686/icm45686.c ****             device->gyro_sensitivity = 8.2;
  70:src/drivers/icm45686/icm45686.c ****             break;
  71:src/drivers/icm45686/icm45686.c ****         case ICM45686_GYRO_FS_2000DPS:
  72:src/drivers/icm45686/icm45686.c ****             device->gyro_sensitivity = 16.4;
  73:src/drivers/icm45686/icm45686.c ****             break;
  74:src/drivers/icm45686/icm45686.c ****         case ICM45686_GYRO_FS_1000DPS:
  75:src/drivers/icm45686/icm45686.c ****             device->gyro_sensitivity = 32.8;
  76:src/drivers/icm45686/icm45686.c ****             break;
  77:src/drivers/icm45686/icm45686.c ****         case ICM45686_GYRO_FS_500DPS:
  78:src/drivers/icm45686/icm45686.c ****             device->gyro_sensitivity = 65.5;
  79:src/drivers/icm45686/icm45686.c ****             break;
  80:src/drivers/icm45686/icm45686.c ****         case ICM45686_GYRO_FS_250DPS:
  81:src/drivers/icm45686/icm45686.c ****             device->gyro_sensitivity = 131.0;
  82:src/drivers/icm45686/icm45686.c ****             break;
  83:src/drivers/icm45686/icm45686.c ****         case ICM45686_GYRO_FS_125:
  84:src/drivers/icm45686/icm45686.c ****             device->gyro_sensitivity = 262.0;
  85:src/drivers/icm45686/icm45686.c ****             break;
  86:src/drivers/icm45686/icm45686.c ****         case ICM45686_GYRO_FS_62_5DPS:
  87:src/drivers/icm45686/icm45686.c ****             device->gyro_sensitivity = 524.3;
ARM GAS  /tmp/ccY5pqER.s 			page 3


  88:src/drivers/icm45686/icm45686.c ****             break;
  89:src/drivers/icm45686/icm45686.c ****         case ICM45686_GYRO_FS_31_25DPS:
  90:src/drivers/icm45686/icm45686.c ****             device->gyro_sensitivity = 1048.6;
  91:src/drivers/icm45686/icm45686.c ****             break;
  92:src/drivers/icm45686/icm45686.c ****         case ICM45686_GYRO_FS_15_625DPS:
  93:src/drivers/icm45686/icm45686.c ****             device->gyro_sensitivity = 2097.2;
  94:src/drivers/icm45686/icm45686.c ****             break;
  95:src/drivers/icm45686/icm45686.c ****         default:
  96:src/drivers/icm45686/icm45686.c ****             device->gyro_sensitivity = 1.0; // Fail-safe
  97:src/drivers/icm45686/icm45686.c ****             break;
  98:src/drivers/icm45686/icm45686.c ****     }
  99:src/drivers/icm45686/icm45686.c **** 
 100:src/drivers/icm45686/icm45686.c ****   // Set accelerometer config
 101:src/drivers/icm45686/icm45686.c ****   uint8_t accel_config0 = device->accel_fs | device->accel_odr;
 102:src/drivers/icm45686/icm45686.c ****   status = icm45686_write_byte(device, ICM45686_REG_ACCEL_CONFIG0, accel_config0);
 103:src/drivers/icm45686/icm45686.c ****   switch (device->accel_fs) {
 104:src/drivers/icm45686/icm45686.c ****       case ICM45686_ACCEL_FS_2G:
 105:src/drivers/icm45686/icm45686.c ****           device->accel_sensitivity = 16384.0; // LSB/g
 106:src/drivers/icm45686/icm45686.c ****           break;
 107:src/drivers/icm45686/icm45686.c ****       case ICM45686_ACCEL_FS_4G:
 108:src/drivers/icm45686/icm45686.c ****           device->accel_sensitivity = 8192.0;
 109:src/drivers/icm45686/icm45686.c ****           break;
 110:src/drivers/icm45686/icm45686.c ****       case ICM45686_ACCEL_FS_8G:
 111:src/drivers/icm45686/icm45686.c ****           device->accel_sensitivity = 4096.0;
 112:src/drivers/icm45686/icm45686.c ****           break;
 113:src/drivers/icm45686/icm45686.c ****       case ICM45686_ACCEL_FS_16G:
 114:src/drivers/icm45686/icm45686.c ****           device->accel_sensitivity = 2048.0;
 115:src/drivers/icm45686/icm45686.c ****           break;
 116:src/drivers/icm45686/icm45686.c ****       case ICM45686_ACCEL_FS_32G:
 117:src/drivers/icm45686/icm45686.c ****           device->accel_sensitivity = 1024.0;
 118:src/drivers/icm45686/icm45686.c ****           break;
 119:src/drivers/icm45686/icm45686.c ****       default:
 120:src/drivers/icm45686/icm45686.c ****           device->accel_sensitivity = 1.0; // Fail-safe
 121:src/drivers/icm45686/icm45686.c ****           break;
 122:src/drivers/icm45686/icm45686.c ****     }
 123:src/drivers/icm45686/icm45686.c **** 
 124:src/drivers/icm45686/icm45686.c ****   return status;
 125:src/drivers/icm45686/icm45686.c **** }
 126:src/drivers/icm45686/icm45686.c **** 
 127:src/drivers/icm45686/icm45686.c **** icm45686_err_t icm45686_read_accel(icm45686_device_t *device, double *accel_reading_x, double* acce
 128:src/drivers/icm45686/icm45686.c ****   uint8_t accel_data[6];
 129:src/drivers/icm45686/icm45686.c ****   icm45686_err_t status = icm45686_read_byte(device, ICM45686_REG_ACCEL_DATA_X1_UI, &accel_data[0])
 130:src/drivers/icm45686/icm45686.c ****   if (status == ICM45686_ERR_OK) {
 131:src/drivers/icm45686/icm45686.c ****     status = icm45686_read_byte(device, ICM45686_REG_ACCEL_DATA_X0_UI, &accel_data[1]);
 132:src/drivers/icm45686/icm45686.c ****     if (status == ICM45686_ERR_OK) {
 133:src/drivers/icm45686/icm45686.c ****       status = icm45686_read_byte(device, ICM45686_REG_ACCEL_DATA_Y1_UI, &accel_data[2]);
 134:src/drivers/icm45686/icm45686.c ****       if (status == ICM45686_ERR_OK) {
 135:src/drivers/icm45686/icm45686.c ****         status = icm45686_read_byte(device, ICM45686_REG_ACCEL_DATA_Y0_UI, &accel_data[3]);
 136:src/drivers/icm45686/icm45686.c ****         if (status == ICM45686_ERR_OK) {
 137:src/drivers/icm45686/icm45686.c ****           status = icm45686_read_byte(device, ICM45686_REG_ACCEL_DATA_Z1_UI, &accel_data[4]);
 138:src/drivers/icm45686/icm45686.c ****           if (status == ICM45686_ERR_OK) {
 139:src/drivers/icm45686/icm45686.c ****             status = icm45686_read_byte(device, ICM45686_REG_ACCEL_DATA_Z0_UI, &accel_data[5]);
 140:src/drivers/icm45686/icm45686.c ****           }
 141:src/drivers/icm45686/icm45686.c ****         }
 142:src/drivers/icm45686/icm45686.c ****       }
 143:src/drivers/icm45686/icm45686.c ****     }
 144:src/drivers/icm45686/icm45686.c ****   }
ARM GAS  /tmp/ccY5pqER.s 			page 4


 145:src/drivers/icm45686/icm45686.c **** 
 146:src/drivers/icm45686/icm45686.c ****   if (status == ICM45686_ERR_OK) {
 147:src/drivers/icm45686/icm45686.c ****     *accel_reading_x = (double) ((int16_t)((accel_data[0] << 8) | accel_data[1])) / device->accel_s
 148:src/drivers/icm45686/icm45686.c ****     *accel_reading_y = (double) ((int16_t)((accel_data[2] << 8) | accel_data[3])) / device->accel_s
 149:src/drivers/icm45686/icm45686.c ****     *accel_reading_z = (double) ((int16_t)((accel_data[4] << 8) | accel_data[5])) / device->accel_s
 150:src/drivers/icm45686/icm45686.c ****   }
 151:src/drivers/icm45686/icm45686.c **** 
 152:src/drivers/icm45686/icm45686.c ****   return status;
 153:src/drivers/icm45686/icm45686.c **** }
 154:src/drivers/icm45686/icm45686.c **** 
 155:src/drivers/icm45686/icm45686.c **** icm45686_err_t icm45686_read_gyro(icm45686_device_t *device, double *gyro_reading_x, double* gyro_r
 156:src/drivers/icm45686/icm45686.c ****   uint8_t gyro_data[6];
 157:src/drivers/icm45686/icm45686.c ****   icm45686_err_t status = icm45686_read_byte(device, ICM45686_REG_GYRO_DATA_X1_UI, &gyro_data[0]);
 158:src/drivers/icm45686/icm45686.c ****   if (status == ICM45686_ERR_OK) {
 159:src/drivers/icm45686/icm45686.c ****     status = icm45686_read_byte(device, ICM45686_REG_GYRO_DATA_X0_UI, &gyro_data[1]);
 160:src/drivers/icm45686/icm45686.c ****     if (status == ICM45686_ERR_OK) {
 161:src/drivers/icm45686/icm45686.c ****       status = icm45686_read_byte(device, ICM45686_REG_GYRO_DATA_Y1_UI, &gyro_data[2]);
 162:src/drivers/icm45686/icm45686.c ****       if (status == ICM45686_ERR_OK) {
 163:src/drivers/icm45686/icm45686.c ****         status = icm45686_read_byte(device, ICM45686_REG_GYRO_DATA_Y0_UI, &gyro_data[3]);
 164:src/drivers/icm45686/icm45686.c ****         if (status == ICM45686_ERR_OK) {
 165:src/drivers/icm45686/icm45686.c ****           status = icm45686_read_byte(device, ICM45686_REG_GYRO_DATA_Z1_UI, &gyro_data[4]);
 166:src/drivers/icm45686/icm45686.c ****           if (status == ICM45686_ERR_OK) {
 167:src/drivers/icm45686/icm45686.c ****             status = icm45686_read_byte(device, ICM45686_REG_GYRO_DATA_Z0_UI, &gyro_data[5]);
 168:src/drivers/icm45686/icm45686.c ****           }
 169:src/drivers/icm45686/icm45686.c ****         }
 170:src/drivers/icm45686/icm45686.c ****       }
 171:src/drivers/icm45686/icm45686.c ****     }
 172:src/drivers/icm45686/icm45686.c ****   }
 173:src/drivers/icm45686/icm45686.c **** 
 174:src/drivers/icm45686/icm45686.c ****   if (status == ICM45686_ERR_OK) {
 175:src/drivers/icm45686/icm45686.c ****     *gyro_reading_x = (double) ((int16_t) ((gyro_data[0] << 8) | gyro_data[1])) / device->gyro_sens
 176:src/drivers/icm45686/icm45686.c ****     *gyro_reading_y = (double) ((int16_t) ((gyro_data[2] << 8) | gyro_data[3])) / device->gyro_sens
 177:src/drivers/icm45686/icm45686.c ****     *gyro_reading_z = (double) ((int16_t) ((gyro_data[4] << 8) | gyro_data[5])) / device->gyro_sens
 178:src/drivers/icm45686/icm45686.c ****   }
 179:src/drivers/icm45686/icm45686.c **** 
 180:src/drivers/icm45686/icm45686.c ****   return status;
 181:src/drivers/icm45686/icm45686.c **** }
 182:src/drivers/icm45686/icm45686.c **** 
 183:src/drivers/icm45686/icm45686.c **** icm45686_err_t icm45686_read_temp(icm45686_device_t *device, double *temp){
 184:src/drivers/icm45686/icm45686.c ****   uint8_t temp_data[2];
 185:src/drivers/icm45686/icm45686.c ****   icm45686_err_t status = icm45686_read_byte(device, ICM45686_REG_TEMP_DATA1_UI, &temp_data[0]);
 186:src/drivers/icm45686/icm45686.c ****   if (status == ICM45686_ERR_OK) {
 187:src/drivers/icm45686/icm45686.c ****     status = icm45686_read_byte(device, ICM45686_REG_TEMP_DATA0_UI, &temp_data[1]);
 188:src/drivers/icm45686/icm45686.c ****     if (status == ICM45686_ERR_OK) {
 189:src/drivers/icm45686/icm45686.c ****       int16_t temp_raw = (int16_t)((temp_data[0] << 8) | temp_data[1]);
 190:src/drivers/icm45686/icm45686.c ****       *temp = (double) (25.0f + (temp_raw / 256.0f)); // Convert to Celsius 
 191:src/drivers/icm45686/icm45686.c ****       }
 192:src/drivers/icm45686/icm45686.c ****     }
 193:src/drivers/icm45686/icm45686.c **** 
 194:src/drivers/icm45686/icm45686.c ****   return status;
 195:src/drivers/icm45686/icm45686.c ****   }
 196:src/drivers/icm45686/icm45686.c **** 
 197:src/drivers/icm45686/icm45686.c **** icm45686_err_t icm45686_read_byte(icm45686_device_t *device,
 198:src/drivers/icm45686/icm45686.c ****                                      uint8_t addr, uint8_t *byte) {
  29              		.loc 1 198 67 view -0
  30              		.cfi_startproc
  31              		@ args = 0, pretend = 0, frame = 8
ARM GAS  /tmp/ccY5pqER.s 			page 5


  32              		@ frame_needed = 0, uses_anonymous_args = 0
  33              		.loc 1 198 67 is_stmt 0 view .LVU1
  34 0000 70B5     		push	{r4, r5, r6, lr}
  35              	.LCFI0:
  36              		.cfi_def_cfa_offset 16
  37              		.cfi_offset 4, -16
  38              		.cfi_offset 5, -12
  39              		.cfi_offset 6, -8
  40              		.cfi_offset 14, -4
  41 0002 84B0     		sub	sp, sp, #16
  42              	.LCFI1:
  43              		.cfi_def_cfa_offset 32
  44 0004 0446     		mov	r4, r0
  45 0006 1646     		mov	r6, r2
 199:src/drivers/icm45686/icm45686.c ****   uint8_t tx[2];
  46              		.loc 1 199 3 is_stmt 1 view .LVU2
 200:src/drivers/icm45686/icm45686.c ****   uint8_t rx[2];
  47              		.loc 1 200 3 view .LVU3
 201:src/drivers/icm45686/icm45686.c **** 
 202:src/drivers/icm45686/icm45686.c ****   tx[0] = (1 << 7) | (addr & 0x7F);
  48              		.loc 1 202 3 view .LVU4
  49              		.loc 1 202 20 is_stmt 0 view .LVU5
  50 0008 41F08001 		orr	r1, r1, #128
  51              	.LVL1:
  52              		.loc 1 202 9 view .LVU6
  53 000c 8DF80C10 		strb	r1, [sp, #12]
 203:src/drivers/icm45686/icm45686.c ****   tx[1] = 0x00;
  54              		.loc 1 203 3 is_stmt 1 view .LVU7
  55              		.loc 1 203 9 is_stmt 0 view .LVU8
  56 0010 0025     		movs	r5, #0
  57 0012 8DF80D50 		strb	r5, [sp, #13]
 204:src/drivers/icm45686/icm45686.c **** 
 205:src/drivers/icm45686/icm45686.c ****   // TODO: add error handling
 206:src/drivers/icm45686/icm45686.c ****   HAL_GPIO_WritePin(device->cs_gpio_port, device->cs_gpio_pin, GPIO_PIN_RESET);
  58              		.loc 1 206 3 is_stmt 1 view .LVU9
  59 0016 2A46     		mov	r2, r5
  60              	.LVL2:
  61              		.loc 1 206 3 is_stmt 0 view .LVU10
  62 0018 018D     		ldrh	r1, [r0, #40]
  63 001a 406A     		ldr	r0, [r0, #36]
  64              	.LVL3:
  65              		.loc 1 206 3 view .LVU11
  66 001c FFF7FEFF 		bl	HAL_GPIO_WritePin
  67              	.LVL4:
 207:src/drivers/icm45686/icm45686.c ****   HAL_SPI_TransmitReceive(device->hspi, tx, rx, 2, HAL_MAX_DELAY);
  68              		.loc 1 207 3 is_stmt 1 view .LVU12
  69 0020 4FF0FF33 		mov	r3, #-1
  70 0024 0093     		str	r3, [sp]
  71 0026 0223     		movs	r3, #2
  72 0028 02AA     		add	r2, sp, #8
  73 002a 03A9     		add	r1, sp, #12
  74 002c 206A     		ldr	r0, [r4, #32]
  75 002e FFF7FEFF 		bl	HAL_SPI_TransmitReceive
  76              	.LVL5:
 208:src/drivers/icm45686/icm45686.c ****   HAL_GPIO_WritePin(device->cs_gpio_port, device->cs_gpio_pin, GPIO_PIN_SET);
  77              		.loc 1 208 3 view .LVU13
  78 0032 0122     		movs	r2, #1
ARM GAS  /tmp/ccY5pqER.s 			page 6


  79 0034 218D     		ldrh	r1, [r4, #40]
  80 0036 606A     		ldr	r0, [r4, #36]
  81 0038 FFF7FEFF 		bl	HAL_GPIO_WritePin
  82              	.LVL6:
 209:src/drivers/icm45686/icm45686.c **** 
 210:src/drivers/icm45686/icm45686.c ****   *byte = rx[1];
  83              		.loc 1 210 3 view .LVU14
  84              		.loc 1 210 13 is_stmt 0 view .LVU15
  85 003c 9DF80930 		ldrb	r3, [sp, #9]	@ zero_extendqisi2
  86              		.loc 1 210 9 view .LVU16
  87 0040 3370     		strb	r3, [r6]
 211:src/drivers/icm45686/icm45686.c **** 
 212:src/drivers/icm45686/icm45686.c ****   return ICM45686_ERR_OK;
  88              		.loc 1 212 3 is_stmt 1 view .LVU17
 213:src/drivers/icm45686/icm45686.c **** }
  89              		.loc 1 213 1 is_stmt 0 view .LVU18
  90 0042 2846     		mov	r0, r5
  91 0044 04B0     		add	sp, sp, #16
  92              	.LCFI2:
  93              		.cfi_def_cfa_offset 16
  94              		@ sp needed
  95 0046 70BD     		pop	{r4, r5, r6, pc}
  96              		.loc 1 213 1 view .LVU19
  97              		.cfi_endproc
  98              	.LFE150:
 100              		.section	.text.icm45686_read_whoami,"ax",%progbits
 101              		.align	1
 102              		.global	icm45686_read_whoami
 103              		.syntax unified
 104              		.thumb
 105              		.thumb_func
 107              	icm45686_read_whoami:
 108              	.LVL7:
 109              	.LFB145:
  20:src/drivers/icm45686/icm45686.c ****   icm45686_err_t status = ICM45686_ERR_OK;
 110              		.loc 1 20 57 is_stmt 1 view -0
 111              		.cfi_startproc
 112              		@ args = 0, pretend = 0, frame = 0
 113              		@ frame_needed = 0, uses_anonymous_args = 0
  20:src/drivers/icm45686/icm45686.c ****   icm45686_err_t status = ICM45686_ERR_OK;
 114              		.loc 1 20 57 is_stmt 0 view .LVU21
 115 0000 08B5     		push	{r3, lr}
 116              	.LCFI3:
 117              		.cfi_def_cfa_offset 8
 118              		.cfi_offset 3, -8
 119              		.cfi_offset 14, -4
 120 0002 0A46     		mov	r2, r1
  21:src/drivers/icm45686/icm45686.c **** 
 121              		.loc 1 21 3 is_stmt 1 view .LVU22
 122              	.LVL8:
  24:src/drivers/icm45686/icm45686.c **** 
 123              		.loc 1 24 3 view .LVU23
  24:src/drivers/icm45686/icm45686.c **** 
 124              		.loc 1 24 12 is_stmt 0 view .LVU24
 125 0004 7221     		movs	r1, #114
 126              	.LVL9:
  24:src/drivers/icm45686/icm45686.c **** 
ARM GAS  /tmp/ccY5pqER.s 			page 7


 127              		.loc 1 24 12 view .LVU25
 128 0006 FFF7FEFF 		bl	icm45686_read_byte
 129              	.LVL10:
  26:src/drivers/icm45686/icm45686.c **** }
 130              		.loc 1 26 3 is_stmt 1 view .LVU26
  27:src/drivers/icm45686/icm45686.c **** 
 131              		.loc 1 27 1 is_stmt 0 view .LVU27
 132 000a 08BD     		pop	{r3, pc}
 133              		.cfi_endproc
 134              	.LFE145:
 136              		.section	.text.icm45686_read_accel,"ax",%progbits
 137              		.align	1
 138              		.global	icm45686_read_accel
 139              		.syntax unified
 140              		.thumb
 141              		.thumb_func
 143              	icm45686_read_accel:
 144              	.LVL11:
 145              	.LFB147:
 127:src/drivers/icm45686/icm45686.c ****   uint8_t accel_data[6];
 146              		.loc 1 127 137 is_stmt 1 view -0
 147              		.cfi_startproc
 148              		@ args = 0, pretend = 0, frame = 8
 149              		@ frame_needed = 0, uses_anonymous_args = 0
 127:src/drivers/icm45686/icm45686.c ****   uint8_t accel_data[6];
 150              		.loc 1 127 137 is_stmt 0 view .LVU29
 151 0000 F0B5     		push	{r4, r5, r6, r7, lr}
 152              	.LCFI4:
 153              		.cfi_def_cfa_offset 20
 154              		.cfi_offset 4, -20
 155              		.cfi_offset 5, -16
 156              		.cfi_offset 6, -12
 157              		.cfi_offset 7, -8
 158              		.cfi_offset 14, -4
 159 0002 83B0     		sub	sp, sp, #12
 160              	.LCFI5:
 161              		.cfi_def_cfa_offset 32
 162 0004 0446     		mov	r4, r0
 163 0006 0F46     		mov	r7, r1
 164 0008 1646     		mov	r6, r2
 165 000a 1D46     		mov	r5, r3
 128:src/drivers/icm45686/icm45686.c ****   icm45686_err_t status = icm45686_read_byte(device, ICM45686_REG_ACCEL_DATA_X1_UI, &accel_data[0])
 166              		.loc 1 128 3 is_stmt 1 view .LVU30
 129:src/drivers/icm45686/icm45686.c ****   if (status == ICM45686_ERR_OK) {
 167              		.loc 1 129 3 view .LVU31
 129:src/drivers/icm45686/icm45686.c ****   if (status == ICM45686_ERR_OK) {
 168              		.loc 1 129 27 is_stmt 0 view .LVU32
 169 000c 6A46     		mov	r2, sp
 170              	.LVL12:
 129:src/drivers/icm45686/icm45686.c ****   if (status == ICM45686_ERR_OK) {
 171              		.loc 1 129 27 view .LVU33
 172 000e 0021     		movs	r1, #0
 173              	.LVL13:
 129:src/drivers/icm45686/icm45686.c ****   if (status == ICM45686_ERR_OK) {
 174              		.loc 1 129 27 view .LVU34
 175 0010 FFF7FEFF 		bl	icm45686_read_byte
 176              	.LVL14:
ARM GAS  /tmp/ccY5pqER.s 			page 8


 130:src/drivers/icm45686/icm45686.c ****     status = icm45686_read_byte(device, ICM45686_REG_ACCEL_DATA_X0_UI, &accel_data[1]);
 177              		.loc 1 130 3 is_stmt 1 view .LVU35
 130:src/drivers/icm45686/icm45686.c ****     status = icm45686_read_byte(device, ICM45686_REG_ACCEL_DATA_X0_UI, &accel_data[1]);
 178              		.loc 1 130 6 is_stmt 0 view .LVU36
 179 0014 8446     		mov	ip, r0
 180 0016 10B1     		cbz	r0, .L8
 181              	.L6:
 182              	.LVL15:
 152:src/drivers/icm45686/icm45686.c **** }
 183              		.loc 1 152 3 is_stmt 1 view .LVU37
 153:src/drivers/icm45686/icm45686.c **** 
 184              		.loc 1 153 1 is_stmt 0 view .LVU38
 185 0018 6046     		mov	r0, ip
 186 001a 03B0     		add	sp, sp, #12
 187              	.LCFI6:
 188              		.cfi_remember_state
 189              		.cfi_def_cfa_offset 20
 190              		@ sp needed
 191 001c F0BD     		pop	{r4, r5, r6, r7, pc}
 192              	.LVL16:
 193              	.L8:
 194              	.LCFI7:
 195              		.cfi_restore_state
 131:src/drivers/icm45686/icm45686.c ****     if (status == ICM45686_ERR_OK) {
 196              		.loc 1 131 5 is_stmt 1 view .LVU39
 131:src/drivers/icm45686/icm45686.c ****     if (status == ICM45686_ERR_OK) {
 197              		.loc 1 131 14 is_stmt 0 view .LVU40
 198 001e 0DF10102 		add	r2, sp, #1
 199 0022 0121     		movs	r1, #1
 200 0024 2046     		mov	r0, r4
 201              	.LVL17:
 131:src/drivers/icm45686/icm45686.c ****     if (status == ICM45686_ERR_OK) {
 202              		.loc 1 131 14 view .LVU41
 203 0026 FFF7FEFF 		bl	icm45686_read_byte
 204              	.LVL18:
 132:src/drivers/icm45686/icm45686.c ****       status = icm45686_read_byte(device, ICM45686_REG_ACCEL_DATA_Y1_UI, &accel_data[2]);
 205              		.loc 1 132 5 is_stmt 1 view .LVU42
 132:src/drivers/icm45686/icm45686.c ****       status = icm45686_read_byte(device, ICM45686_REG_ACCEL_DATA_Y1_UI, &accel_data[2]);
 206              		.loc 1 132 8 is_stmt 0 view .LVU43
 207 002a 8446     		mov	ip, r0
 208 002c 0028     		cmp	r0, #0
 209 002e F3D1     		bne	.L6
 133:src/drivers/icm45686/icm45686.c ****       if (status == ICM45686_ERR_OK) {
 210              		.loc 1 133 7 is_stmt 1 view .LVU44
 133:src/drivers/icm45686/icm45686.c ****       if (status == ICM45686_ERR_OK) {
 211              		.loc 1 133 16 is_stmt 0 view .LVU45
 212 0030 0DF10202 		add	r2, sp, #2
 213 0034 0221     		movs	r1, #2
 214 0036 2046     		mov	r0, r4
 215              	.LVL19:
 133:src/drivers/icm45686/icm45686.c ****       if (status == ICM45686_ERR_OK) {
 216              		.loc 1 133 16 view .LVU46
 217 0038 FFF7FEFF 		bl	icm45686_read_byte
 218              	.LVL20:
 134:src/drivers/icm45686/icm45686.c ****         status = icm45686_read_byte(device, ICM45686_REG_ACCEL_DATA_Y0_UI, &accel_data[3]);
 219              		.loc 1 134 7 is_stmt 1 view .LVU47
 134:src/drivers/icm45686/icm45686.c ****         status = icm45686_read_byte(device, ICM45686_REG_ACCEL_DATA_Y0_UI, &accel_data[3]);
ARM GAS  /tmp/ccY5pqER.s 			page 9


 220              		.loc 1 134 10 is_stmt 0 view .LVU48
 221 003c 8446     		mov	ip, r0
 222 003e 0028     		cmp	r0, #0
 223 0040 EAD1     		bne	.L6
 135:src/drivers/icm45686/icm45686.c ****         if (status == ICM45686_ERR_OK) {
 224              		.loc 1 135 9 is_stmt 1 view .LVU49
 135:src/drivers/icm45686/icm45686.c ****         if (status == ICM45686_ERR_OK) {
 225              		.loc 1 135 18 is_stmt 0 view .LVU50
 226 0042 0DF10302 		add	r2, sp, #3
 227 0046 0321     		movs	r1, #3
 228 0048 2046     		mov	r0, r4
 229              	.LVL21:
 135:src/drivers/icm45686/icm45686.c ****         if (status == ICM45686_ERR_OK) {
 230              		.loc 1 135 18 view .LVU51
 231 004a FFF7FEFF 		bl	icm45686_read_byte
 232              	.LVL22:
 136:src/drivers/icm45686/icm45686.c ****           status = icm45686_read_byte(device, ICM45686_REG_ACCEL_DATA_Z1_UI, &accel_data[4]);
 233              		.loc 1 136 9 is_stmt 1 view .LVU52
 136:src/drivers/icm45686/icm45686.c ****           status = icm45686_read_byte(device, ICM45686_REG_ACCEL_DATA_Z1_UI, &accel_data[4]);
 234              		.loc 1 136 12 is_stmt 0 view .LVU53
 235 004e 8446     		mov	ip, r0
 236 0050 0028     		cmp	r0, #0
 237 0052 E1D1     		bne	.L6
 137:src/drivers/icm45686/icm45686.c ****           if (status == ICM45686_ERR_OK) {
 238              		.loc 1 137 11 is_stmt 1 view .LVU54
 137:src/drivers/icm45686/icm45686.c ****           if (status == ICM45686_ERR_OK) {
 239              		.loc 1 137 20 is_stmt 0 view .LVU55
 240 0054 01AA     		add	r2, sp, #4
 241 0056 0421     		movs	r1, #4
 242 0058 2046     		mov	r0, r4
 243              	.LVL23:
 137:src/drivers/icm45686/icm45686.c ****           if (status == ICM45686_ERR_OK) {
 244              		.loc 1 137 20 view .LVU56
 245 005a FFF7FEFF 		bl	icm45686_read_byte
 246              	.LVL24:
 138:src/drivers/icm45686/icm45686.c ****             status = icm45686_read_byte(device, ICM45686_REG_ACCEL_DATA_Z0_UI, &accel_data[5]);
 247              		.loc 1 138 11 is_stmt 1 view .LVU57
 138:src/drivers/icm45686/icm45686.c ****             status = icm45686_read_byte(device, ICM45686_REG_ACCEL_DATA_Z0_UI, &accel_data[5]);
 248              		.loc 1 138 14 is_stmt 0 view .LVU58
 249 005e 8446     		mov	ip, r0
 250 0060 0028     		cmp	r0, #0
 251 0062 D9D1     		bne	.L6
 139:src/drivers/icm45686/icm45686.c ****           }
 252              		.loc 1 139 13 is_stmt 1 view .LVU59
 139:src/drivers/icm45686/icm45686.c ****           }
 253              		.loc 1 139 22 is_stmt 0 view .LVU60
 254 0064 0DF10502 		add	r2, sp, #5
 255 0068 0521     		movs	r1, #5
 256 006a 2046     		mov	r0, r4
 257              	.LVL25:
 139:src/drivers/icm45686/icm45686.c ****           }
 258              		.loc 1 139 22 view .LVU61
 259 006c FFF7FEFF 		bl	icm45686_read_byte
 260              	.LVL26:
 146:src/drivers/icm45686/icm45686.c ****     *accel_reading_x = (double) ((int16_t)((accel_data[0] << 8) | accel_data[1])) / device->accel_s
 261              		.loc 1 146 3 is_stmt 1 view .LVU62
 146:src/drivers/icm45686/icm45686.c ****     *accel_reading_x = (double) ((int16_t)((accel_data[0] << 8) | accel_data[1])) / device->accel_s
ARM GAS  /tmp/ccY5pqER.s 			page 10


 262              		.loc 1 146 6 is_stmt 0 view .LVU63
 263 0070 8446     		mov	ip, r0
 264 0072 0028     		cmp	r0, #0
 265 0074 D0D1     		bne	.L6
 147:src/drivers/icm45686/icm45686.c ****     *accel_reading_y = (double) ((int16_t)((accel_data[2] << 8) | accel_data[3])) / device->accel_s
 266              		.loc 1 147 5 is_stmt 1 view .LVU64
 147:src/drivers/icm45686/icm45686.c ****     *accel_reading_y = (double) ((int16_t)((accel_data[2] << 8) | accel_data[3])) / device->accel_s
 267              		.loc 1 147 55 is_stmt 0 view .LVU65
 268 0076 9DF80020 		ldrb	r2, [sp]	@ zero_extendqisi2
 147:src/drivers/icm45686/icm45686.c ****     *accel_reading_y = (double) ((int16_t)((accel_data[2] << 8) | accel_data[3])) / device->accel_s
 269              		.loc 1 147 77 view .LVU66
 270 007a 9DF80130 		ldrb	r3, [sp, #1]	@ zero_extendqisi2
 147:src/drivers/icm45686/icm45686.c ****     *accel_reading_y = (double) ((int16_t)((accel_data[2] << 8) | accel_data[3])) / device->accel_s
 271              		.loc 1 147 34 view .LVU67
 272 007e 43EA0223 		orr	r3, r3, r2, lsl #8
 273 0082 1BB2     		sxth	r3, r3
 147:src/drivers/icm45686/icm45686.c ****     *accel_reading_y = (double) ((int16_t)((accel_data[2] << 8) | accel_data[3])) / device->accel_s
 274              		.loc 1 147 24 view .LVU68
 275 0084 07EE903A 		vmov	s15, r3	@ int
 276 0088 B8EEE77B 		vcvt.f64.s32	d7, s15
 147:src/drivers/icm45686/icm45686.c ****     *accel_reading_y = (double) ((int16_t)((accel_data[2] << 8) | accel_data[3])) / device->accel_s
 277              		.loc 1 147 91 view .LVU69
 278 008c 94ED065B 		vldr.64	d5, [r4, #24]
 147:src/drivers/icm45686/icm45686.c ****     *accel_reading_y = (double) ((int16_t)((accel_data[2] << 8) | accel_data[3])) / device->accel_s
 279              		.loc 1 147 83 view .LVU70
 280 0090 87EE056B 		vdiv.f64	d6, d7, d5
 147:src/drivers/icm45686/icm45686.c ****     *accel_reading_y = (double) ((int16_t)((accel_data[2] << 8) | accel_data[3])) / device->accel_s
 281              		.loc 1 147 22 view .LVU71
 282 0094 87ED006B 		vstr.64	d6, [r7]
 148:src/drivers/icm45686/icm45686.c ****     *accel_reading_z = (double) ((int16_t)((accel_data[4] << 8) | accel_data[5])) / device->accel_s
 283              		.loc 1 148 5 is_stmt 1 view .LVU72
 148:src/drivers/icm45686/icm45686.c ****     *accel_reading_z = (double) ((int16_t)((accel_data[4] << 8) | accel_data[5])) / device->accel_s
 284              		.loc 1 148 55 is_stmt 0 view .LVU73
 285 0098 9DF80220 		ldrb	r2, [sp, #2]	@ zero_extendqisi2
 148:src/drivers/icm45686/icm45686.c ****     *accel_reading_z = (double) ((int16_t)((accel_data[4] << 8) | accel_data[5])) / device->accel_s
 286              		.loc 1 148 77 view .LVU74
 287 009c 9DF80330 		ldrb	r3, [sp, #3]	@ zero_extendqisi2
 148:src/drivers/icm45686/icm45686.c ****     *accel_reading_z = (double) ((int16_t)((accel_data[4] << 8) | accel_data[5])) / device->accel_s
 288              		.loc 1 148 34 view .LVU75
 289 00a0 43EA0223 		orr	r3, r3, r2, lsl #8
 290 00a4 1BB2     		sxth	r3, r3
 148:src/drivers/icm45686/icm45686.c ****     *accel_reading_z = (double) ((int16_t)((accel_data[4] << 8) | accel_data[5])) / device->accel_s
 291              		.loc 1 148 24 view .LVU76
 292 00a6 07EE903A 		vmov	s15, r3	@ int
 293 00aa B8EEE77B 		vcvt.f64.s32	d7, s15
 148:src/drivers/icm45686/icm45686.c ****     *accel_reading_z = (double) ((int16_t)((accel_data[4] << 8) | accel_data[5])) / device->accel_s
 294              		.loc 1 148 91 view .LVU77
 295 00ae 94ED065B 		vldr.64	d5, [r4, #24]
 148:src/drivers/icm45686/icm45686.c ****     *accel_reading_z = (double) ((int16_t)((accel_data[4] << 8) | accel_data[5])) / device->accel_s
 296              		.loc 1 148 83 view .LVU78
 297 00b2 87EE056B 		vdiv.f64	d6, d7, d5
 148:src/drivers/icm45686/icm45686.c ****     *accel_reading_z = (double) ((int16_t)((accel_data[4] << 8) | accel_data[5])) / device->accel_s
 298              		.loc 1 148 22 view .LVU79
 299 00b6 86ED006B 		vstr.64	d6, [r6]
 149:src/drivers/icm45686/icm45686.c ****   }
 300              		.loc 1 149 5 is_stmt 1 view .LVU80
 149:src/drivers/icm45686/icm45686.c ****   }
ARM GAS  /tmp/ccY5pqER.s 			page 11


 301              		.loc 1 149 55 is_stmt 0 view .LVU81
 302 00ba 9DF80420 		ldrb	r2, [sp, #4]	@ zero_extendqisi2
 149:src/drivers/icm45686/icm45686.c ****   }
 303              		.loc 1 149 77 view .LVU82
 304 00be 9DF80530 		ldrb	r3, [sp, #5]	@ zero_extendqisi2
 149:src/drivers/icm45686/icm45686.c ****   }
 305              		.loc 1 149 34 view .LVU83
 306 00c2 43EA0223 		orr	r3, r3, r2, lsl #8
 307 00c6 1BB2     		sxth	r3, r3
 149:src/drivers/icm45686/icm45686.c ****   }
 308              		.loc 1 149 24 view .LVU84
 309 00c8 07EE903A 		vmov	s15, r3	@ int
 310 00cc B8EEE77B 		vcvt.f64.s32	d7, s15
 149:src/drivers/icm45686/icm45686.c ****   }
 311              		.loc 1 149 91 view .LVU85
 312 00d0 94ED065B 		vldr.64	d5, [r4, #24]
 149:src/drivers/icm45686/icm45686.c ****   }
 313              		.loc 1 149 83 view .LVU86
 314 00d4 87EE056B 		vdiv.f64	d6, d7, d5
 149:src/drivers/icm45686/icm45686.c ****   }
 315              		.loc 1 149 22 view .LVU87
 316 00d8 85ED006B 		vstr.64	d6, [r5]
 317 00dc 9CE7     		b	.L6
 318              		.cfi_endproc
 319              	.LFE147:
 321              		.section	.text.icm45686_read_gyro,"ax",%progbits
 322              		.align	1
 323              		.global	icm45686_read_gyro
 324              		.syntax unified
 325              		.thumb
 326              		.thumb_func
 328              	icm45686_read_gyro:
 329              	.LVL27:
 330              	.LFB148:
 155:src/drivers/icm45686/icm45686.c ****   uint8_t gyro_data[6];
 331              		.loc 1 155 133 is_stmt 1 view -0
 332              		.cfi_startproc
 333              		@ args = 0, pretend = 0, frame = 8
 334              		@ frame_needed = 0, uses_anonymous_args = 0
 155:src/drivers/icm45686/icm45686.c ****   uint8_t gyro_data[6];
 335              		.loc 1 155 133 is_stmt 0 view .LVU89
 336 0000 F0B5     		push	{r4, r5, r6, r7, lr}
 337              	.LCFI8:
 338              		.cfi_def_cfa_offset 20
 339              		.cfi_offset 4, -20
 340              		.cfi_offset 5, -16
 341              		.cfi_offset 6, -12
 342              		.cfi_offset 7, -8
 343              		.cfi_offset 14, -4
 344 0002 83B0     		sub	sp, sp, #12
 345              	.LCFI9:
 346              		.cfi_def_cfa_offset 32
 347 0004 0446     		mov	r4, r0
 348 0006 0F46     		mov	r7, r1
 349 0008 1646     		mov	r6, r2
 350 000a 1D46     		mov	r5, r3
 156:src/drivers/icm45686/icm45686.c ****   icm45686_err_t status = icm45686_read_byte(device, ICM45686_REG_GYRO_DATA_X1_UI, &gyro_data[0]);
ARM GAS  /tmp/ccY5pqER.s 			page 12


 351              		.loc 1 156 3 is_stmt 1 view .LVU90
 157:src/drivers/icm45686/icm45686.c ****   if (status == ICM45686_ERR_OK) {
 352              		.loc 1 157 3 view .LVU91
 157:src/drivers/icm45686/icm45686.c ****   if (status == ICM45686_ERR_OK) {
 353              		.loc 1 157 27 is_stmt 0 view .LVU92
 354 000c 6A46     		mov	r2, sp
 355              	.LVL28:
 157:src/drivers/icm45686/icm45686.c ****   if (status == ICM45686_ERR_OK) {
 356              		.loc 1 157 27 view .LVU93
 357 000e 0621     		movs	r1, #6
 358              	.LVL29:
 157:src/drivers/icm45686/icm45686.c ****   if (status == ICM45686_ERR_OK) {
 359              		.loc 1 157 27 view .LVU94
 360 0010 FFF7FEFF 		bl	icm45686_read_byte
 361              	.LVL30:
 158:src/drivers/icm45686/icm45686.c ****     status = icm45686_read_byte(device, ICM45686_REG_GYRO_DATA_X0_UI, &gyro_data[1]);
 362              		.loc 1 158 3 is_stmt 1 view .LVU95
 158:src/drivers/icm45686/icm45686.c ****     status = icm45686_read_byte(device, ICM45686_REG_GYRO_DATA_X0_UI, &gyro_data[1]);
 363              		.loc 1 158 6 is_stmt 0 view .LVU96
 364 0014 8446     		mov	ip, r0
 365 0016 10B1     		cbz	r0, .L12
 366              	.L10:
 367              	.LVL31:
 180:src/drivers/icm45686/icm45686.c **** }
 368              		.loc 1 180 3 is_stmt 1 view .LVU97
 181:src/drivers/icm45686/icm45686.c **** 
 369              		.loc 1 181 1 is_stmt 0 view .LVU98
 370 0018 6046     		mov	r0, ip
 371 001a 03B0     		add	sp, sp, #12
 372              	.LCFI10:
 373              		.cfi_remember_state
 374              		.cfi_def_cfa_offset 20
 375              		@ sp needed
 376 001c F0BD     		pop	{r4, r5, r6, r7, pc}
 377              	.LVL32:
 378              	.L12:
 379              	.LCFI11:
 380              		.cfi_restore_state
 159:src/drivers/icm45686/icm45686.c ****     if (status == ICM45686_ERR_OK) {
 381              		.loc 1 159 5 is_stmt 1 view .LVU99
 159:src/drivers/icm45686/icm45686.c ****     if (status == ICM45686_ERR_OK) {
 382              		.loc 1 159 14 is_stmt 0 view .LVU100
 383 001e 0DF10102 		add	r2, sp, #1
 384 0022 0721     		movs	r1, #7
 385 0024 2046     		mov	r0, r4
 386              	.LVL33:
 159:src/drivers/icm45686/icm45686.c ****     if (status == ICM45686_ERR_OK) {
 387              		.loc 1 159 14 view .LVU101
 388 0026 FFF7FEFF 		bl	icm45686_read_byte
 389              	.LVL34:
 160:src/drivers/icm45686/icm45686.c ****       status = icm45686_read_byte(device, ICM45686_REG_GYRO_DATA_Y1_UI, &gyro_data[2]);
 390              		.loc 1 160 5 is_stmt 1 view .LVU102
 160:src/drivers/icm45686/icm45686.c ****       status = icm45686_read_byte(device, ICM45686_REG_GYRO_DATA_Y1_UI, &gyro_data[2]);
 391              		.loc 1 160 8 is_stmt 0 view .LVU103
 392 002a 8446     		mov	ip, r0
 393 002c 0028     		cmp	r0, #0
 394 002e F3D1     		bne	.L10
ARM GAS  /tmp/ccY5pqER.s 			page 13


 161:src/drivers/icm45686/icm45686.c ****       if (status == ICM45686_ERR_OK) {
 395              		.loc 1 161 7 is_stmt 1 view .LVU104
 161:src/drivers/icm45686/icm45686.c ****       if (status == ICM45686_ERR_OK) {
 396              		.loc 1 161 16 is_stmt 0 view .LVU105
 397 0030 0DF10202 		add	r2, sp, #2
 398 0034 0821     		movs	r1, #8
 399 0036 2046     		mov	r0, r4
 400              	.LVL35:
 161:src/drivers/icm45686/icm45686.c ****       if (status == ICM45686_ERR_OK) {
 401              		.loc 1 161 16 view .LVU106
 402 0038 FFF7FEFF 		bl	icm45686_read_byte
 403              	.LVL36:
 162:src/drivers/icm45686/icm45686.c ****         status = icm45686_read_byte(device, ICM45686_REG_GYRO_DATA_Y0_UI, &gyro_data[3]);
 404              		.loc 1 162 7 is_stmt 1 view .LVU107
 162:src/drivers/icm45686/icm45686.c ****         status = icm45686_read_byte(device, ICM45686_REG_GYRO_DATA_Y0_UI, &gyro_data[3]);
 405              		.loc 1 162 10 is_stmt 0 view .LVU108
 406 003c 8446     		mov	ip, r0
 407 003e 0028     		cmp	r0, #0
 408 0040 EAD1     		bne	.L10
 163:src/drivers/icm45686/icm45686.c ****         if (status == ICM45686_ERR_OK) {
 409              		.loc 1 163 9 is_stmt 1 view .LVU109
 163:src/drivers/icm45686/icm45686.c ****         if (status == ICM45686_ERR_OK) {
 410              		.loc 1 163 18 is_stmt 0 view .LVU110
 411 0042 0DF10302 		add	r2, sp, #3
 412 0046 0921     		movs	r1, #9
 413 0048 2046     		mov	r0, r4
 414              	.LVL37:
 163:src/drivers/icm45686/icm45686.c ****         if (status == ICM45686_ERR_OK) {
 415              		.loc 1 163 18 view .LVU111
 416 004a FFF7FEFF 		bl	icm45686_read_byte
 417              	.LVL38:
 164:src/drivers/icm45686/icm45686.c ****           status = icm45686_read_byte(device, ICM45686_REG_GYRO_DATA_Z1_UI, &gyro_data[4]);
 418              		.loc 1 164 9 is_stmt 1 view .LVU112
 164:src/drivers/icm45686/icm45686.c ****           status = icm45686_read_byte(device, ICM45686_REG_GYRO_DATA_Z1_UI, &gyro_data[4]);
 419              		.loc 1 164 12 is_stmt 0 view .LVU113
 420 004e 8446     		mov	ip, r0
 421 0050 0028     		cmp	r0, #0
 422 0052 E1D1     		bne	.L10
 165:src/drivers/icm45686/icm45686.c ****           if (status == ICM45686_ERR_OK) {
 423              		.loc 1 165 11 is_stmt 1 view .LVU114
 165:src/drivers/icm45686/icm45686.c ****           if (status == ICM45686_ERR_OK) {
 424              		.loc 1 165 20 is_stmt 0 view .LVU115
 425 0054 01AA     		add	r2, sp, #4
 426 0056 0A21     		movs	r1, #10
 427 0058 2046     		mov	r0, r4
 428              	.LVL39:
 165:src/drivers/icm45686/icm45686.c ****           if (status == ICM45686_ERR_OK) {
 429              		.loc 1 165 20 view .LVU116
 430 005a FFF7FEFF 		bl	icm45686_read_byte
 431              	.LVL40:
 166:src/drivers/icm45686/icm45686.c ****             status = icm45686_read_byte(device, ICM45686_REG_GYRO_DATA_Z0_UI, &gyro_data[5]);
 432              		.loc 1 166 11 is_stmt 1 view .LVU117
 166:src/drivers/icm45686/icm45686.c ****             status = icm45686_read_byte(device, ICM45686_REG_GYRO_DATA_Z0_UI, &gyro_data[5]);
 433              		.loc 1 166 14 is_stmt 0 view .LVU118
 434 005e 8446     		mov	ip, r0
 435 0060 0028     		cmp	r0, #0
 436 0062 D9D1     		bne	.L10
ARM GAS  /tmp/ccY5pqER.s 			page 14


 167:src/drivers/icm45686/icm45686.c ****           }
 437              		.loc 1 167 13 is_stmt 1 view .LVU119
 167:src/drivers/icm45686/icm45686.c ****           }
 438              		.loc 1 167 22 is_stmt 0 view .LVU120
 439 0064 0DF10502 		add	r2, sp, #5
 440 0068 0B21     		movs	r1, #11
 441 006a 2046     		mov	r0, r4
 442              	.LVL41:
 167:src/drivers/icm45686/icm45686.c ****           }
 443              		.loc 1 167 22 view .LVU121
 444 006c FFF7FEFF 		bl	icm45686_read_byte
 445              	.LVL42:
 174:src/drivers/icm45686/icm45686.c ****     *gyro_reading_x = (double) ((int16_t) ((gyro_data[0] << 8) | gyro_data[1])) / device->gyro_sens
 446              		.loc 1 174 3 is_stmt 1 view .LVU122
 174:src/drivers/icm45686/icm45686.c ****     *gyro_reading_x = (double) ((int16_t) ((gyro_data[0] << 8) | gyro_data[1])) / device->gyro_sens
 447              		.loc 1 174 6 is_stmt 0 view .LVU123
 448 0070 8446     		mov	ip, r0
 449 0072 0028     		cmp	r0, #0
 450 0074 D0D1     		bne	.L10
 175:src/drivers/icm45686/icm45686.c ****     *gyro_reading_y = (double) ((int16_t) ((gyro_data[2] << 8) | gyro_data[3])) / device->gyro_sens
 451              		.loc 1 175 5 is_stmt 1 view .LVU124
 175:src/drivers/icm45686/icm45686.c ****     *gyro_reading_y = (double) ((int16_t) ((gyro_data[2] << 8) | gyro_data[3])) / device->gyro_sens
 452              		.loc 1 175 54 is_stmt 0 view .LVU125
 453 0076 9DF80020 		ldrb	r2, [sp]	@ zero_extendqisi2
 175:src/drivers/icm45686/icm45686.c ****     *gyro_reading_y = (double) ((int16_t) ((gyro_data[2] << 8) | gyro_data[3])) / device->gyro_sens
 454              		.loc 1 175 75 view .LVU126
 455 007a 9DF80130 		ldrb	r3, [sp, #1]	@ zero_extendqisi2
 175:src/drivers/icm45686/icm45686.c ****     *gyro_reading_y = (double) ((int16_t) ((gyro_data[2] << 8) | gyro_data[3])) / device->gyro_sens
 456              		.loc 1 175 33 view .LVU127
 457 007e 43EA0223 		orr	r3, r3, r2, lsl #8
 458 0082 1BB2     		sxth	r3, r3
 175:src/drivers/icm45686/icm45686.c ****     *gyro_reading_y = (double) ((int16_t) ((gyro_data[2] << 8) | gyro_data[3])) / device->gyro_sens
 459              		.loc 1 175 23 view .LVU128
 460 0084 07EE903A 		vmov	s15, r3	@ int
 461 0088 B8EEE77B 		vcvt.f64.s32	d7, s15
 175:src/drivers/icm45686/icm45686.c ****     *gyro_reading_y = (double) ((int16_t) ((gyro_data[2] << 8) | gyro_data[3])) / device->gyro_sens
 462              		.loc 1 175 89 view .LVU129
 463 008c 94ED025B 		vldr.64	d5, [r4, #8]
 175:src/drivers/icm45686/icm45686.c ****     *gyro_reading_y = (double) ((int16_t) ((gyro_data[2] << 8) | gyro_data[3])) / device->gyro_sens
 464              		.loc 1 175 81 view .LVU130
 465 0090 87EE056B 		vdiv.f64	d6, d7, d5
 175:src/drivers/icm45686/icm45686.c ****     *gyro_reading_y = (double) ((int16_t) ((gyro_data[2] << 8) | gyro_data[3])) / device->gyro_sens
 466              		.loc 1 175 21 view .LVU131
 467 0094 87ED006B 		vstr.64	d6, [r7]
 176:src/drivers/icm45686/icm45686.c ****     *gyro_reading_z = (double) ((int16_t) ((gyro_data[4] << 8) | gyro_data[5])) / device->gyro_sens
 468              		.loc 1 176 5 is_stmt 1 view .LVU132
 176:src/drivers/icm45686/icm45686.c ****     *gyro_reading_z = (double) ((int16_t) ((gyro_data[4] << 8) | gyro_data[5])) / device->gyro_sens
 469              		.loc 1 176 54 is_stmt 0 view .LVU133
 470 0098 9DF80220 		ldrb	r2, [sp, #2]	@ zero_extendqisi2
 176:src/drivers/icm45686/icm45686.c ****     *gyro_reading_z = (double) ((int16_t) ((gyro_data[4] << 8) | gyro_data[5])) / device->gyro_sens
 471              		.loc 1 176 75 view .LVU134
 472 009c 9DF80330 		ldrb	r3, [sp, #3]	@ zero_extendqisi2
 176:src/drivers/icm45686/icm45686.c ****     *gyro_reading_z = (double) ((int16_t) ((gyro_data[4] << 8) | gyro_data[5])) / device->gyro_sens
 473              		.loc 1 176 33 view .LVU135
 474 00a0 43EA0223 		orr	r3, r3, r2, lsl #8
 475 00a4 1BB2     		sxth	r3, r3
 176:src/drivers/icm45686/icm45686.c ****     *gyro_reading_z = (double) ((int16_t) ((gyro_data[4] << 8) | gyro_data[5])) / device->gyro_sens
ARM GAS  /tmp/ccY5pqER.s 			page 15


 476              		.loc 1 176 23 view .LVU136
 477 00a6 07EE903A 		vmov	s15, r3	@ int
 478 00aa B8EEE77B 		vcvt.f64.s32	d7, s15
 176:src/drivers/icm45686/icm45686.c ****     *gyro_reading_z = (double) ((int16_t) ((gyro_data[4] << 8) | gyro_data[5])) / device->gyro_sens
 479              		.loc 1 176 89 view .LVU137
 480 00ae 94ED025B 		vldr.64	d5, [r4, #8]
 176:src/drivers/icm45686/icm45686.c ****     *gyro_reading_z = (double) ((int16_t) ((gyro_data[4] << 8) | gyro_data[5])) / device->gyro_sens
 481              		.loc 1 176 81 view .LVU138
 482 00b2 87EE056B 		vdiv.f64	d6, d7, d5
 176:src/drivers/icm45686/icm45686.c ****     *gyro_reading_z = (double) ((int16_t) ((gyro_data[4] << 8) | gyro_data[5])) / device->gyro_sens
 483              		.loc 1 176 21 view .LVU139
 484 00b6 86ED006B 		vstr.64	d6, [r6]
 177:src/drivers/icm45686/icm45686.c ****   }
 485              		.loc 1 177 5 is_stmt 1 view .LVU140
 177:src/drivers/icm45686/icm45686.c ****   }
 486              		.loc 1 177 54 is_stmt 0 view .LVU141
 487 00ba 9DF80420 		ldrb	r2, [sp, #4]	@ zero_extendqisi2
 177:src/drivers/icm45686/icm45686.c ****   }
 488              		.loc 1 177 75 view .LVU142
 489 00be 9DF80530 		ldrb	r3, [sp, #5]	@ zero_extendqisi2
 177:src/drivers/icm45686/icm45686.c ****   }
 490              		.loc 1 177 33 view .LVU143
 491 00c2 43EA0223 		orr	r3, r3, r2, lsl #8
 492 00c6 1BB2     		sxth	r3, r3
 177:src/drivers/icm45686/icm45686.c ****   }
 493              		.loc 1 177 23 view .LVU144
 494 00c8 07EE903A 		vmov	s15, r3	@ int
 495 00cc B8EEE77B 		vcvt.f64.s32	d7, s15
 177:src/drivers/icm45686/icm45686.c ****   }
 496              		.loc 1 177 89 view .LVU145
 497 00d0 94ED025B 		vldr.64	d5, [r4, #8]
 177:src/drivers/icm45686/icm45686.c ****   }
 498              		.loc 1 177 81 view .LVU146
 499 00d4 87EE056B 		vdiv.f64	d6, d7, d5
 177:src/drivers/icm45686/icm45686.c ****   }
 500              		.loc 1 177 21 view .LVU147
 501 00d8 85ED006B 		vstr.64	d6, [r5]
 502 00dc 9CE7     		b	.L10
 503              		.cfi_endproc
 504              	.LFE148:
 506              		.section	.text.icm45686_read_temp,"ax",%progbits
 507              		.align	1
 508              		.global	icm45686_read_temp
 509              		.syntax unified
 510              		.thumb
 511              		.thumb_func
 513              	icm45686_read_temp:
 514              	.LVL43:
 515              	.LFB149:
 183:src/drivers/icm45686/icm45686.c ****   uint8_t temp_data[2];
 516              		.loc 1 183 75 is_stmt 1 view -0
 517              		.cfi_startproc
 518              		@ args = 0, pretend = 0, frame = 8
 519              		@ frame_needed = 0, uses_anonymous_args = 0
 183:src/drivers/icm45686/icm45686.c ****   uint8_t temp_data[2];
 520              		.loc 1 183 75 is_stmt 0 view .LVU149
 521 0000 30B5     		push	{r4, r5, lr}
ARM GAS  /tmp/ccY5pqER.s 			page 16


 522              	.LCFI12:
 523              		.cfi_def_cfa_offset 12
 524              		.cfi_offset 4, -12
 525              		.cfi_offset 5, -8
 526              		.cfi_offset 14, -4
 527 0002 83B0     		sub	sp, sp, #12
 528              	.LCFI13:
 529              		.cfi_def_cfa_offset 24
 530 0004 0446     		mov	r4, r0
 531 0006 0D46     		mov	r5, r1
 184:src/drivers/icm45686/icm45686.c ****   icm45686_err_t status = icm45686_read_byte(device, ICM45686_REG_TEMP_DATA1_UI, &temp_data[0]);
 532              		.loc 1 184 3 is_stmt 1 view .LVU150
 185:src/drivers/icm45686/icm45686.c ****   if (status == ICM45686_ERR_OK) {
 533              		.loc 1 185 3 view .LVU151
 185:src/drivers/icm45686/icm45686.c ****   if (status == ICM45686_ERR_OK) {
 534              		.loc 1 185 27 is_stmt 0 view .LVU152
 535 0008 01AA     		add	r2, sp, #4
 536 000a 0C21     		movs	r1, #12
 537              	.LVL44:
 185:src/drivers/icm45686/icm45686.c ****   if (status == ICM45686_ERR_OK) {
 538              		.loc 1 185 27 view .LVU153
 539 000c FFF7FEFF 		bl	icm45686_read_byte
 540              	.LVL45:
 186:src/drivers/icm45686/icm45686.c ****     status = icm45686_read_byte(device, ICM45686_REG_TEMP_DATA0_UI, &temp_data[1]);
 541              		.loc 1 186 3 is_stmt 1 view .LVU154
 186:src/drivers/icm45686/icm45686.c ****     status = icm45686_read_byte(device, ICM45686_REG_TEMP_DATA0_UI, &temp_data[1]);
 542              		.loc 1 186 6 is_stmt 0 view .LVU155
 543 0010 08B1     		cbz	r0, .L16
 544              	.L14:
 545              	.LVL46:
 194:src/drivers/icm45686/icm45686.c ****   }
 546              		.loc 1 194 3 is_stmt 1 view .LVU156
 195:src/drivers/icm45686/icm45686.c **** 
 547              		.loc 1 195 3 is_stmt 0 view .LVU157
 548 0012 03B0     		add	sp, sp, #12
 549              	.LCFI14:
 550              		.cfi_remember_state
 551              		.cfi_def_cfa_offset 12
 552              		@ sp needed
 553 0014 30BD     		pop	{r4, r5, pc}
 554              	.LVL47:
 555              	.L16:
 556              	.LCFI15:
 557              		.cfi_restore_state
 187:src/drivers/icm45686/icm45686.c ****     if (status == ICM45686_ERR_OK) {
 558              		.loc 1 187 5 is_stmt 1 view .LVU158
 187:src/drivers/icm45686/icm45686.c ****     if (status == ICM45686_ERR_OK) {
 559              		.loc 1 187 14 is_stmt 0 view .LVU159
 560 0016 0DF10502 		add	r2, sp, #5
 561 001a 0D21     		movs	r1, #13
 562 001c 2046     		mov	r0, r4
 563 001e FFF7FEFF 		bl	icm45686_read_byte
 564              	.LVL48:
 188:src/drivers/icm45686/icm45686.c ****       int16_t temp_raw = (int16_t)((temp_data[0] << 8) | temp_data[1]);
 565              		.loc 1 188 5 is_stmt 1 view .LVU160
 188:src/drivers/icm45686/icm45686.c ****       int16_t temp_raw = (int16_t)((temp_data[0] << 8) | temp_data[1]);
 566              		.loc 1 188 8 is_stmt 0 view .LVU161
ARM GAS  /tmp/ccY5pqER.s 			page 17


 567 0022 0028     		cmp	r0, #0
 568 0024 F5D1     		bne	.L14
 569              	.LBB2:
 189:src/drivers/icm45686/icm45686.c ****       *temp = (double) (25.0f + (temp_raw / 256.0f)); // Convert to Celsius 
 570              		.loc 1 189 7 is_stmt 1 view .LVU162
 189:src/drivers/icm45686/icm45686.c ****       *temp = (double) (25.0f + (temp_raw / 256.0f)); // Convert to Celsius 
 571              		.loc 1 189 46 is_stmt 0 view .LVU163
 572 0026 9DF80430 		ldrb	r3, [sp, #4]	@ zero_extendqisi2
 189:src/drivers/icm45686/icm45686.c ****       *temp = (double) (25.0f + (temp_raw / 256.0f)); // Convert to Celsius 
 573              		.loc 1 189 50 view .LVU164
 574 002a 1B02     		lsls	r3, r3, #8
 189:src/drivers/icm45686/icm45686.c ****       *temp = (double) (25.0f + (temp_raw / 256.0f)); // Convert to Celsius 
 575              		.loc 1 189 26 view .LVU165
 576 002c 1BB2     		sxth	r3, r3
 189:src/drivers/icm45686/icm45686.c ****       *temp = (double) (25.0f + (temp_raw / 256.0f)); // Convert to Celsius 
 577              		.loc 1 189 67 view .LVU166
 578 002e 9DF80520 		ldrb	r2, [sp, #5]	@ zero_extendqisi2
 189:src/drivers/icm45686/icm45686.c ****       *temp = (double) (25.0f + (temp_raw / 256.0f)); // Convert to Celsius 
 579              		.loc 1 189 15 view .LVU167
 580 0032 1343     		orrs	r3, r3, r2
 581 0034 07EE103A 		vmov	s14, r3	@ int
 582              	.LVL49:
 190:src/drivers/icm45686/icm45686.c ****       }
 583              		.loc 1 190 7 is_stmt 1 view .LVU168
 190:src/drivers/icm45686/icm45686.c ****       }
 584              		.loc 1 190 43 is_stmt 0 view .LVU169
 585 0038 B8EEC77A 		vcvt.f32.s32	s14, s14
 586              	.LVL50:
 190:src/drivers/icm45686/icm45686.c ****       }
 587              		.loc 1 190 43 view .LVU170
 588 003c DFED067A 		vldr.32	s15, .L17
 589 0040 27EE277A 		vmul.f32	s14, s14, s15
 190:src/drivers/icm45686/icm45686.c ****       }
 590              		.loc 1 190 31 view .LVU171
 591 0044 F3EE097A 		vmov.f32	s15, #2.5e+1
 592 0048 37EE277A 		vadd.f32	s14, s14, s15
 190:src/drivers/icm45686/icm45686.c ****       }
 593              		.loc 1 190 15 view .LVU172
 594 004c B7EEC77A 		vcvt.f64.f32	d7, s14
 190:src/drivers/icm45686/icm45686.c ****       }
 595              		.loc 1 190 13 view .LVU173
 596 0050 85ED007B 		vstr.64	d7, [r5]
 597 0054 DDE7     		b	.L14
 598              	.L18:
 599 0056 00BF     		.align	2
 600              	.L17:
 601 0058 0000803B 		.word	998244352
 602              	.LBE2:
 603              		.cfi_endproc
 604              	.LFE149:
 606              		.section	.text.icm45686_write_byte,"ax",%progbits
 607              		.align	1
 608              		.global	icm45686_write_byte
 609              		.syntax unified
 610              		.thumb
 611              		.thumb_func
 613              	icm45686_write_byte:
ARM GAS  /tmp/ccY5pqER.s 			page 18


 614              	.LVL51:
 615              	.LFB151:
 214:src/drivers/icm45686/icm45686.c **** 
 215:src/drivers/icm45686/icm45686.c **** icm45686_err_t icm45686_write_byte(icm45686_device_t *device,
 216:src/drivers/icm45686/icm45686.c ****                                       uint8_t addr, uint8_t byte) {
 616              		.loc 1 216 67 is_stmt 1 view -0
 617              		.cfi_startproc
 618              		@ args = 0, pretend = 0, frame = 8
 619              		@ frame_needed = 0, uses_anonymous_args = 0
 620              		.loc 1 216 67 is_stmt 0 view .LVU175
 621 0000 10B5     		push	{r4, lr}
 622              	.LCFI16:
 623              		.cfi_def_cfa_offset 8
 624              		.cfi_offset 4, -8
 625              		.cfi_offset 14, -4
 626 0002 82B0     		sub	sp, sp, #8
 627              	.LCFI17:
 628              		.cfi_def_cfa_offset 16
 629 0004 0446     		mov	r4, r0
 217:src/drivers/icm45686/icm45686.c ****   uint8_t tx[2];
 630              		.loc 1 217 3 is_stmt 1 view .LVU176
 218:src/drivers/icm45686/icm45686.c **** 
 219:src/drivers/icm45686/icm45686.c ****   tx[0] = addr & 0x7F;
 631              		.loc 1 219 3 view .LVU177
 632              		.loc 1 219 16 is_stmt 0 view .LVU178
 633 0006 01F07F01 		and	r1, r1, #127
 634              	.LVL52:
 635              		.loc 1 219 9 view .LVU179
 636 000a 8DF80410 		strb	r1, [sp, #4]
 220:src/drivers/icm45686/icm45686.c ****   tx[1] = byte;
 637              		.loc 1 220 3 is_stmt 1 view .LVU180
 638              		.loc 1 220 9 is_stmt 0 view .LVU181
 639 000e 8DF80520 		strb	r2, [sp, #5]
 221:src/drivers/icm45686/icm45686.c **** 
 222:src/drivers/icm45686/icm45686.c ****   // TODO: add error handling
 223:src/drivers/icm45686/icm45686.c ****   HAL_GPIO_WritePin(device->cs_gpio_port, device->cs_gpio_pin, GPIO_PIN_RESET);
 640              		.loc 1 223 3 is_stmt 1 view .LVU182
 641 0012 0022     		movs	r2, #0
 642              	.LVL53:
 643              		.loc 1 223 3 is_stmt 0 view .LVU183
 644 0014 018D     		ldrh	r1, [r0, #40]
 645 0016 406A     		ldr	r0, [r0, #36]
 646              	.LVL54:
 647              		.loc 1 223 3 view .LVU184
 648 0018 FFF7FEFF 		bl	HAL_GPIO_WritePin
 649              	.LVL55:
 224:src/drivers/icm45686/icm45686.c ****   HAL_SPI_Transmit(device->hspi, tx, 2, HAL_MAX_DELAY);
 650              		.loc 1 224 3 is_stmt 1 view .LVU185
 651 001c 4FF0FF33 		mov	r3, #-1
 652 0020 0222     		movs	r2, #2
 653 0022 01A9     		add	r1, sp, #4
 654 0024 206A     		ldr	r0, [r4, #32]
 655 0026 FFF7FEFF 		bl	HAL_SPI_Transmit
 656              	.LVL56:
 225:src/drivers/icm45686/icm45686.c ****   HAL_GPIO_WritePin(device->cs_gpio_port, device->cs_gpio_pin, GPIO_PIN_SET);
 657              		.loc 1 225 3 view .LVU186
 658 002a 0122     		movs	r2, #1
ARM GAS  /tmp/ccY5pqER.s 			page 19


 659 002c 218D     		ldrh	r1, [r4, #40]
 660 002e 606A     		ldr	r0, [r4, #36]
 661 0030 FFF7FEFF 		bl	HAL_GPIO_WritePin
 662              	.LVL57:
 226:src/drivers/icm45686/icm45686.c **** 
 227:src/drivers/icm45686/icm45686.c ****   return ICM45686_ERR_OK;
 663              		.loc 1 227 3 view .LVU187
 228:src/drivers/icm45686/icm45686.c **** }
 664              		.loc 1 228 1 is_stmt 0 view .LVU188
 665 0034 0020     		movs	r0, #0
 666 0036 02B0     		add	sp, sp, #8
 667              	.LCFI18:
 668              		.cfi_def_cfa_offset 8
 669              		@ sp needed
 670 0038 10BD     		pop	{r4, pc}
 671              		.loc 1 228 1 view .LVU189
 672              		.cfi_endproc
 673              	.LFE151:
 675              		.section	.text.icm45686_delay_ms,"ax",%progbits
 676              		.align	1
 677              		.global	icm45686_delay_ms
 678              		.syntax unified
 679              		.thumb
 680              		.thumb_func
 682              	icm45686_delay_ms:
 683              	.LVL58:
 684              	.LFB152:
 229:src/drivers/icm45686/icm45686.c **** 
 230:src/drivers/icm45686/icm45686.c **** icm45686_err_t icm45686_delay_ms(uint16_t delay) {
 685              		.loc 1 230 50 is_stmt 1 view -0
 686              		.cfi_startproc
 687              		@ args = 0, pretend = 0, frame = 0
 688              		@ frame_needed = 0, uses_anonymous_args = 0
 689              		.loc 1 230 50 is_stmt 0 view .LVU191
 690 0000 08B5     		push	{r3, lr}
 691              	.LCFI19:
 692              		.cfi_def_cfa_offset 8
 693              		.cfi_offset 3, -8
 694              		.cfi_offset 14, -4
 231:src/drivers/icm45686/icm45686.c ****   // TODO: add error handling
 232:src/drivers/icm45686/icm45686.c ****   HAL_Delay(delay);
 695              		.loc 1 232 3 is_stmt 1 view .LVU192
 696 0002 FFF7FEFF 		bl	HAL_Delay
 697              	.LVL59:
 233:src/drivers/icm45686/icm45686.c **** 
 234:src/drivers/icm45686/icm45686.c ****   return ICM45686_ERR_OK;
 698              		.loc 1 234 3 view .LVU193
 235:src/drivers/icm45686/icm45686.c **** }
 699              		.loc 1 235 1 is_stmt 0 view .LVU194
 700 0006 0020     		movs	r0, #0
 701 0008 08BD     		pop	{r3, pc}
 702              		.cfi_endproc
 703              	.LFE152:
 705              		.section	.text.icm45686_soft_reset,"ax",%progbits
 706              		.align	1
 707              		.global	icm45686_soft_reset
 708              		.syntax unified
ARM GAS  /tmp/ccY5pqER.s 			page 20


 709              		.thumb
 710              		.thumb_func
 712              	icm45686_soft_reset:
 713              	.LVL60:
 714              	.LFB144:
   4:src/drivers/icm45686/icm45686.c ****   icm45686_err_t status;
 715              		.loc 1 4 63 is_stmt 1 view -0
 716              		.cfi_startproc
 717              		@ args = 0, pretend = 0, frame = 0
 718              		@ frame_needed = 0, uses_anonymous_args = 0
   4:src/drivers/icm45686/icm45686.c ****   icm45686_err_t status;
 719              		.loc 1 4 63 is_stmt 0 view .LVU196
 720 0000 08B5     		push	{r3, lr}
 721              	.LCFI20:
 722              		.cfi_def_cfa_offset 8
 723              		.cfi_offset 3, -8
 724              		.cfi_offset 14, -4
   5:src/drivers/icm45686/icm45686.c **** 
 725              		.loc 1 5 3 is_stmt 1 view .LVU197
   8:src/drivers/icm45686/icm45686.c ****   if (status != ICM45686_ERR_OK) {
 726              		.loc 1 8 3 view .LVU198
   8:src/drivers/icm45686/icm45686.c ****   if (status != ICM45686_ERR_OK) {
 727              		.loc 1 8 12 is_stmt 0 view .LVU199
 728 0002 0222     		movs	r2, #2
 729 0004 7F21     		movs	r1, #127
 730 0006 FFF7FEFF 		bl	icm45686_write_byte
 731              	.LVL61:
   9:src/drivers/icm45686/icm45686.c ****     return status;
 732              		.loc 1 9 3 is_stmt 1 view .LVU200
   9:src/drivers/icm45686/icm45686.c ****     return status;
 733              		.loc 1 9 6 is_stmt 0 view .LVU201
 734 000a 00B1     		cbz	r0, .L26
 735              	.LVL62:
 736              	.L24:
  17:src/drivers/icm45686/icm45686.c **** 
 737              		.loc 1 17 1 view .LVU202
 738 000c 08BD     		pop	{r3, pc}
 739              	.LVL63:
 740              	.L26:
  14:src/drivers/icm45686/icm45686.c **** 
 741              		.loc 1 14 3 is_stmt 1 view .LVU203
  14:src/drivers/icm45686/icm45686.c **** 
 742              		.loc 1 14 12 is_stmt 0 view .LVU204
 743 000e 0120     		movs	r0, #1
 744 0010 FFF7FEFF 		bl	icm45686_delay_ms
 745              	.LVL64:
  16:src/drivers/icm45686/icm45686.c **** }
 746              		.loc 1 16 3 is_stmt 1 view .LVU205
  16:src/drivers/icm45686/icm45686.c **** }
 747              		.loc 1 16 10 is_stmt 0 view .LVU206
 748 0014 FAE7     		b	.L24
 749              		.cfi_endproc
 750              	.LFE144:
 752              		.section	.text.icm45686_init,"ax",%progbits
 753              		.align	1
 754              		.global	icm45686_init
 755              		.syntax unified
ARM GAS  /tmp/ccY5pqER.s 			page 21


 756              		.thumb
 757              		.thumb_func
 759              	icm45686_init:
 760              	.LVL65:
 761              	.LFB146:
  29:src/drivers/icm45686/icm45686.c ****   icm45686_err_t status = ICM45686_ERR_OK;
 762              		.loc 1 29 57 is_stmt 1 view -0
 763              		.cfi_startproc
 764              		@ args = 0, pretend = 0, frame = 8
 765              		@ frame_needed = 0, uses_anonymous_args = 0
  29:src/drivers/icm45686/icm45686.c ****   icm45686_err_t status = ICM45686_ERR_OK;
 766              		.loc 1 29 57 is_stmt 0 view .LVU208
 767 0000 10B5     		push	{r4, lr}
 768              	.LCFI21:
 769              		.cfi_def_cfa_offset 8
 770              		.cfi_offset 4, -8
 771              		.cfi_offset 14, -4
 772 0002 82B0     		sub	sp, sp, #8
 773              	.LCFI22:
 774              		.cfi_def_cfa_offset 16
 775 0004 0446     		mov	r4, r0
  30:src/drivers/icm45686/icm45686.c **** 
 776              		.loc 1 30 3 is_stmt 1 view .LVU209
 777              	.LVL66:
  33:src/drivers/icm45686/icm45686.c **** 
 778              		.loc 1 33 3 view .LVU210
  33:src/drivers/icm45686/icm45686.c **** 
 779              		.loc 1 33 12 is_stmt 0 view .LVU211
 780 0006 FFF7FEFF 		bl	icm45686_soft_reset
 781              	.LVL67:
  35:src/drivers/icm45686/icm45686.c ****     return status;
 782              		.loc 1 35 3 is_stmt 1 view .LVU212
  35:src/drivers/icm45686/icm45686.c ****     return status;
 783              		.loc 1 35 6 is_stmt 0 view .LVU213
 784 000a 08B1     		cbz	r0, .L51
 785              	.L28:
 125:src/drivers/icm45686/icm45686.c **** 
 786              		.loc 1 125 1 view .LVU214
 787 000c 02B0     		add	sp, sp, #8
 788              	.LCFI23:
 789              		.cfi_remember_state
 790              		.cfi_def_cfa_offset 8
 791              		@ sp needed
 792 000e 10BD     		pop	{r4, pc}
 793              	.LVL68:
 794              	.L51:
 795              	.LCFI24:
 796              		.cfi_restore_state
  40:src/drivers/icm45686/icm45686.c ****   status = icm45686_read_byte(device, ICM45686_REG_WHO_AM_I, &whoami);
 797              		.loc 1 40 3 is_stmt 1 view .LVU215
  41:src/drivers/icm45686/icm45686.c **** 
 798              		.loc 1 41 3 view .LVU216
  41:src/drivers/icm45686/icm45686.c **** 
 799              		.loc 1 41 12 is_stmt 0 view .LVU217
 800 0010 0DF10702 		add	r2, sp, #7
 801 0014 7221     		movs	r1, #114
 802 0016 2046     		mov	r0, r4
ARM GAS  /tmp/ccY5pqER.s 			page 22


 803 0018 FFF7FEFF 		bl	icm45686_read_byte
 804              	.LVL69:
  43:src/drivers/icm45686/icm45686.c ****     return status;
 805              		.loc 1 43 3 is_stmt 1 view .LVU218
  43:src/drivers/icm45686/icm45686.c ****     return status;
 806              		.loc 1 43 6 is_stmt 0 view .LVU219
 807 001c 0028     		cmp	r0, #0
 808 001e F5D1     		bne	.L28
  47:src/drivers/icm45686/icm45686.c ****     return ICM45686_ERR_VALUE;
 809              		.loc 1 47 3 is_stmt 1 view .LVU220
  47:src/drivers/icm45686/icm45686.c ****     return ICM45686_ERR_VALUE;
 810              		.loc 1 47 14 is_stmt 0 view .LVU221
 811 0020 9DF80730 		ldrb	r3, [sp, #7]	@ zero_extendqisi2
  47:src/drivers/icm45686/icm45686.c ****     return ICM45686_ERR_VALUE;
 812              		.loc 1 47 6 view .LVU222
 813 0024 E92B     		cmp	r3, #233
 814 0026 01D0     		beq	.L52
  48:src/drivers/icm45686/icm45686.c ****   }
 815              		.loc 1 48 12 view .LVU223
 816 0028 0120     		movs	r0, #1
 817              	.LVL70:
  48:src/drivers/icm45686/icm45686.c ****   }
 818              		.loc 1 48 12 view .LVU224
 819 002a EFE7     		b	.L28
 820              	.LVL71:
 821              	.L52:
  52:src/drivers/icm45686/icm45686.c ****   status = icm45686_write_byte(device, ICM45686_REG_PWR_MGMT0, pwr_mgmt0);
 822              		.loc 1 52 3 is_stmt 1 view .LVU225
  52:src/drivers/icm45686/icm45686.c ****   status = icm45686_write_byte(device, ICM45686_REG_PWR_MGMT0, pwr_mgmt0);
 823              		.loc 1 52 29 is_stmt 0 view .LVU226
 824 002c 2278     		ldrb	r2, [r4]	@ zero_extendqisi2
  52:src/drivers/icm45686/icm45686.c ****   status = icm45686_write_byte(device, ICM45686_REG_PWR_MGMT0, pwr_mgmt0);
 825              		.loc 1 52 53 view .LVU227
 826 002e 6378     		ldrb	r3, [r4, #1]	@ zero_extendqisi2
 827              	.LVL72:
  53:src/drivers/icm45686/icm45686.c **** 
 828              		.loc 1 53 3 is_stmt 1 view .LVU228
  53:src/drivers/icm45686/icm45686.c **** 
 829              		.loc 1 53 12 is_stmt 0 view .LVU229
 830 0030 1A43     		orrs	r2, r2, r3
 831              	.LVL73:
  53:src/drivers/icm45686/icm45686.c **** 
 832              		.loc 1 53 12 view .LVU230
 833 0032 1021     		movs	r1, #16
 834 0034 2046     		mov	r0, r4
 835              	.LVL74:
  53:src/drivers/icm45686/icm45686.c **** 
 836              		.loc 1 53 12 view .LVU231
 837 0036 FFF7FEFF 		bl	icm45686_write_byte
 838              	.LVL75:
  55:src/drivers/icm45686/icm45686.c ****     return status;
 839              		.loc 1 55 3 is_stmt 1 view .LVU232
  55:src/drivers/icm45686/icm45686.c ****     return status;
 840              		.loc 1 55 6 is_stmt 0 view .LVU233
 841 003a 0028     		cmp	r0, #0
 842 003c E6D1     		bne	.L28
  60:src/drivers/icm45686/icm45686.c ****   status = icm45686_write_byte(device, ICM45686_REG_GYRO_CONFIG0, gyro_config0);
ARM GAS  /tmp/ccY5pqER.s 			page 23


 843              		.loc 1 60 3 is_stmt 1 view .LVU234
  60:src/drivers/icm45686/icm45686.c ****   status = icm45686_write_byte(device, ICM45686_REG_GYRO_CONFIG0, gyro_config0);
 844              		.loc 1 60 32 is_stmt 0 view .LVU235
 845 003e A278     		ldrb	r2, [r4, #2]	@ zero_extendqisi2
  60:src/drivers/icm45686/icm45686.c ****   status = icm45686_write_byte(device, ICM45686_REG_GYRO_CONFIG0, gyro_config0);
 846              		.loc 1 60 50 view .LVU236
 847 0040 E378     		ldrb	r3, [r4, #3]	@ zero_extendqisi2
 848              	.LVL76:
  61:src/drivers/icm45686/icm45686.c **** 
 849              		.loc 1 61 3 is_stmt 1 view .LVU237
  61:src/drivers/icm45686/icm45686.c **** 
 850              		.loc 1 61 12 is_stmt 0 view .LVU238
 851 0042 1A43     		orrs	r2, r2, r3
 852              	.LVL77:
  61:src/drivers/icm45686/icm45686.c **** 
 853              		.loc 1 61 12 view .LVU239
 854 0044 1C21     		movs	r1, #28
 855 0046 2046     		mov	r0, r4
 856              	.LVL78:
  61:src/drivers/icm45686/icm45686.c **** 
 857              		.loc 1 61 12 view .LVU240
 858 0048 FFF7FEFF 		bl	icm45686_write_byte
 859              	.LVL79:
  63:src/drivers/icm45686/icm45686.c ****     return status;
 860              		.loc 1 63 3 is_stmt 1 view .LVU241
  63:src/drivers/icm45686/icm45686.c ****     return status;
 861              		.loc 1 63 6 is_stmt 0 view .LVU242
 862 004c 0028     		cmp	r0, #0
 863 004e DDD1     		bne	.L28
  67:src/drivers/icm45686/icm45686.c ****         case ICM45686_GYRO_FS_4000DPS:
 864              		.loc 1 67 3 is_stmt 1 view .LVU243
  67:src/drivers/icm45686/icm45686.c ****         case ICM45686_GYRO_FS_4000DPS:
 865              		.loc 1 67 17 is_stmt 0 view .LVU244
 866 0050 A378     		ldrb	r3, [r4, #2]	@ zero_extendqisi2
  67:src/drivers/icm45686/icm45686.c ****         case ICM45686_GYRO_FS_4000DPS:
 867              		.loc 1 67 3 view .LVU245
 868 0052 402B     		cmp	r3, #64
 869 0054 48D0     		beq	.L29
 870 0056 13D8     		bhi	.L30
 871 0058 202B     		cmp	r3, #32
 872 005a 3FD0     		beq	.L31
 873 005c 07D9     		bls	.L53
 874 005e 302B     		cmp	r3, #48
 875 0060 54D1     		bne	.L35
  78:src/drivers/icm45686/icm45686.c ****             break;
 876              		.loc 1 78 13 is_stmt 1 view .LVU246
  78:src/drivers/icm45686/icm45686.c ****             break;
 877              		.loc 1 78 38 is_stmt 0 view .LVU247
 878 0062 49A3     		adr	r3, .L56+56
 879 0064 D3E90023 		ldrd	r2, [r3]
 880 0068 C4E90223 		strd	r2, [r4, #8]
  79:src/drivers/icm45686/icm45686.c ****         case ICM45686_GYRO_FS_250DPS:
 881              		.loc 1 79 13 is_stmt 1 view .LVU248
 882 006c 22E0     		b	.L42
 883              	.L53:
  67:src/drivers/icm45686/icm45686.c ****         case ICM45686_GYRO_FS_4000DPS:
 884              		.loc 1 67 3 is_stmt 0 view .LVU249
ARM GAS  /tmp/ccY5pqER.s 			page 24


 885 006e E3B1     		cbz	r3, .L33
 886 0070 102B     		cmp	r3, #16
 887 0072 4BD1     		bne	.L35
  72:src/drivers/icm45686/icm45686.c ****             break;
 888              		.loc 1 72 13 is_stmt 1 view .LVU250
  72:src/drivers/icm45686/icm45686.c ****             break;
 889              		.loc 1 72 38 is_stmt 0 view .LVU251
 890 0074 46A3     		adr	r3, .L56+64
 891 0076 D3E90023 		ldrd	r2, [r3]
 892 007a C4E90223 		strd	r2, [r4, #8]
  73:src/drivers/icm45686/icm45686.c ****         case ICM45686_GYRO_FS_1000DPS:
 893              		.loc 1 73 13 is_stmt 1 view .LVU252
 894 007e 19E0     		b	.L42
 895              	.L30:
  67:src/drivers/icm45686/icm45686.c ****         case ICM45686_GYRO_FS_4000DPS:
 896              		.loc 1 67 3 is_stmt 0 view .LVU253
 897 0080 702B     		cmp	r3, #112
 898 0082 3DD0     		beq	.L37
 899 0084 07D9     		bls	.L54
 900 0086 802B     		cmp	r3, #128
 901 0088 40D1     		bne	.L35
  93:src/drivers/icm45686/icm45686.c ****             break;
 902              		.loc 1 93 13 is_stmt 1 view .LVU254
  93:src/drivers/icm45686/icm45686.c ****             break;
 903              		.loc 1 93 38 is_stmt 0 view .LVU255
 904 008a 43A3     		adr	r3, .L56+72
 905 008c D3E90023 		ldrd	r2, [r3]
 906 0090 C4E90223 		strd	r2, [r4, #8]
  94:src/drivers/icm45686/icm45686.c ****         default:
 907              		.loc 1 94 13 is_stmt 1 view .LVU256
 908 0094 0EE0     		b	.L42
 909              	.L54:
  67:src/drivers/icm45686/icm45686.c ****         case ICM45686_GYRO_FS_4000DPS:
 910              		.loc 1 67 3 is_stmt 0 view .LVU257
 911 0096 502B     		cmp	r3, #80
 912 0098 2CD0     		beq	.L39
 913 009a 602B     		cmp	r3, #96
 914 009c 36D1     		bne	.L35
  87:src/drivers/icm45686/icm45686.c ****             break;
 915              		.loc 1 87 13 is_stmt 1 view .LVU258
  87:src/drivers/icm45686/icm45686.c ****             break;
 916              		.loc 1 87 38 is_stmt 0 view .LVU259
 917 009e 40A3     		adr	r3, .L56+80
 918 00a0 D3E90023 		ldrd	r2, [r3]
 919 00a4 C4E90223 		strd	r2, [r4, #8]
  88:src/drivers/icm45686/icm45686.c ****         case ICM45686_GYRO_FS_31_25DPS:
 920              		.loc 1 88 13 is_stmt 1 view .LVU260
 921 00a8 04E0     		b	.L42
 922              	.L33:
  69:src/drivers/icm45686/icm45686.c ****             break;
 923              		.loc 1 69 13 view .LVU261
  69:src/drivers/icm45686/icm45686.c ****             break;
 924              		.loc 1 69 38 is_stmt 0 view .LVU262
 925 00aa 3FA3     		adr	r3, .L56+88
 926 00ac D3E90023 		ldrd	r2, [r3]
 927 00b0 C4E90223 		strd	r2, [r4, #8]
  70:src/drivers/icm45686/icm45686.c ****         case ICM45686_GYRO_FS_2000DPS:
ARM GAS  /tmp/ccY5pqER.s 			page 25


 928              		.loc 1 70 13 is_stmt 1 view .LVU263
 929              	.L42:
 101:src/drivers/icm45686/icm45686.c ****   status = icm45686_write_byte(device, ICM45686_REG_ACCEL_CONFIG0, accel_config0);
 930              		.loc 1 101 3 view .LVU264
 101:src/drivers/icm45686/icm45686.c ****   status = icm45686_write_byte(device, ICM45686_REG_ACCEL_CONFIG0, accel_config0);
 931              		.loc 1 101 33 is_stmt 0 view .LVU265
 932 00b4 227C     		ldrb	r2, [r4, #16]	@ zero_extendqisi2
 101:src/drivers/icm45686/icm45686.c ****   status = icm45686_write_byte(device, ICM45686_REG_ACCEL_CONFIG0, accel_config0);
 933              		.loc 1 101 52 view .LVU266
 934 00b6 637C     		ldrb	r3, [r4, #17]	@ zero_extendqisi2
 935              	.LVL80:
 102:src/drivers/icm45686/icm45686.c ****   switch (device->accel_fs) {
 936              		.loc 1 102 3 is_stmt 1 view .LVU267
 102:src/drivers/icm45686/icm45686.c ****   switch (device->accel_fs) {
 937              		.loc 1 102 12 is_stmt 0 view .LVU268
 938 00b8 1A43     		orrs	r2, r2, r3
 939              	.LVL81:
 102:src/drivers/icm45686/icm45686.c ****   switch (device->accel_fs) {
 940              		.loc 1 102 12 view .LVU269
 941 00ba 1B21     		movs	r1, #27
 942 00bc 2046     		mov	r0, r4
 943              	.LVL82:
 102:src/drivers/icm45686/icm45686.c ****   switch (device->accel_fs) {
 944              		.loc 1 102 12 view .LVU270
 945 00be FFF7FEFF 		bl	icm45686_write_byte
 946              	.LVL83:
 103:src/drivers/icm45686/icm45686.c ****       case ICM45686_ACCEL_FS_2G:
 947              		.loc 1 103 3 is_stmt 1 view .LVU271
 103:src/drivers/icm45686/icm45686.c ****       case ICM45686_ACCEL_FS_2G:
 948              		.loc 1 103 17 is_stmt 0 view .LVU272
 949 00c2 237C     		ldrb	r3, [r4, #16]	@ zero_extendqisi2
 103:src/drivers/icm45686/icm45686.c ****       case ICM45686_ACCEL_FS_2G:
 950              		.loc 1 103 3 view .LVU273
 951 00c4 202B     		cmp	r3, #32
 952 00c6 33D0     		beq	.L43
 953 00c8 25D9     		bls	.L55
 954 00ca 302B     		cmp	r3, #48
 955 00cc 2BD0     		beq	.L48
 956 00ce 402B     		cmp	r3, #64
 957 00d0 38D1     		bne	.L47
 105:src/drivers/icm45686/icm45686.c ****           break;
 958              		.loc 1 105 11 is_stmt 1 view .LVU274
 105:src/drivers/icm45686/icm45686.c ****           break;
 959              		.loc 1 105 37 is_stmt 0 view .LVU275
 960 00d2 0022     		movs	r2, #0
 961 00d4 264B     		ldr	r3, .L56+32
 962 00d6 C4E90623 		strd	r2, [r4, #24]
 106:src/drivers/icm45686/icm45686.c ****       case ICM45686_ACCEL_FS_4G:
 963              		.loc 1 106 11 is_stmt 1 view .LVU276
 964 00da 97E7     		b	.L28
 965              	.LVL84:
 966              	.L31:
  75:src/drivers/icm45686/icm45686.c ****             break;
 967              		.loc 1 75 13 view .LVU277
  75:src/drivers/icm45686/icm45686.c ****             break;
 968              		.loc 1 75 38 is_stmt 0 view .LVU278
 969 00dc 1CA3     		adr	r3, .L56
ARM GAS  /tmp/ccY5pqER.s 			page 26


 970 00de D3E90023 		ldrd	r2, [r3]
 971 00e2 C4E90223 		strd	r2, [r4, #8]
  76:src/drivers/icm45686/icm45686.c ****         case ICM45686_GYRO_FS_500DPS:
 972              		.loc 1 76 13 is_stmt 1 view .LVU279
 973 00e6 E5E7     		b	.L42
 974              	.L29:
  81:src/drivers/icm45686/icm45686.c ****             break;
 975              		.loc 1 81 13 view .LVU280
  81:src/drivers/icm45686/icm45686.c ****             break;
 976              		.loc 1 81 38 is_stmt 0 view .LVU281
 977 00e8 1BA3     		adr	r3, .L56+8
 978 00ea D3E90023 		ldrd	r2, [r3]
 979 00ee C4E90223 		strd	r2, [r4, #8]
  82:src/drivers/icm45686/icm45686.c ****         case ICM45686_GYRO_FS_125:
 980              		.loc 1 82 13 is_stmt 1 view .LVU282
 981 00f2 DFE7     		b	.L42
 982              	.L39:
  84:src/drivers/icm45686/icm45686.c ****             break;
 983              		.loc 1 84 13 view .LVU283
  84:src/drivers/icm45686/icm45686.c ****             break;
 984              		.loc 1 84 38 is_stmt 0 view .LVU284
 985 00f4 1AA3     		adr	r3, .L56+16
 986 00f6 D3E90023 		ldrd	r2, [r3]
 987 00fa C4E90223 		strd	r2, [r4, #8]
  85:src/drivers/icm45686/icm45686.c ****         case ICM45686_GYRO_FS_62_5DPS:
 988              		.loc 1 85 13 is_stmt 1 view .LVU285
 989 00fe D9E7     		b	.L42
 990              	.L37:
  90:src/drivers/icm45686/icm45686.c ****             break;
 991              		.loc 1 90 13 view .LVU286
  90:src/drivers/icm45686/icm45686.c ****             break;
 992              		.loc 1 90 38 is_stmt 0 view .LVU287
 993 0100 19A3     		adr	r3, .L56+24
 994 0102 D3E90023 		ldrd	r2, [r3]
 995 0106 C4E90223 		strd	r2, [r4, #8]
  91:src/drivers/icm45686/icm45686.c ****         case ICM45686_GYRO_FS_15_625DPS:
 996              		.loc 1 91 13 is_stmt 1 view .LVU288
 997 010a D3E7     		b	.L42
 998              	.L35:
  96:src/drivers/icm45686/icm45686.c ****             break;
 999              		.loc 1 96 13 view .LVU289
  96:src/drivers/icm45686/icm45686.c ****             break;
 1000              		.loc 1 96 38 is_stmt 0 view .LVU290
 1001 010c 0022     		movs	r2, #0
 1002 010e 194B     		ldr	r3, .L56+36
 1003 0110 C4E90223 		strd	r2, [r4, #8]
  97:src/drivers/icm45686/icm45686.c ****     }
 1004              		.loc 1 97 13 is_stmt 1 view .LVU291
 1005 0114 CEE7     		b	.L42
 1006              	.LVL85:
 1007              	.L55:
 103:src/drivers/icm45686/icm45686.c ****       case ICM45686_ACCEL_FS_2G:
 1008              		.loc 1 103 3 is_stmt 0 view .LVU292
 1009 0116 83B1     		cbz	r3, .L45
 1010 0118 102B     		cmp	r3, #16
 1011 011a 13D1     		bne	.L47
 114:src/drivers/icm45686/icm45686.c ****           break;
ARM GAS  /tmp/ccY5pqER.s 			page 27


 1012              		.loc 1 114 11 is_stmt 1 view .LVU293
 114:src/drivers/icm45686/icm45686.c ****           break;
 1013              		.loc 1 114 37 is_stmt 0 view .LVU294
 1014 011c 0022     		movs	r2, #0
 1015 011e 164B     		ldr	r3, .L56+40
 1016 0120 C4E90623 		strd	r2, [r4, #24]
 115:src/drivers/icm45686/icm45686.c ****       case ICM45686_ACCEL_FS_32G:
 1017              		.loc 1 115 11 is_stmt 1 view .LVU295
 1018 0124 72E7     		b	.L28
 1019              	.L48:
 108:src/drivers/icm45686/icm45686.c ****           break;
 1020              		.loc 1 108 11 view .LVU296
 108:src/drivers/icm45686/icm45686.c ****           break;
 1021              		.loc 1 108 37 is_stmt 0 view .LVU297
 1022 0126 0022     		movs	r2, #0
 1023 0128 144B     		ldr	r3, .L56+44
 1024 012a C4E90623 		strd	r2, [r4, #24]
 109:src/drivers/icm45686/icm45686.c ****       case ICM45686_ACCEL_FS_8G:
 1025              		.loc 1 109 11 is_stmt 1 view .LVU298
 1026 012e 6DE7     		b	.L28
 1027              	.L43:
 111:src/drivers/icm45686/icm45686.c ****           break;
 1028              		.loc 1 111 11 view .LVU299
 111:src/drivers/icm45686/icm45686.c ****           break;
 1029              		.loc 1 111 37 is_stmt 0 view .LVU300
 1030 0130 0022     		movs	r2, #0
 1031 0132 134B     		ldr	r3, .L56+48
 1032 0134 C4E90623 		strd	r2, [r4, #24]
 112:src/drivers/icm45686/icm45686.c ****       case ICM45686_ACCEL_FS_16G:
 1033              		.loc 1 112 11 is_stmt 1 view .LVU301
 1034 0138 68E7     		b	.L28
 1035              	.L45:
 117:src/drivers/icm45686/icm45686.c ****           break;
 1036              		.loc 1 117 11 view .LVU302
 117:src/drivers/icm45686/icm45686.c ****           break;
 1037              		.loc 1 117 37 is_stmt 0 view .LVU303
 1038 013a 0022     		movs	r2, #0
 1039 013c 114B     		ldr	r3, .L56+52
 1040 013e C4E90623 		strd	r2, [r4, #24]
 118:src/drivers/icm45686/icm45686.c ****       default:
 1041              		.loc 1 118 11 is_stmt 1 view .LVU304
 1042 0142 63E7     		b	.L28
 1043              	.L47:
 120:src/drivers/icm45686/icm45686.c ****           break;
 1044              		.loc 1 120 11 view .LVU305
 120:src/drivers/icm45686/icm45686.c ****           break;
 1045              		.loc 1 120 37 is_stmt 0 view .LVU306
 1046 0144 0022     		movs	r2, #0
 1047 0146 0B4B     		ldr	r3, .L56+36
 1048 0148 C4E90623 		strd	r2, [r4, #24]
 121:src/drivers/icm45686/icm45686.c ****     }
 1049              		.loc 1 121 11 is_stmt 1 view .LVU307
 1050 014c 5EE7     		b	.L28
 1051              	.L57:
 1052 014e 00BF     		.align	3
 1053              	.L56:
 1054 0150 66666666 		.word	1717986918
ARM GAS  /tmp/ccY5pqER.s 			page 28


 1055 0154 66664040 		.word	1077962342
 1056 0158 00000000 		.word	0
 1057 015c 00606040 		.word	1080057856
 1058 0160 00000000 		.word	0
 1059 0164 00607040 		.word	1081106432
 1060 0168 66666666 		.word	1717986918
 1061 016c 66629040 		.word	1083204198
 1062 0170 0000D040 		.word	1087373312
 1063 0174 0000F03F 		.word	1072693248
 1064 0178 0000A040 		.word	1084227584
 1065 017c 0000C040 		.word	1086324736
 1066 0180 0000B040 		.word	1085276160
 1067 0184 00009040 		.word	1083179008
 1068 0188 00000000 		.word	0
 1069 018c 00605040 		.word	1079009280
 1070 0190 66666666 		.word	1717986918
 1071 0194 66663040 		.word	1076913766
 1072 0198 66666666 		.word	1717986918
 1073 019c 6662A040 		.word	1084252774
 1074 01a0 66666666 		.word	1717986918
 1075 01a4 66628040 		.word	1082155622
 1076 01a8 66666666 		.word	1717986918
 1077 01ac 66662040 		.word	1075865190
 1078              		.cfi_endproc
 1079              	.LFE146:
 1081              		.text
 1082              	.Letext0:
 1083              		.file 2 "/usr/lib/gcc/arm-none-eabi/12.2.1/include/stdint.h"
 1084              		.file 3 "src/drivers/icm45686/icm45686.h"
 1085              		.file 4 "external/drivers/cmsis/include/stm32h723xx.h"
 1086              		.file 5 "external/drivers/stm32h7xx/include/stm32h7xx_hal_def.h"
 1087              		.file 6 "external/drivers/stm32h7xx/include/stm32h7xx_hal_gpio.h"
 1088              		.file 7 "external/drivers/stm32h7xx/include/stm32h7xx_hal_dma.h"
 1089              		.file 8 "external/drivers/stm32h7xx/include/stm32h7xx_hal_spi.h"
 1090              		.file 9 "external/drivers/stm32h7xx/include/stm32h7xx_hal.h"
ARM GAS  /tmp/ccY5pqER.s 			page 29

