ARM GAS  /tmp/ccN0K4x4.s 			page 1


   1              		.cpu cortex-m7
   2              		.arch armv7e-m
   3              		.fpu fpv5-d16
   4              		.eabi_attribute 28, 1
   5              		.eabi_attribute 20, 1
   6              		.eabi_attribute 21, 1
   7              		.eabi_attribute 23, 3
   8              		.eabi_attribute 24, 1
   9              		.eabi_attribute 25, 1
  10              		.eabi_attribute 26, 1
  11              		.eabi_attribute 30, 1
  12              		.eabi_attribute 34, 1
  13              		.eabi_attribute 18, 4
  14              		.file	"init.c"
  15              		.text
  16              	.Ltext0:
  17              		.cfi_sections	.debug_frame
  18              		.file 1 "src/system/init.c"
  19              		.section	.text.Error_Handler,"ax",%progbits
  20              		.align	1
  21              		.global	Error_Handler
  22              		.syntax unified
  23              		.thumb
  24              		.thumb_func
  26              	Error_Handler:
  27              	.LFB146:
   1:src/system/init.c **** /* USER CODE BEGIN Header */
   2:src/system/init.c **** /**
   3:src/system/init.c ****   ******************************************************************************
   4:src/system/init.c ****   * @file           : main.c
   5:src/system/init.c ****   * @brief          : Main program body
   6:src/system/init.c ****   ******************************************************************************
   7:src/system/init.c ****   * @attention
   8:src/system/init.c ****   *
   9:src/system/init.c ****   * Copyright (c) 2025 STMicroelectronics.
  10:src/system/init.c ****   * All rights reserved.
  11:src/system/init.c ****   *
  12:src/system/init.c ****   * This software is licensed under terms that can be found in the LICENSE file
  13:src/system/init.c ****   * in the root directory of this software component.
  14:src/system/init.c ****   * If no LICENSE file comes with this software, it is provided AS-IS.
  15:src/system/init.c ****   *
  16:src/system/init.c ****   ******************************************************************************
  17:src/system/init.c ****   */
  18:src/system/init.c **** /* USER CODE END Header */
  19:src/system/init.c **** /* Includes ------------------------------------------------------------------*/
  20:src/system/init.c **** #include "init.h"
  21:src/system/init.c **** #include "i2c.h"
  22:src/system/init.c **** #include "spi.h"
  23:src/system/init.c **** #include "tim.h"
  24:src/system/init.c **** #include "usart.h"
  25:src/system/init.c **** #include "usb_otg.h"
  26:src/system/init.c **** #include "gpio.h"
  27:src/system/init.c **** 
  28:src/system/init.c **** /* Private includes ----------------------------------------------------------*/
  29:src/system/init.c **** /* USER CODE BEGIN Includes */
  30:src/system/init.c **** 
  31:src/system/init.c **** /* USER CODE END Includes */
ARM GAS  /tmp/ccN0K4x4.s 			page 2


  32:src/system/init.c **** 
  33:src/system/init.c **** /* Private typedef -----------------------------------------------------------*/
  34:src/system/init.c **** /* USER CODE BEGIN PTD */
  35:src/system/init.c **** 
  36:src/system/init.c **** /* USER CODE END PTD */
  37:src/system/init.c **** 
  38:src/system/init.c **** /* Private define ------------------------------------------------------------*/
  39:src/system/init.c **** /* USER CODE BEGIN PD */
  40:src/system/init.c **** 
  41:src/system/init.c **** /* USER CODE END PD */
  42:src/system/init.c **** 
  43:src/system/init.c **** /* Private macro -------------------------------------------------------------*/
  44:src/system/init.c **** /* USER CODE BEGIN PM */
  45:src/system/init.c **** 
  46:src/system/init.c **** /* USER CODE END PM */
  47:src/system/init.c **** 
  48:src/system/init.c **** /* Private variables ---------------------------------------------------------*/
  49:src/system/init.c **** 
  50:src/system/init.c **** /* USER CODE BEGIN PV */
  51:src/system/init.c **** 
  52:src/system/init.c **** /* USER CODE END PV */
  53:src/system/init.c **** 
  54:src/system/init.c **** /* Private function prototypes -----------------------------------------------*/
  55:src/system/init.c **** void SystemClock_Config(void);
  56:src/system/init.c **** /* USER CODE BEGIN PFP */
  57:src/system/init.c **** 
  58:src/system/init.c **** /* USER CODE END PFP */
  59:src/system/init.c **** 
  60:src/system/init.c **** /* Private user code ---------------------------------------------------------*/
  61:src/system/init.c **** /* USER CODE BEGIN 0 */
  62:src/system/init.c **** 
  63:src/system/init.c **** /* USER CODE END 0 */
  64:src/system/init.c **** 
  65:src/system/init.c **** /**
  66:src/system/init.c ****   * @brief  The application entry point.
  67:src/system/init.c ****   * @retval int
  68:src/system/init.c ****   */
  69:src/system/init.c **** int init(void)
  70:src/system/init.c **** {
  71:src/system/init.c ****   /* USER CODE BEGIN 1 */
  72:src/system/init.c **** 
  73:src/system/init.c ****   /* USER CODE END 1 */
  74:src/system/init.c **** 
  75:src/system/init.c ****   /* MCU Configuration--------------------------------------------------------*/
  76:src/system/init.c **** 
  77:src/system/init.c ****   /* Reset of all peripherals, Initializes the Flash interface and the Systick. */
  78:src/system/init.c ****   HAL_Init();
  79:src/system/init.c **** 
  80:src/system/init.c ****   /* USER CODE BEGIN Init */
  81:src/system/init.c **** 
  82:src/system/init.c ****   /* USER CODE END Init */
  83:src/system/init.c **** 
  84:src/system/init.c ****   /* Configure the system clock */
  85:src/system/init.c ****   SystemClock_Config();
  86:src/system/init.c **** 
  87:src/system/init.c ****   /* USER CODE BEGIN SysInit */
  88:src/system/init.c **** 
ARM GAS  /tmp/ccN0K4x4.s 			page 3


  89:src/system/init.c ****   /* USER CODE END SysInit */
  90:src/system/init.c **** 
  91:src/system/init.c ****   /* Initialize all configured peripherals */
  92:src/system/init.c ****   MX_GPIO_Init();
  93:src/system/init.c ****   MX_USART3_UART_Init();
  94:src/system/init.c ****   MX_USB_OTG_HS_USB_Init();
  95:src/system/init.c ****   MX_I2C1_Init();
  96:src/system/init.c ****   MX_SPI1_Init();
  97:src/system/init.c ****   MX_TIM2_Init();
  98:src/system/init.c ****   MX_TIM5_Init();
  99:src/system/init.c ****   /* USER CODE BEGIN 2 */
 100:src/system/init.c **** 
 101:src/system/init.c ****   /* USER CODE END 2 */
 102:src/system/init.c **** 
 103:src/system/init.c ****   /* Infinite loop */
 104:src/system/init.c ****   /* USER CODE BEGIN WHILE */
 105:src/system/init.c ****   return 0;
 106:src/system/init.c ****   {
 107:src/system/init.c ****     /* USER CODE END WHILE */
 108:src/system/init.c **** 
 109:src/system/init.c ****     /* USER CODE BEGIN 3 */
 110:src/system/init.c ****   }
 111:src/system/init.c ****   /* USER CODE END 3 */
 112:src/system/init.c **** }
 113:src/system/init.c **** 
 114:src/system/init.c **** /**
 115:src/system/init.c ****   * @brief System Clock Configuration
 116:src/system/init.c ****   * @retval None
 117:src/system/init.c ****   */
 118:src/system/init.c **** void SystemClock_Config(void)
 119:src/system/init.c **** {
 120:src/system/init.c ****   RCC_OscInitTypeDef RCC_OscInitStruct = {0};
 121:src/system/init.c ****   RCC_ClkInitTypeDef RCC_ClkInitStruct = {0};
 122:src/system/init.c **** 
 123:src/system/init.c ****   /** Supply configuration update enable
 124:src/system/init.c ****   */
 125:src/system/init.c ****   HAL_PWREx_ConfigSupply(PWR_LDO_SUPPLY);
 126:src/system/init.c **** 
 127:src/system/init.c ****   /** Configure the main internal regulator output voltage
 128:src/system/init.c ****   */
 129:src/system/init.c ****   __HAL_PWR_VOLTAGESCALING_CONFIG(PWR_REGULATOR_VOLTAGE_SCALE0);
 130:src/system/init.c **** 
 131:src/system/init.c ****   while(!__HAL_PWR_GET_FLAG(PWR_FLAG_VOSRDY)) {}
 132:src/system/init.c **** 
 133:src/system/init.c ****   /** Initializes the RCC Oscillators according to the specified parameters
 134:src/system/init.c ****   * in the RCC_OscInitTypeDef structure.
 135:src/system/init.c ****   */
 136:src/system/init.c ****   RCC_OscInitStruct.OscillatorType = RCC_OSCILLATORTYPE_HSI48|RCC_OSCILLATORTYPE_HSI;
 137:src/system/init.c ****   RCC_OscInitStruct.HSIState = RCC_HSI_DIV1;
 138:src/system/init.c ****   RCC_OscInitStruct.HSICalibrationValue = 64;
 139:src/system/init.c ****   RCC_OscInitStruct.HSI48State = RCC_HSI48_ON;
 140:src/system/init.c ****   RCC_OscInitStruct.PLL.PLLState = RCC_PLL_ON;
 141:src/system/init.c ****   RCC_OscInitStruct.PLL.PLLSource = RCC_PLLSOURCE_HSI;
 142:src/system/init.c ****   RCC_OscInitStruct.PLL.PLLM = 4;
 143:src/system/init.c ****   RCC_OscInitStruct.PLL.PLLN = 34;
 144:src/system/init.c ****   RCC_OscInitStruct.PLL.PLLP = 1;
 145:src/system/init.c ****   RCC_OscInitStruct.PLL.PLLQ = 3;
ARM GAS  /tmp/ccN0K4x4.s 			page 4


 146:src/system/init.c ****   RCC_OscInitStruct.PLL.PLLR = 2;
 147:src/system/init.c ****   RCC_OscInitStruct.PLL.PLLRGE = RCC_PLL1VCIRANGE_3;
 148:src/system/init.c ****   RCC_OscInitStruct.PLL.PLLVCOSEL = RCC_PLL1VCOWIDE;
 149:src/system/init.c ****   RCC_OscInitStruct.PLL.PLLFRACN = 3072;
 150:src/system/init.c ****   if (HAL_RCC_OscConfig(&RCC_OscInitStruct) != HAL_OK)
 151:src/system/init.c ****   {
 152:src/system/init.c ****     Error_Handler();
 153:src/system/init.c ****   }
 154:src/system/init.c **** 
 155:src/system/init.c ****   /** Initializes the CPU, AHB and APB buses clocks
 156:src/system/init.c ****   */
 157:src/system/init.c ****   RCC_ClkInitStruct.ClockType = RCC_CLOCKTYPE_HCLK|RCC_CLOCKTYPE_SYSCLK
 158:src/system/init.c ****                               |RCC_CLOCKTYPE_PCLK1|RCC_CLOCKTYPE_PCLK2
 159:src/system/init.c ****                               |RCC_CLOCKTYPE_D3PCLK1|RCC_CLOCKTYPE_D1PCLK1;
 160:src/system/init.c ****   RCC_ClkInitStruct.SYSCLKSource = RCC_SYSCLKSOURCE_PLLCLK;
 161:src/system/init.c ****   RCC_ClkInitStruct.SYSCLKDivider = RCC_SYSCLK_DIV1;
 162:src/system/init.c ****   RCC_ClkInitStruct.AHBCLKDivider = RCC_HCLK_DIV2;
 163:src/system/init.c ****   RCC_ClkInitStruct.APB3CLKDivider = RCC_APB3_DIV2;
 164:src/system/init.c ****   RCC_ClkInitStruct.APB1CLKDivider = RCC_APB1_DIV2;
 165:src/system/init.c ****   RCC_ClkInitStruct.APB2CLKDivider = RCC_APB2_DIV2;
 166:src/system/init.c ****   RCC_ClkInitStruct.APB4CLKDivider = RCC_APB4_DIV2;
 167:src/system/init.c **** 
 168:src/system/init.c ****   if (HAL_RCC_ClockConfig(&RCC_ClkInitStruct, FLASH_LATENCY_3) != HAL_OK)
 169:src/system/init.c ****   {
 170:src/system/init.c ****     Error_Handler();
 171:src/system/init.c ****   }
 172:src/system/init.c **** }
 173:src/system/init.c **** 
 174:src/system/init.c **** /* USER CODE BEGIN 4 */
 175:src/system/init.c **** 
 176:src/system/init.c **** /* USER CODE END 4 */
 177:src/system/init.c **** 
 178:src/system/init.c **** /**
 179:src/system/init.c ****   * @brief  This function is executed in case of error occurrence.
 180:src/system/init.c ****   * @retval None
 181:src/system/init.c ****   */
 182:src/system/init.c **** void Error_Handler(void)
 183:src/system/init.c **** {
  28              		.loc 1 183 1 view -0
  29              		.cfi_startproc
  30              		@ Volatile: function does not return.
  31              		@ args = 0, pretend = 0, frame = 0
  32              		@ frame_needed = 0, uses_anonymous_args = 0
  33              		@ link register save eliminated.
 184:src/system/init.c ****   /* USER CODE BEGIN Error_Handler_Debug */
 185:src/system/init.c ****   /* User can add his own implementation to report the HAL error return state */
 186:src/system/init.c ****   __disable_irq();
  34              		.loc 1 186 3 view .LVU1
  35              	.LBB4:
  36              	.LBI4:
  37              		.file 2 "external/drivers/cmsis/include/cmsis_gcc.h"
   1:external/drivers/cmsis/include/cmsis_gcc.h **** /**************************************************************************//**
   2:external/drivers/cmsis/include/cmsis_gcc.h ****  * @file     cmsis_gcc.h
   3:external/drivers/cmsis/include/cmsis_gcc.h ****  * @brief    CMSIS compiler GCC header file
   4:external/drivers/cmsis/include/cmsis_gcc.h ****  * @version  V5.2.0
   5:external/drivers/cmsis/include/cmsis_gcc.h ****  * @date     08. May 2019
   6:external/drivers/cmsis/include/cmsis_gcc.h ****  ******************************************************************************/
ARM GAS  /tmp/ccN0K4x4.s 			page 5


   7:external/drivers/cmsis/include/cmsis_gcc.h **** /*
   8:external/drivers/cmsis/include/cmsis_gcc.h ****  * Copyright (c) 2009-2019 Arm Limited. All rights reserved.
   9:external/drivers/cmsis/include/cmsis_gcc.h ****  *
  10:external/drivers/cmsis/include/cmsis_gcc.h ****  * SPDX-License-Identifier: Apache-2.0
  11:external/drivers/cmsis/include/cmsis_gcc.h ****  *
  12:external/drivers/cmsis/include/cmsis_gcc.h ****  * Licensed under the Apache License, Version 2.0 (the License); you may
  13:external/drivers/cmsis/include/cmsis_gcc.h ****  * not use this file except in compliance with the License.
  14:external/drivers/cmsis/include/cmsis_gcc.h ****  * You may obtain a copy of the License at
  15:external/drivers/cmsis/include/cmsis_gcc.h ****  *
  16:external/drivers/cmsis/include/cmsis_gcc.h ****  * www.apache.org/licenses/LICENSE-2.0
  17:external/drivers/cmsis/include/cmsis_gcc.h ****  *
  18:external/drivers/cmsis/include/cmsis_gcc.h ****  * Unless required by applicable law or agreed to in writing, software
  19:external/drivers/cmsis/include/cmsis_gcc.h ****  * distributed under the License is distributed on an AS IS BASIS, WITHOUT
  20:external/drivers/cmsis/include/cmsis_gcc.h ****  * WARRANTIES OR CONDITIONS OF ANY KIND, either express or implied.
  21:external/drivers/cmsis/include/cmsis_gcc.h ****  * See the License for the specific language governing permissions and
  22:external/drivers/cmsis/include/cmsis_gcc.h ****  * limitations under the License.
  23:external/drivers/cmsis/include/cmsis_gcc.h ****  */
  24:external/drivers/cmsis/include/cmsis_gcc.h **** 
  25:external/drivers/cmsis/include/cmsis_gcc.h **** #ifndef __CMSIS_GCC_H
  26:external/drivers/cmsis/include/cmsis_gcc.h **** #define __CMSIS_GCC_H
  27:external/drivers/cmsis/include/cmsis_gcc.h **** 
  28:external/drivers/cmsis/include/cmsis_gcc.h **** /* ignore some GCC warnings */
  29:external/drivers/cmsis/include/cmsis_gcc.h **** #pragma GCC diagnostic push
  30:external/drivers/cmsis/include/cmsis_gcc.h **** #pragma GCC diagnostic ignored "-Wsign-conversion"
  31:external/drivers/cmsis/include/cmsis_gcc.h **** #pragma GCC diagnostic ignored "-Wconversion"
  32:external/drivers/cmsis/include/cmsis_gcc.h **** #pragma GCC diagnostic ignored "-Wunused-parameter"
  33:external/drivers/cmsis/include/cmsis_gcc.h **** 
  34:external/drivers/cmsis/include/cmsis_gcc.h **** /* Fallback for __has_builtin */
  35:external/drivers/cmsis/include/cmsis_gcc.h **** #ifndef __has_builtin
  36:external/drivers/cmsis/include/cmsis_gcc.h ****   #define __has_builtin(x) (0)
  37:external/drivers/cmsis/include/cmsis_gcc.h **** #endif
  38:external/drivers/cmsis/include/cmsis_gcc.h **** 
  39:external/drivers/cmsis/include/cmsis_gcc.h **** /* CMSIS compiler specific defines */
  40:external/drivers/cmsis/include/cmsis_gcc.h **** #ifndef   __ASM
  41:external/drivers/cmsis/include/cmsis_gcc.h ****   #define __ASM                                  __asm
  42:external/drivers/cmsis/include/cmsis_gcc.h **** #endif
  43:external/drivers/cmsis/include/cmsis_gcc.h **** #ifndef   __INLINE
  44:external/drivers/cmsis/include/cmsis_gcc.h ****   #define __INLINE                               inline
  45:external/drivers/cmsis/include/cmsis_gcc.h **** #endif
  46:external/drivers/cmsis/include/cmsis_gcc.h **** #ifndef   __STATIC_INLINE
  47:external/drivers/cmsis/include/cmsis_gcc.h ****   #define __STATIC_INLINE                        static inline
  48:external/drivers/cmsis/include/cmsis_gcc.h **** #endif
  49:external/drivers/cmsis/include/cmsis_gcc.h **** #ifndef   __STATIC_FORCEINLINE                 
  50:external/drivers/cmsis/include/cmsis_gcc.h ****   #define __STATIC_FORCEINLINE                   __attribute__((always_inline)) static inline
  51:external/drivers/cmsis/include/cmsis_gcc.h **** #endif                                           
  52:external/drivers/cmsis/include/cmsis_gcc.h **** #ifndef   __NO_RETURN
  53:external/drivers/cmsis/include/cmsis_gcc.h ****   #define __NO_RETURN                            __attribute__((__noreturn__))
  54:external/drivers/cmsis/include/cmsis_gcc.h **** #endif
  55:external/drivers/cmsis/include/cmsis_gcc.h **** #ifndef   __USED
  56:external/drivers/cmsis/include/cmsis_gcc.h ****   #define __USED                                 __attribute__((used))
  57:external/drivers/cmsis/include/cmsis_gcc.h **** #endif
  58:external/drivers/cmsis/include/cmsis_gcc.h **** #ifndef   __WEAK
  59:external/drivers/cmsis/include/cmsis_gcc.h ****   #define __WEAK                                 __attribute__((weak))
  60:external/drivers/cmsis/include/cmsis_gcc.h **** #endif
  61:external/drivers/cmsis/include/cmsis_gcc.h **** #ifndef   __PACKED
  62:external/drivers/cmsis/include/cmsis_gcc.h ****   #define __PACKED                               __attribute__((packed, aligned(1)))
  63:external/drivers/cmsis/include/cmsis_gcc.h **** #endif
ARM GAS  /tmp/ccN0K4x4.s 			page 6


  64:external/drivers/cmsis/include/cmsis_gcc.h **** #ifndef   __PACKED_STRUCT
  65:external/drivers/cmsis/include/cmsis_gcc.h ****   #define __PACKED_STRUCT                        struct __attribute__((packed, aligned(1)))
  66:external/drivers/cmsis/include/cmsis_gcc.h **** #endif
  67:external/drivers/cmsis/include/cmsis_gcc.h **** #ifndef   __PACKED_UNION
  68:external/drivers/cmsis/include/cmsis_gcc.h ****   #define __PACKED_UNION                         union __attribute__((packed, aligned(1)))
  69:external/drivers/cmsis/include/cmsis_gcc.h **** #endif
  70:external/drivers/cmsis/include/cmsis_gcc.h **** #ifndef   __UNALIGNED_UINT32        /* deprecated */
  71:external/drivers/cmsis/include/cmsis_gcc.h ****   #pragma GCC diagnostic push
  72:external/drivers/cmsis/include/cmsis_gcc.h ****   #pragma GCC diagnostic ignored "-Wpacked"
  73:external/drivers/cmsis/include/cmsis_gcc.h ****   #pragma GCC diagnostic ignored "-Wattributes"
  74:external/drivers/cmsis/include/cmsis_gcc.h ****   struct __attribute__((packed)) T_UINT32 { uint32_t v; };
  75:external/drivers/cmsis/include/cmsis_gcc.h ****   #pragma GCC diagnostic pop
  76:external/drivers/cmsis/include/cmsis_gcc.h ****   #define __UNALIGNED_UINT32(x)                  (((struct T_UINT32 *)(x))->v)
  77:external/drivers/cmsis/include/cmsis_gcc.h **** #endif
  78:external/drivers/cmsis/include/cmsis_gcc.h **** #ifndef   __UNALIGNED_UINT16_WRITE
  79:external/drivers/cmsis/include/cmsis_gcc.h ****   #pragma GCC diagnostic push
  80:external/drivers/cmsis/include/cmsis_gcc.h ****   #pragma GCC diagnostic ignored "-Wpacked"
  81:external/drivers/cmsis/include/cmsis_gcc.h ****   #pragma GCC diagnostic ignored "-Wattributes"
  82:external/drivers/cmsis/include/cmsis_gcc.h ****   __PACKED_STRUCT T_UINT16_WRITE { uint16_t v; };
  83:external/drivers/cmsis/include/cmsis_gcc.h ****   #pragma GCC diagnostic pop
  84:external/drivers/cmsis/include/cmsis_gcc.h ****   #define __UNALIGNED_UINT16_WRITE(addr, val)    (void)((((struct T_UINT16_WRITE *)(void *)(addr))-
  85:external/drivers/cmsis/include/cmsis_gcc.h **** #endif
  86:external/drivers/cmsis/include/cmsis_gcc.h **** #ifndef   __UNALIGNED_UINT16_READ
  87:external/drivers/cmsis/include/cmsis_gcc.h ****   #pragma GCC diagnostic push
  88:external/drivers/cmsis/include/cmsis_gcc.h ****   #pragma GCC diagnostic ignored "-Wpacked"
  89:external/drivers/cmsis/include/cmsis_gcc.h ****   #pragma GCC diagnostic ignored "-Wattributes"
  90:external/drivers/cmsis/include/cmsis_gcc.h ****   __PACKED_STRUCT T_UINT16_READ { uint16_t v; };
  91:external/drivers/cmsis/include/cmsis_gcc.h ****   #pragma GCC diagnostic pop
  92:external/drivers/cmsis/include/cmsis_gcc.h ****   #define __UNALIGNED_UINT16_READ(addr)          (((const struct T_UINT16_READ *)(const void *)(add
  93:external/drivers/cmsis/include/cmsis_gcc.h **** #endif
  94:external/drivers/cmsis/include/cmsis_gcc.h **** #ifndef   __UNALIGNED_UINT32_WRITE
  95:external/drivers/cmsis/include/cmsis_gcc.h ****   #pragma GCC diagnostic push
  96:external/drivers/cmsis/include/cmsis_gcc.h ****   #pragma GCC diagnostic ignored "-Wpacked"
  97:external/drivers/cmsis/include/cmsis_gcc.h ****   #pragma GCC diagnostic ignored "-Wattributes"
  98:external/drivers/cmsis/include/cmsis_gcc.h ****   __PACKED_STRUCT T_UINT32_WRITE { uint32_t v; };
  99:external/drivers/cmsis/include/cmsis_gcc.h ****   #pragma GCC diagnostic pop
 100:external/drivers/cmsis/include/cmsis_gcc.h ****   #define __UNALIGNED_UINT32_WRITE(addr, val)    (void)((((struct T_UINT32_WRITE *)(void *)(addr))-
 101:external/drivers/cmsis/include/cmsis_gcc.h **** #endif
 102:external/drivers/cmsis/include/cmsis_gcc.h **** #ifndef   __UNALIGNED_UINT32_READ
 103:external/drivers/cmsis/include/cmsis_gcc.h ****   #pragma GCC diagnostic push
 104:external/drivers/cmsis/include/cmsis_gcc.h ****   #pragma GCC diagnostic ignored "-Wpacked"
 105:external/drivers/cmsis/include/cmsis_gcc.h ****   #pragma GCC diagnostic ignored "-Wattributes"
 106:external/drivers/cmsis/include/cmsis_gcc.h ****   __PACKED_STRUCT T_UINT32_READ { uint32_t v; };
 107:external/drivers/cmsis/include/cmsis_gcc.h ****   #pragma GCC diagnostic pop
 108:external/drivers/cmsis/include/cmsis_gcc.h ****   #define __UNALIGNED_UINT32_READ(addr)          (((const struct T_UINT32_READ *)(const void *)(add
 109:external/drivers/cmsis/include/cmsis_gcc.h **** #endif
 110:external/drivers/cmsis/include/cmsis_gcc.h **** #ifndef   __ALIGNED
 111:external/drivers/cmsis/include/cmsis_gcc.h ****   #define __ALIGNED(x)                           __attribute__((aligned(x)))
 112:external/drivers/cmsis/include/cmsis_gcc.h **** #endif
 113:external/drivers/cmsis/include/cmsis_gcc.h **** #ifndef   __RESTRICT
 114:external/drivers/cmsis/include/cmsis_gcc.h ****   #define __RESTRICT                             __restrict
 115:external/drivers/cmsis/include/cmsis_gcc.h **** #endif
 116:external/drivers/cmsis/include/cmsis_gcc.h **** #ifndef   __COMPILER_BARRIER
 117:external/drivers/cmsis/include/cmsis_gcc.h ****   #define __COMPILER_BARRIER()                   __ASM volatile("":::"memory")
 118:external/drivers/cmsis/include/cmsis_gcc.h **** #endif
 119:external/drivers/cmsis/include/cmsis_gcc.h **** 
 120:external/drivers/cmsis/include/cmsis_gcc.h **** /* #########################  Startup and Lowlevel Init  ######################## */
ARM GAS  /tmp/ccN0K4x4.s 			page 7


 121:external/drivers/cmsis/include/cmsis_gcc.h **** 
 122:external/drivers/cmsis/include/cmsis_gcc.h **** #ifndef __PROGRAM_START
 123:external/drivers/cmsis/include/cmsis_gcc.h **** 
 124:external/drivers/cmsis/include/cmsis_gcc.h **** /**
 125:external/drivers/cmsis/include/cmsis_gcc.h ****   \brief   Initializes data and bss sections
 126:external/drivers/cmsis/include/cmsis_gcc.h ****   \details This default implementations initialized all data and additional bss
 127:external/drivers/cmsis/include/cmsis_gcc.h ****            sections relying on .copy.table and .zero.table specified properly
 128:external/drivers/cmsis/include/cmsis_gcc.h ****            in the used linker script.
 129:external/drivers/cmsis/include/cmsis_gcc.h ****   
 130:external/drivers/cmsis/include/cmsis_gcc.h ****  */
 131:external/drivers/cmsis/include/cmsis_gcc.h **** __STATIC_FORCEINLINE __NO_RETURN void __cmsis_start(void)
 132:external/drivers/cmsis/include/cmsis_gcc.h **** {
 133:external/drivers/cmsis/include/cmsis_gcc.h ****   extern void _start(void) __NO_RETURN;
 134:external/drivers/cmsis/include/cmsis_gcc.h ****   
 135:external/drivers/cmsis/include/cmsis_gcc.h ****   typedef struct {
 136:external/drivers/cmsis/include/cmsis_gcc.h ****     uint32_t const* src;
 137:external/drivers/cmsis/include/cmsis_gcc.h ****     uint32_t* dest;
 138:external/drivers/cmsis/include/cmsis_gcc.h ****     uint32_t  wlen;
 139:external/drivers/cmsis/include/cmsis_gcc.h ****   } __copy_table_t;
 140:external/drivers/cmsis/include/cmsis_gcc.h ****   
 141:external/drivers/cmsis/include/cmsis_gcc.h ****   typedef struct {
 142:external/drivers/cmsis/include/cmsis_gcc.h ****     uint32_t* dest;
 143:external/drivers/cmsis/include/cmsis_gcc.h ****     uint32_t  wlen;
 144:external/drivers/cmsis/include/cmsis_gcc.h ****   } __zero_table_t;
 145:external/drivers/cmsis/include/cmsis_gcc.h ****   
 146:external/drivers/cmsis/include/cmsis_gcc.h ****   extern const __copy_table_t __copy_table_start__;
 147:external/drivers/cmsis/include/cmsis_gcc.h ****   extern const __copy_table_t __copy_table_end__;
 148:external/drivers/cmsis/include/cmsis_gcc.h ****   extern const __zero_table_t __zero_table_start__;
 149:external/drivers/cmsis/include/cmsis_gcc.h ****   extern const __zero_table_t __zero_table_end__;
 150:external/drivers/cmsis/include/cmsis_gcc.h **** 
 151:external/drivers/cmsis/include/cmsis_gcc.h ****   for (__copy_table_t const* pTable = &__copy_table_start__; pTable < &__copy_table_end__; ++pTable
 152:external/drivers/cmsis/include/cmsis_gcc.h ****     for(uint32_t i=0u; i<pTable->wlen; ++i) {
 153:external/drivers/cmsis/include/cmsis_gcc.h ****       pTable->dest[i] = pTable->src[i];
 154:external/drivers/cmsis/include/cmsis_gcc.h ****     }
 155:external/drivers/cmsis/include/cmsis_gcc.h ****   }
 156:external/drivers/cmsis/include/cmsis_gcc.h ****  
 157:external/drivers/cmsis/include/cmsis_gcc.h ****   for (__zero_table_t const* pTable = &__zero_table_start__; pTable < &__zero_table_end__; ++pTable
 158:external/drivers/cmsis/include/cmsis_gcc.h ****     for(uint32_t i=0u; i<pTable->wlen; ++i) {
 159:external/drivers/cmsis/include/cmsis_gcc.h ****       pTable->dest[i] = 0u;
 160:external/drivers/cmsis/include/cmsis_gcc.h ****     }
 161:external/drivers/cmsis/include/cmsis_gcc.h ****   }
 162:external/drivers/cmsis/include/cmsis_gcc.h ****  
 163:external/drivers/cmsis/include/cmsis_gcc.h ****   _start();
 164:external/drivers/cmsis/include/cmsis_gcc.h **** }
 165:external/drivers/cmsis/include/cmsis_gcc.h ****   
 166:external/drivers/cmsis/include/cmsis_gcc.h **** #define __PROGRAM_START           __cmsis_start
 167:external/drivers/cmsis/include/cmsis_gcc.h **** #endif
 168:external/drivers/cmsis/include/cmsis_gcc.h **** 
 169:external/drivers/cmsis/include/cmsis_gcc.h **** #ifndef __INITIAL_SP
 170:external/drivers/cmsis/include/cmsis_gcc.h **** #define __INITIAL_SP              __StackTop
 171:external/drivers/cmsis/include/cmsis_gcc.h **** #endif
 172:external/drivers/cmsis/include/cmsis_gcc.h **** 
 173:external/drivers/cmsis/include/cmsis_gcc.h **** #ifndef __STACK_LIMIT
 174:external/drivers/cmsis/include/cmsis_gcc.h **** #define __STACK_LIMIT             __StackLimit
 175:external/drivers/cmsis/include/cmsis_gcc.h **** #endif
 176:external/drivers/cmsis/include/cmsis_gcc.h **** 
 177:external/drivers/cmsis/include/cmsis_gcc.h **** #ifndef __VECTOR_TABLE
ARM GAS  /tmp/ccN0K4x4.s 			page 8


 178:external/drivers/cmsis/include/cmsis_gcc.h **** #define __VECTOR_TABLE            __Vectors
 179:external/drivers/cmsis/include/cmsis_gcc.h **** #endif
 180:external/drivers/cmsis/include/cmsis_gcc.h **** 
 181:external/drivers/cmsis/include/cmsis_gcc.h **** #ifndef __VECTOR_TABLE_ATTRIBUTE
 182:external/drivers/cmsis/include/cmsis_gcc.h **** #define __VECTOR_TABLE_ATTRIBUTE  __attribute((used, section(".vectors")))
 183:external/drivers/cmsis/include/cmsis_gcc.h **** #endif
 184:external/drivers/cmsis/include/cmsis_gcc.h **** 
 185:external/drivers/cmsis/include/cmsis_gcc.h **** /* ###########################  Core Function Access  ########################### */
 186:external/drivers/cmsis/include/cmsis_gcc.h **** /** \ingroup  CMSIS_Core_FunctionInterface
 187:external/drivers/cmsis/include/cmsis_gcc.h ****     \defgroup CMSIS_Core_RegAccFunctions CMSIS Core Register Access Functions
 188:external/drivers/cmsis/include/cmsis_gcc.h ****   @{
 189:external/drivers/cmsis/include/cmsis_gcc.h ****  */
 190:external/drivers/cmsis/include/cmsis_gcc.h **** 
 191:external/drivers/cmsis/include/cmsis_gcc.h **** /**
 192:external/drivers/cmsis/include/cmsis_gcc.h ****   \brief   Enable IRQ Interrupts
 193:external/drivers/cmsis/include/cmsis_gcc.h ****   \details Enables IRQ interrupts by clearing the I-bit in the CPSR.
 194:external/drivers/cmsis/include/cmsis_gcc.h ****            Can only be executed in Privileged modes.
 195:external/drivers/cmsis/include/cmsis_gcc.h ****  */
 196:external/drivers/cmsis/include/cmsis_gcc.h **** __STATIC_FORCEINLINE void __enable_irq(void)
 197:external/drivers/cmsis/include/cmsis_gcc.h **** {
 198:external/drivers/cmsis/include/cmsis_gcc.h ****   __ASM volatile ("cpsie i" : : : "memory");
 199:external/drivers/cmsis/include/cmsis_gcc.h **** }
 200:external/drivers/cmsis/include/cmsis_gcc.h **** 
 201:external/drivers/cmsis/include/cmsis_gcc.h **** 
 202:external/drivers/cmsis/include/cmsis_gcc.h **** /**
 203:external/drivers/cmsis/include/cmsis_gcc.h ****   \brief   Disable IRQ Interrupts
 204:external/drivers/cmsis/include/cmsis_gcc.h ****   \details Disables IRQ interrupts by setting the I-bit in the CPSR.
 205:external/drivers/cmsis/include/cmsis_gcc.h ****            Can only be executed in Privileged modes.
 206:external/drivers/cmsis/include/cmsis_gcc.h ****  */
 207:external/drivers/cmsis/include/cmsis_gcc.h **** __STATIC_FORCEINLINE void __disable_irq(void)
  38              		.loc 2 207 27 view .LVU2
  39              	.LBB5:
 208:external/drivers/cmsis/include/cmsis_gcc.h **** {
 209:external/drivers/cmsis/include/cmsis_gcc.h ****   __ASM volatile ("cpsid i" : : : "memory");
  40              		.loc 2 209 3 view .LVU3
  41              		.syntax unified
  42              	@ 209 "external/drivers/cmsis/include/cmsis_gcc.h" 1
  43 0000 72B6     		cpsid i
  44              	@ 0 "" 2
  45              		.thumb
  46              		.syntax unified
  47              	.L2:
  48              	.LBE5:
  49              	.LBE4:
 187:src/system/init.c ****   while (1)
  50              		.loc 1 187 3 discriminator 1 view .LVU4
 188:src/system/init.c ****   {
 189:src/system/init.c ****   }
  51              		.loc 1 189 3 discriminator 1 view .LVU5
 187:src/system/init.c ****   while (1)
  52              		.loc 1 187 9 discriminator 1 view .LVU6
  53 0002 FEE7     		b	.L2
  54              		.cfi_endproc
  55              	.LFE146:
  57              		.section	.text.SystemClock_Config,"ax",%progbits
  58              		.align	1
  59              		.global	SystemClock_Config
ARM GAS  /tmp/ccN0K4x4.s 			page 9


  60              		.syntax unified
  61              		.thumb
  62              		.thumb_func
  64              	SystemClock_Config:
  65              	.LFB145:
 119:src/system/init.c ****   RCC_OscInitTypeDef RCC_OscInitStruct = {0};
  66              		.loc 1 119 1 view -0
  67              		.cfi_startproc
  68              		@ args = 0, pretend = 0, frame = 112
  69              		@ frame_needed = 0, uses_anonymous_args = 0
  70 0000 10B5     		push	{r4, lr}
  71              	.LCFI0:
  72              		.cfi_def_cfa_offset 8
  73              		.cfi_offset 4, -8
  74              		.cfi_offset 14, -4
  75 0002 9CB0     		sub	sp, sp, #112
  76              	.LCFI1:
  77              		.cfi_def_cfa_offset 120
 120:src/system/init.c ****   RCC_ClkInitTypeDef RCC_ClkInitStruct = {0};
  78              		.loc 1 120 3 view .LVU8
 120:src/system/init.c ****   RCC_ClkInitTypeDef RCC_ClkInitStruct = {0};
  79              		.loc 1 120 22 is_stmt 0 view .LVU9
  80 0004 4C22     		movs	r2, #76
  81 0006 0021     		movs	r1, #0
  82 0008 09A8     		add	r0, sp, #36
  83 000a FFF7FEFF 		bl	memset
  84              	.LVL0:
 121:src/system/init.c **** 
  85              		.loc 1 121 3 is_stmt 1 view .LVU10
 121:src/system/init.c **** 
  86              		.loc 1 121 22 is_stmt 0 view .LVU11
  87 000e 2022     		movs	r2, #32
  88 0010 0021     		movs	r1, #0
  89 0012 01A8     		add	r0, sp, #4
  90 0014 FFF7FEFF 		bl	memset
  91              	.LVL1:
 125:src/system/init.c **** 
  92              		.loc 1 125 3 is_stmt 1 view .LVU12
  93 0018 0220     		movs	r0, #2
  94 001a FFF7FEFF 		bl	HAL_PWREx_ConfigSupply
  95              	.LVL2:
 129:src/system/init.c **** 
  96              		.loc 1 129 3 view .LVU13
  97              	.LBB6:
 129:src/system/init.c **** 
  98              		.loc 1 129 3 view .LVU14
  99 001e 0023     		movs	r3, #0
 100 0020 0093     		str	r3, [sp]
 129:src/system/init.c **** 
 101              		.loc 1 129 3 view .LVU15
 102 0022 224B     		ldr	r3, .L10
 103 0024 9A69     		ldr	r2, [r3, #24]
 104 0026 22F44042 		bic	r2, r2, #49152
 105 002a 9A61     		str	r2, [r3, #24]
 129:src/system/init.c **** 
 106              		.loc 1 129 3 view .LVU16
 107 002c 9B69     		ldr	r3, [r3, #24]
ARM GAS  /tmp/ccN0K4x4.s 			page 10


 108 002e 03F44043 		and	r3, r3, #49152
 109 0032 0093     		str	r3, [sp]
 129:src/system/init.c **** 
 110              		.loc 1 129 3 view .LVU17
 111 0034 009B     		ldr	r3, [sp]
 112              	.LBE6:
 129:src/system/init.c **** 
 113              		.loc 1 129 3 view .LVU18
 131:src/system/init.c **** 
 114              		.loc 1 131 3 view .LVU19
 115              	.L4:
 131:src/system/init.c **** 
 116              		.loc 1 131 48 discriminator 1 view .LVU20
 131:src/system/init.c **** 
 117              		.loc 1 131 9 discriminator 1 view .LVU21
 131:src/system/init.c **** 
 118              		.loc 1 131 10 is_stmt 0 discriminator 1 view .LVU22
 119 0036 1D4B     		ldr	r3, .L10
 120 0038 9B69     		ldr	r3, [r3, #24]
 131:src/system/init.c **** 
 121              		.loc 1 131 9 discriminator 1 view .LVU23
 122 003a 13F4005F 		tst	r3, #8192
 123 003e FAD0     		beq	.L4
 136:src/system/init.c ****   RCC_OscInitStruct.HSIState = RCC_HSI_DIV1;
 124              		.loc 1 136 3 is_stmt 1 view .LVU24
 136:src/system/init.c ****   RCC_OscInitStruct.HSIState = RCC_HSI_DIV1;
 125              		.loc 1 136 36 is_stmt 0 view .LVU25
 126 0040 2220     		movs	r0, #34
 127 0042 0990     		str	r0, [sp, #36]
 137:src/system/init.c ****   RCC_OscInitStruct.HSICalibrationValue = 64;
 128              		.loc 1 137 3 is_stmt 1 view .LVU26
 137:src/system/init.c ****   RCC_OscInitStruct.HSICalibrationValue = 64;
 129              		.loc 1 137 30 is_stmt 0 view .LVU27
 130 0044 0123     		movs	r3, #1
 131 0046 0C93     		str	r3, [sp, #48]
 138:src/system/init.c ****   RCC_OscInitStruct.HSI48State = RCC_HSI48_ON;
 132              		.loc 1 138 3 is_stmt 1 view .LVU28
 138:src/system/init.c ****   RCC_OscInitStruct.HSI48State = RCC_HSI48_ON;
 133              		.loc 1 138 41 is_stmt 0 view .LVU29
 134 0048 4022     		movs	r2, #64
 135 004a 0D92     		str	r2, [sp, #52]
 139:src/system/init.c ****   RCC_OscInitStruct.PLL.PLLState = RCC_PLL_ON;
 136              		.loc 1 139 3 is_stmt 1 view .LVU30
 139:src/system/init.c ****   RCC_OscInitStruct.PLL.PLLState = RCC_PLL_ON;
 137              		.loc 1 139 32 is_stmt 0 view .LVU31
 138 004c 0F93     		str	r3, [sp, #60]
 140:src/system/init.c ****   RCC_OscInitStruct.PLL.PLLSource = RCC_PLLSOURCE_HSI;
 139              		.loc 1 140 3 is_stmt 1 view .LVU32
 140:src/system/init.c ****   RCC_OscInitStruct.PLL.PLLSource = RCC_PLLSOURCE_HSI;
 140              		.loc 1 140 34 is_stmt 0 view .LVU33
 141 004e 0221     		movs	r1, #2
 142 0050 1291     		str	r1, [sp, #72]
 141:src/system/init.c ****   RCC_OscInitStruct.PLL.PLLM = 4;
 143              		.loc 1 141 3 is_stmt 1 view .LVU34
 141:src/system/init.c ****   RCC_OscInitStruct.PLL.PLLM = 4;
 144              		.loc 1 141 35 is_stmt 0 view .LVU35
 145 0052 0022     		movs	r2, #0
ARM GAS  /tmp/ccN0K4x4.s 			page 11


 146 0054 1392     		str	r2, [sp, #76]
 142:src/system/init.c ****   RCC_OscInitStruct.PLL.PLLN = 34;
 147              		.loc 1 142 3 is_stmt 1 view .LVU36
 142:src/system/init.c ****   RCC_OscInitStruct.PLL.PLLN = 34;
 148              		.loc 1 142 30 is_stmt 0 view .LVU37
 149 0056 0424     		movs	r4, #4
 150 0058 1494     		str	r4, [sp, #80]
 143:src/system/init.c ****   RCC_OscInitStruct.PLL.PLLP = 1;
 151              		.loc 1 143 3 is_stmt 1 view .LVU38
 143:src/system/init.c ****   RCC_OscInitStruct.PLL.PLLP = 1;
 152              		.loc 1 143 30 is_stmt 0 view .LVU39
 153 005a 1590     		str	r0, [sp, #84]
 144:src/system/init.c ****   RCC_OscInitStruct.PLL.PLLQ = 3;
 154              		.loc 1 144 3 is_stmt 1 view .LVU40
 144:src/system/init.c ****   RCC_OscInitStruct.PLL.PLLQ = 3;
 155              		.loc 1 144 30 is_stmt 0 view .LVU41
 156 005c 1693     		str	r3, [sp, #88]
 145:src/system/init.c ****   RCC_OscInitStruct.PLL.PLLR = 2;
 157              		.loc 1 145 3 is_stmt 1 view .LVU42
 145:src/system/init.c ****   RCC_OscInitStruct.PLL.PLLR = 2;
 158              		.loc 1 145 30 is_stmt 0 view .LVU43
 159 005e 0323     		movs	r3, #3
 160 0060 1793     		str	r3, [sp, #92]
 146:src/system/init.c ****   RCC_OscInitStruct.PLL.PLLRGE = RCC_PLL1VCIRANGE_3;
 161              		.loc 1 146 3 is_stmt 1 view .LVU44
 146:src/system/init.c ****   RCC_OscInitStruct.PLL.PLLRGE = RCC_PLL1VCIRANGE_3;
 162              		.loc 1 146 30 is_stmt 0 view .LVU45
 163 0062 1891     		str	r1, [sp, #96]
 147:src/system/init.c ****   RCC_OscInitStruct.PLL.PLLVCOSEL = RCC_PLL1VCOWIDE;
 164              		.loc 1 147 3 is_stmt 1 view .LVU46
 147:src/system/init.c ****   RCC_OscInitStruct.PLL.PLLVCOSEL = RCC_PLL1VCOWIDE;
 165              		.loc 1 147 32 is_stmt 0 view .LVU47
 166 0064 0C23     		movs	r3, #12
 167 0066 1993     		str	r3, [sp, #100]
 148:src/system/init.c ****   RCC_OscInitStruct.PLL.PLLFRACN = 3072;
 168              		.loc 1 148 3 is_stmt 1 view .LVU48
 148:src/system/init.c ****   RCC_OscInitStruct.PLL.PLLFRACN = 3072;
 169              		.loc 1 148 35 is_stmt 0 view .LVU49
 170 0068 1A92     		str	r2, [sp, #104]
 149:src/system/init.c ****   if (HAL_RCC_OscConfig(&RCC_OscInitStruct) != HAL_OK)
 171              		.loc 1 149 3 is_stmt 1 view .LVU50
 149:src/system/init.c ****   if (HAL_RCC_OscConfig(&RCC_OscInitStruct) != HAL_OK)
 172              		.loc 1 149 34 is_stmt 0 view .LVU51
 173 006a 4FF44063 		mov	r3, #3072
 174 006e 1B93     		str	r3, [sp, #108]
 150:src/system/init.c ****   {
 175              		.loc 1 150 3 is_stmt 1 view .LVU52
 150:src/system/init.c ****   {
 176              		.loc 1 150 7 is_stmt 0 view .LVU53
 177 0070 09A8     		add	r0, sp, #36
 178 0072 FFF7FEFF 		bl	HAL_RCC_OscConfig
 179              	.LVL3:
 150:src/system/init.c ****   {
 180              		.loc 1 150 6 view .LVU54
 181 0076 A0B9     		cbnz	r0, .L8
 157:src/system/init.c ****                               |RCC_CLOCKTYPE_PCLK1|RCC_CLOCKTYPE_PCLK2
 182              		.loc 1 157 3 is_stmt 1 view .LVU55
ARM GAS  /tmp/ccN0K4x4.s 			page 12


 157:src/system/init.c ****                               |RCC_CLOCKTYPE_PCLK1|RCC_CLOCKTYPE_PCLK2
 183              		.loc 1 157 31 is_stmt 0 view .LVU56
 184 0078 3F23     		movs	r3, #63
 185 007a 0193     		str	r3, [sp, #4]
 160:src/system/init.c ****   RCC_ClkInitStruct.SYSCLKDivider = RCC_SYSCLK_DIV1;
 186              		.loc 1 160 3 is_stmt 1 view .LVU57
 160:src/system/init.c ****   RCC_ClkInitStruct.SYSCLKDivider = RCC_SYSCLK_DIV1;
 187              		.loc 1 160 34 is_stmt 0 view .LVU58
 188 007c 0321     		movs	r1, #3
 189 007e 0291     		str	r1, [sp, #8]
 161:src/system/init.c ****   RCC_ClkInitStruct.AHBCLKDivider = RCC_HCLK_DIV2;
 190              		.loc 1 161 3 is_stmt 1 view .LVU59
 161:src/system/init.c ****   RCC_ClkInitStruct.AHBCLKDivider = RCC_HCLK_DIV2;
 191              		.loc 1 161 35 is_stmt 0 view .LVU60
 192 0080 0023     		movs	r3, #0
 193 0082 0393     		str	r3, [sp, #12]
 162:src/system/init.c ****   RCC_ClkInitStruct.APB3CLKDivider = RCC_APB3_DIV2;
 194              		.loc 1 162 3 is_stmt 1 view .LVU61
 162:src/system/init.c ****   RCC_ClkInitStruct.APB3CLKDivider = RCC_APB3_DIV2;
 195              		.loc 1 162 35 is_stmt 0 view .LVU62
 196 0084 0823     		movs	r3, #8
 197 0086 0493     		str	r3, [sp, #16]
 163:src/system/init.c ****   RCC_ClkInitStruct.APB1CLKDivider = RCC_APB1_DIV2;
 198              		.loc 1 163 3 is_stmt 1 view .LVU63
 163:src/system/init.c ****   RCC_ClkInitStruct.APB1CLKDivider = RCC_APB1_DIV2;
 199              		.loc 1 163 36 is_stmt 0 view .LVU64
 200 0088 4023     		movs	r3, #64
 201 008a 0593     		str	r3, [sp, #20]
 164:src/system/init.c ****   RCC_ClkInitStruct.APB2CLKDivider = RCC_APB2_DIV2;
 202              		.loc 1 164 3 is_stmt 1 view .LVU65
 164:src/system/init.c ****   RCC_ClkInitStruct.APB2CLKDivider = RCC_APB2_DIV2;
 203              		.loc 1 164 36 is_stmt 0 view .LVU66
 204 008c 0693     		str	r3, [sp, #24]
 165:src/system/init.c ****   RCC_ClkInitStruct.APB4CLKDivider = RCC_APB4_DIV2;
 205              		.loc 1 165 3 is_stmt 1 view .LVU67
 165:src/system/init.c ****   RCC_ClkInitStruct.APB4CLKDivider = RCC_APB4_DIV2;
 206              		.loc 1 165 36 is_stmt 0 view .LVU68
 207 008e 4FF48062 		mov	r2, #1024
 208 0092 0792     		str	r2, [sp, #28]
 166:src/system/init.c **** 
 209              		.loc 1 166 3 is_stmt 1 view .LVU69
 166:src/system/init.c **** 
 210              		.loc 1 166 36 is_stmt 0 view .LVU70
 211 0094 0893     		str	r3, [sp, #32]
 168:src/system/init.c ****   {
 212              		.loc 1 168 3 is_stmt 1 view .LVU71
 168:src/system/init.c ****   {
 213              		.loc 1 168 7 is_stmt 0 view .LVU72
 214 0096 01A8     		add	r0, sp, #4
 215 0098 FFF7FEFF 		bl	HAL_RCC_ClockConfig
 216              	.LVL4:
 168:src/system/init.c ****   {
 217              		.loc 1 168 6 view .LVU73
 218 009c 18B9     		cbnz	r0, .L9
 172:src/system/init.c **** 
 219              		.loc 1 172 1 view .LVU74
 220 009e 1CB0     		add	sp, sp, #112
ARM GAS  /tmp/ccN0K4x4.s 			page 13


 221              	.LCFI2:
 222              		.cfi_remember_state
 223              		.cfi_def_cfa_offset 8
 224              		@ sp needed
 225 00a0 10BD     		pop	{r4, pc}
 226              	.L8:
 227              	.LCFI3:
 228              		.cfi_restore_state
 152:src/system/init.c ****   }
 229              		.loc 1 152 5 is_stmt 1 view .LVU75
 230 00a2 FFF7FEFF 		bl	Error_Handler
 231              	.LVL5:
 232              	.L9:
 170:src/system/init.c ****   }
 233              		.loc 1 170 5 view .LVU76
 234 00a6 FFF7FEFF 		bl	Error_Handler
 235              	.LVL6:
 236              	.L11:
 237 00aa 00BF     		.align	2
 238              	.L10:
 239 00ac 00480258 		.word	1476544512
 240              		.cfi_endproc
 241              	.LFE145:
 243              		.section	.text.init,"ax",%progbits
 244              		.align	1
 245              		.global	init
 246              		.syntax unified
 247              		.thumb
 248              		.thumb_func
 250              	init:
 251              	.LFB144:
  70:src/system/init.c ****   /* USER CODE BEGIN 1 */
 252              		.loc 1 70 1 view -0
 253              		.cfi_startproc
 254              		@ args = 0, pretend = 0, frame = 0
 255              		@ frame_needed = 0, uses_anonymous_args = 0
 256 0000 08B5     		push	{r3, lr}
 257              	.LCFI4:
 258              		.cfi_def_cfa_offset 8
 259              		.cfi_offset 3, -8
 260              		.cfi_offset 14, -4
  78:src/system/init.c **** 
 261              		.loc 1 78 3 view .LVU78
 262 0002 FFF7FEFF 		bl	HAL_Init
 263              	.LVL7:
  85:src/system/init.c **** 
 264              		.loc 1 85 3 view .LVU79
 265 0006 FFF7FEFF 		bl	SystemClock_Config
 266              	.LVL8:
  92:src/system/init.c ****   MX_USART3_UART_Init();
 267              		.loc 1 92 3 view .LVU80
 268 000a FFF7FEFF 		bl	MX_GPIO_Init
 269              	.LVL9:
  93:src/system/init.c ****   MX_USB_OTG_HS_USB_Init();
 270              		.loc 1 93 3 view .LVU81
 271 000e FFF7FEFF 		bl	MX_USART3_UART_Init
 272              	.LVL10:
ARM GAS  /tmp/ccN0K4x4.s 			page 14


  94:src/system/init.c ****   MX_I2C1_Init();
 273              		.loc 1 94 3 view .LVU82
 274 0012 FFF7FEFF 		bl	MX_USB_OTG_HS_USB_Init
 275              	.LVL11:
  95:src/system/init.c ****   MX_SPI1_Init();
 276              		.loc 1 95 3 view .LVU83
 277 0016 FFF7FEFF 		bl	MX_I2C1_Init
 278              	.LVL12:
  96:src/system/init.c ****   MX_TIM2_Init();
 279              		.loc 1 96 3 view .LVU84
 280 001a FFF7FEFF 		bl	MX_SPI1_Init
 281              	.LVL13:
  97:src/system/init.c ****   MX_TIM5_Init();
 282              		.loc 1 97 3 view .LVU85
 283 001e FFF7FEFF 		bl	MX_TIM2_Init
 284              	.LVL14:
  98:src/system/init.c ****   /* USER CODE BEGIN 2 */
 285              		.loc 1 98 3 view .LVU86
 286 0022 FFF7FEFF 		bl	MX_TIM5_Init
 287              	.LVL15:
 105:src/system/init.c ****   {
 288              		.loc 1 105 3 view .LVU87
 110:src/system/init.c ****   /* USER CODE END 3 */
 289              		.loc 1 110 3 view .LVU88
 112:src/system/init.c **** 
 290              		.loc 1 112 1 is_stmt 0 view .LVU89
 291 0026 0020     		movs	r0, #0
 292 0028 08BD     		pop	{r3, pc}
 293              		.cfi_endproc
 294              	.LFE144:
 296              		.text
 297              	.Letext0:
 298              		.file 3 "/usr/lib/gcc/arm-none-eabi/12.2.1/include/stdint.h"
 299              		.file 4 "external/drivers/cmsis/include/stm32h723xx.h"
 300              		.file 5 "external/drivers/stm32h7xx/include/stm32h7xx_hal_def.h"
 301              		.file 6 "external/drivers/stm32h7xx/include/stm32h7xx_hal_rcc.h"
 302              		.file 7 "external/drivers/stm32h7xx/include/stm32h7xx_hal_pwr_ex.h"
 303              		.file 8 "src/system/tim.h"
 304              		.file 9 "src/system/spi.h"
 305              		.file 10 "src/system/i2c.h"
 306              		.file 11 "src/system/usb_otg.h"
 307              		.file 12 "src/system/usart.h"
 308              		.file 13 "src/system/gpio.h"
 309              		.file 14 "external/drivers/stm32h7xx/include/stm32h7xx_hal.h"
 310              		.file 15 "<built-in>"
ARM GAS  /tmp/ccN0K4x4.s 			page 15

