ARM GAS  /tmp/cciStdu2.s 			page 1


   1              		.cpu cortex-m7
   2              		.arch armv7e-m
   3              		.fpu fpv5-d16
   4              		.eabi_attribute 28, 1
   5              		.eabi_attribute 20, 1
   6              		.eabi_attribute 21, 1
   7              		.eabi_attribute 23, 3
   8              		.eabi_attribute 24, 1
   9              		.eabi_attribute 25, 1
  10              		.eabi_attribute 26, 1
  11              		.eabi_attribute 30, 1
  12              		.eabi_attribute 34, 1
  13              		.eabi_attribute 18, 4
  14              		.file	"lis3mdl.c"
  15              		.text
  16              	.Ltext0:
  17              		.cfi_sections	.debug_frame
  18              		.file 1 "src/drivers/lis3mdl/lis3mdl.c"
  19              		.section	.text.lis3mdl_get_sensitivity,"ax",%progbits
  20              		.align	1
  21              		.global	lis3mdl_get_sensitivity
  22              		.syntax unified
  23              		.thumb
  24              		.thumb_func
  26              	lis3mdl_get_sensitivity:
  27              	.LVL0:
  28              	.LFB4:
   1:src/drivers/lis3mdl/lis3mdl.c **** #include "lis3mdl.h"
   2:src/drivers/lis3mdl/lis3mdl.c **** 
   3:src/drivers/lis3mdl/lis3mdl.c **** lis3mdl_err_t lis3mdl_initialize(lis3mdl_device_t *device) {
   4:src/drivers/lis3mdl/lis3mdl.c ****   lis3mdl_write_byte(device, LIS3MDL_REG_CTRL3, LIS3MDL_CONTINUOUS_CONVERSION);
   5:src/drivers/lis3mdl/lis3mdl.c **** 
   6:src/drivers/lis3mdl/lis3mdl.c ****   uint8_t ctrl_reg_1 =
   7:src/drivers/lis3mdl/lis3mdl.c ****       device->temp_enable | device->data_rate | device->self_test;
   8:src/drivers/lis3mdl/lis3mdl.c ****   lis3mdl_write_byte(device, LIS3MDL_REG_CTRL1, ctrl_reg_1);
   9:src/drivers/lis3mdl/lis3mdl.c **** 
  10:src/drivers/lis3mdl/lis3mdl.c ****   uint8_t ctrl_reg_2 = device->full_scale;
  11:src/drivers/lis3mdl/lis3mdl.c ****   lis3mdl_write_byte(device, LIS3MDL_REG_CTRL2, ctrl_reg_2);
  12:src/drivers/lis3mdl/lis3mdl.c **** 
  13:src/drivers/lis3mdl/lis3mdl.c ****   return LIS3MDL_ERR_OK;
  14:src/drivers/lis3mdl/lis3mdl.c **** }
  15:src/drivers/lis3mdl/lis3mdl.c **** 
  16:src/drivers/lis3mdl/lis3mdl.c **** lis3mdl_err_t lis3mdl_get_sensitivity(lis3mdl_device_t *device,
  17:src/drivers/lis3mdl/lis3mdl.c ****                                       double *sensitivity) {
  29              		.loc 1 17 60 view -0
  30              		.cfi_startproc
  31              		@ args = 0, pretend = 0, frame = 0
  32              		@ frame_needed = 0, uses_anonymous_args = 0
  33              		@ link register save eliminated.
  18:src/drivers/lis3mdl/lis3mdl.c ****   switch (device->full_scale) {
  34              		.loc 1 18 3 view .LVU1
  35              		.loc 1 18 17 is_stmt 0 view .LVU2
  36 0000 C378     		ldrb	r3, [r0, #3]	@ zero_extendqisi2
  37              		.loc 1 18 3 view .LVU3
  38 0002 402B     		cmp	r3, #64
  39 0004 18D0     		beq	.L2
  40 0006 08D8     		bhi	.L3
ARM GAS  /tmp/cciStdu2.s 			page 2


  41 0008 7BB1     		cbz	r3, .L4
  42 000a 202B     		cmp	r3, #32
  43 000c 12D1     		bne	.L6
  19:src/drivers/lis3mdl/lis3mdl.c ****   case LIS3MDL_FS_4Gauss:
  20:src/drivers/lis3mdl/lis3mdl.c ****     *sensitivity = 6842.0f;
  21:src/drivers/lis3mdl/lis3mdl.c ****     break;
  22:src/drivers/lis3mdl/lis3mdl.c ****   case LIS3MDL_FS_8Gauss:
  23:src/drivers/lis3mdl/lis3mdl.c ****     *sensitivity = 3421.0f;
  44              		.loc 1 23 5 is_stmt 1 view .LVU4
  45              		.loc 1 23 18 is_stmt 0 view .LVU5
  46 000e 0EA3     		adr	r3, .L8
  47 0010 D3E90023 		ldrd	r2, [r3]
  48 0014 C1E90023 		strd	r2, [r1]
  24:src/drivers/lis3mdl/lis3mdl.c ****     break;
  49              		.loc 1 24 5 is_stmt 1 view .LVU6
  50 0018 0CE0     		b	.L6
  51              	.L3:
  18:src/drivers/lis3mdl/lis3mdl.c ****   switch (device->full_scale) {
  52              		.loc 1 18 3 is_stmt 0 view .LVU7
  53 001a 602B     		cmp	r3, #96
  54 001c 0AD1     		bne	.L6
  25:src/drivers/lis3mdl/lis3mdl.c ****   case LIS3MDL_FS_12Gauss:
  26:src/drivers/lis3mdl/lis3mdl.c ****     *sensitivity = 2281.0f;
  27:src/drivers/lis3mdl/lis3mdl.c ****     break;
  28:src/drivers/lis3mdl/lis3mdl.c ****   case LIS3MDL_FS_16Gauss:
  29:src/drivers/lis3mdl/lis3mdl.c ****     *sensitivity = 1711.0f;
  55              		.loc 1 29 5 is_stmt 1 view .LVU8
  56              		.loc 1 29 18 is_stmt 0 view .LVU9
  57 001e 0CA3     		adr	r3, .L8+8
  58 0020 D3E90023 		ldrd	r2, [r3]
  59 0024 C1E90023 		strd	r2, [r1]
  30:src/drivers/lis3mdl/lis3mdl.c ****     break;
  60              		.loc 1 30 5 is_stmt 1 view .LVU10
  61 0028 04E0     		b	.L6
  62              	.L4:
  20:src/drivers/lis3mdl/lis3mdl.c ****     break;
  63              		.loc 1 20 5 view .LVU11
  20:src/drivers/lis3mdl/lis3mdl.c ****     break;
  64              		.loc 1 20 18 is_stmt 0 view .LVU12
  65 002a 0BA3     		adr	r3, .L8+16
  66 002c D3E90023 		ldrd	r2, [r3]
  67 0030 C1E90023 		strd	r2, [r1]
  21:src/drivers/lis3mdl/lis3mdl.c ****   case LIS3MDL_FS_8Gauss:
  68              		.loc 1 21 5 is_stmt 1 view .LVU13
  69              	.L6:
  31:src/drivers/lis3mdl/lis3mdl.c ****   }
  32:src/drivers/lis3mdl/lis3mdl.c **** 
  33:src/drivers/lis3mdl/lis3mdl.c ****   return LIS3MDL_ERR_OK;
  70              		.loc 1 33 3 view .LVU14
  34:src/drivers/lis3mdl/lis3mdl.c **** }
  71              		.loc 1 34 1 is_stmt 0 view .LVU15
  72 0034 0020     		movs	r0, #0
  73              	.LVL1:
  74              		.loc 1 34 1 view .LVU16
  75 0036 7047     		bx	lr
  76              	.LVL2:
  77              	.L2:
ARM GAS  /tmp/cciStdu2.s 			page 3


  26:src/drivers/lis3mdl/lis3mdl.c ****     break;
  78              		.loc 1 26 5 is_stmt 1 view .LVU17
  26:src/drivers/lis3mdl/lis3mdl.c ****     break;
  79              		.loc 1 26 18 is_stmt 0 view .LVU18
  80 0038 09A3     		adr	r3, .L8+24
  81 003a D3E90023 		ldrd	r2, [r3]
  82 003e C1E90023 		strd	r2, [r1]
  27:src/drivers/lis3mdl/lis3mdl.c ****   case LIS3MDL_FS_16Gauss:
  83              		.loc 1 27 5 is_stmt 1 view .LVU19
  84 0042 F7E7     		b	.L6
  85              	.L9:
  86 0044 AFF30080 		.align	3
  87              	.L8:
  88 0048 00000000 		.word	0
  89 004c 00BAAA40 		.word	1084930560
  90 0050 00000000 		.word	0
  91 0054 00BC9A40 		.word	1083882496
  92 0058 00000000 		.word	0
  93 005c 00BABA40 		.word	1085979136
  94 0060 00000000 		.word	0
  95 0064 00D2A140 		.word	1084346880
  96              		.cfi_endproc
  97              	.LFE4:
  99              		.section	.text.lis3mdl_write_byte,"ax",%progbits
 100              		.align	1
 101              		.weak	lis3mdl_write_byte
 102              		.syntax unified
 103              		.thumb
 104              		.thumb_func
 106              	lis3mdl_write_byte:
 107              	.LVL3:
 108              	.LFB7:
  35:src/drivers/lis3mdl/lis3mdl.c **** 
  36:src/drivers/lis3mdl/lis3mdl.c **** lis3mdl_err_t lis3mdl_read_mag(lis3mdl_device_t *device, double *mag_reading) {
  37:src/drivers/lis3mdl/lis3mdl.c ****   uint8_t mag_read_buf[6];
  38:src/drivers/lis3mdl/lis3mdl.c ****   double sensitivity = 0;
  39:src/drivers/lis3mdl/lis3mdl.c **** 
  40:src/drivers/lis3mdl/lis3mdl.c ****   lis3mdl_read_block(device, LIS3MDL_REG_OUT_X_L, 6, mag_read_buf);
  41:src/drivers/lis3mdl/lis3mdl.c **** 
  42:src/drivers/lis3mdl/lis3mdl.c ****   int16_t x_reading = (mag_read_buf[1] << 8) | mag_read_buf[0];
  43:src/drivers/lis3mdl/lis3mdl.c ****   int16_t y_reading = (mag_read_buf[3] << 8) | mag_read_buf[2];
  44:src/drivers/lis3mdl/lis3mdl.c ****   int16_t z_reading = (mag_read_buf[5] << 8) | mag_read_buf[4];
  45:src/drivers/lis3mdl/lis3mdl.c **** 
  46:src/drivers/lis3mdl/lis3mdl.c ****   lis3mdl_get_sensitivity(device, &sensitivity);
  47:src/drivers/lis3mdl/lis3mdl.c **** 
  48:src/drivers/lis3mdl/lis3mdl.c ****   mag_reading[0] = (double)x_reading / sensitivity;
  49:src/drivers/lis3mdl/lis3mdl.c ****   mag_reading[1] = (double)y_reading / sensitivity;
  50:src/drivers/lis3mdl/lis3mdl.c ****   mag_reading[2] = (double)z_reading / sensitivity;
  51:src/drivers/lis3mdl/lis3mdl.c **** 
  52:src/drivers/lis3mdl/lis3mdl.c ****   return LIS3MDL_ERR_OK;
  53:src/drivers/lis3mdl/lis3mdl.c **** }
  54:src/drivers/lis3mdl/lis3mdl.c **** 
  55:src/drivers/lis3mdl/lis3mdl.c **** lis3mdl_err_t lis3mdl_read_temp(lis3mdl_device_t *device, double *temp) {
  56:src/drivers/lis3mdl/lis3mdl.c ****   uint8_t temp_read_buf[2];
  57:src/drivers/lis3mdl/lis3mdl.c **** 
  58:src/drivers/lis3mdl/lis3mdl.c ****   lis3mdl_read_block(device, LIS3MDL_REG_TEMP_OUT_L, 2, temp_read_buf);
  59:src/drivers/lis3mdl/lis3mdl.c **** 
ARM GAS  /tmp/cciStdu2.s 			page 4


  60:src/drivers/lis3mdl/lis3mdl.c ****   int16_t temp_reading = (temp_read_buf[1] << 8) | temp_read_buf[0];
  61:src/drivers/lis3mdl/lis3mdl.c ****   *temp = (double)temp_reading / 8.0f + 25.0f;
  62:src/drivers/lis3mdl/lis3mdl.c **** 
  63:src/drivers/lis3mdl/lis3mdl.c ****   return LIS3MDL_ERR_OK;
  64:src/drivers/lis3mdl/lis3mdl.c **** }
  65:src/drivers/lis3mdl/lis3mdl.c **** 
  66:src/drivers/lis3mdl/lis3mdl.c **** __attribute__((weak)) lis3mdl_err_t lis3mdl_write_byte(lis3mdl_device_t *device,
  67:src/drivers/lis3mdl/lis3mdl.c ****                                                        uint8_t reg,
  68:src/drivers/lis3mdl/lis3mdl.c ****                                                        uint8_t data) {
 109              		.loc 1 68 70 view -0
 110              		.cfi_startproc
 111              		@ args = 0, pretend = 0, frame = 0
 112              		@ frame_needed = 0, uses_anonymous_args = 0
 113              		@ link register save eliminated.
  69:src/drivers/lis3mdl/lis3mdl.c ****   return LIS3MDL_ERR_OK;
 114              		.loc 1 69 3 view .LVU21
  70:src/drivers/lis3mdl/lis3mdl.c **** }
 115              		.loc 1 70 1 is_stmt 0 view .LVU22
 116 0000 0020     		movs	r0, #0
 117              	.LVL4:
 118              		.loc 1 70 1 view .LVU23
 119 0002 7047     		bx	lr
 120              		.cfi_endproc
 121              	.LFE7:
 123              		.section	.text.lis3mdl_initialize,"ax",%progbits
 124              		.align	1
 125              		.global	lis3mdl_initialize
 126              		.syntax unified
 127              		.thumb
 128              		.thumb_func
 130              	lis3mdl_initialize:
 131              	.LVL5:
 132              	.LFB3:
   3:src/drivers/lis3mdl/lis3mdl.c ****   lis3mdl_write_byte(device, LIS3MDL_REG_CTRL3, LIS3MDL_CONTINUOUS_CONVERSION);
 133              		.loc 1 3 60 is_stmt 1 view -0
 134              		.cfi_startproc
 135              		@ args = 0, pretend = 0, frame = 0
 136              		@ frame_needed = 0, uses_anonymous_args = 0
   3:src/drivers/lis3mdl/lis3mdl.c ****   lis3mdl_write_byte(device, LIS3MDL_REG_CTRL3, LIS3MDL_CONTINUOUS_CONVERSION);
 137              		.loc 1 3 60 is_stmt 0 view .LVU25
 138 0000 10B5     		push	{r4, lr}
 139              	.LCFI0:
 140              		.cfi_def_cfa_offset 8
 141              		.cfi_offset 4, -8
 142              		.cfi_offset 14, -4
 143 0002 0446     		mov	r4, r0
   4:src/drivers/lis3mdl/lis3mdl.c **** 
 144              		.loc 1 4 3 is_stmt 1 view .LVU26
 145 0004 0022     		movs	r2, #0
 146 0006 2221     		movs	r1, #34
 147 0008 FFF7FEFF 		bl	lis3mdl_write_byte
 148              	.LVL6:
   6:src/drivers/lis3mdl/lis3mdl.c ****       device->temp_enable | device->data_rate | device->self_test;
 149              		.loc 1 6 3 view .LVU27
   7:src/drivers/lis3mdl/lis3mdl.c ****   lis3mdl_write_byte(device, LIS3MDL_REG_CTRL1, ctrl_reg_1);
 150              		.loc 1 7 13 is_stmt 0 view .LVU28
 151 000c 2378     		ldrb	r3, [r4]	@ zero_extendqisi2
ARM GAS  /tmp/cciStdu2.s 			page 5


   7:src/drivers/lis3mdl/lis3mdl.c ****   lis3mdl_write_byte(device, LIS3MDL_REG_CTRL1, ctrl_reg_1);
 152              		.loc 1 7 35 view .LVU29
 153 000e 6178     		ldrb	r1, [r4, #1]	@ zero_extendqisi2
   7:src/drivers/lis3mdl/lis3mdl.c ****   lis3mdl_write_byte(device, LIS3MDL_REG_CTRL1, ctrl_reg_1);
 154              		.loc 1 7 55 view .LVU30
 155 0010 A278     		ldrb	r2, [r4, #2]	@ zero_extendqisi2
   6:src/drivers/lis3mdl/lis3mdl.c ****       device->temp_enable | device->data_rate | device->self_test;
 156              		.loc 1 6 11 view .LVU31
 157 0012 0B43     		orrs	r3, r3, r1
 158              	.LVL7:
   8:src/drivers/lis3mdl/lis3mdl.c **** 
 159              		.loc 1 8 3 is_stmt 1 view .LVU32
 160 0014 1A43     		orrs	r2, r2, r3
 161              	.LVL8:
   8:src/drivers/lis3mdl/lis3mdl.c **** 
 162              		.loc 1 8 3 is_stmt 0 view .LVU33
 163 0016 2021     		movs	r1, #32
 164 0018 2046     		mov	r0, r4
 165 001a FFF7FEFF 		bl	lis3mdl_write_byte
 166              	.LVL9:
  10:src/drivers/lis3mdl/lis3mdl.c ****   lis3mdl_write_byte(device, LIS3MDL_REG_CTRL2, ctrl_reg_2);
 167              		.loc 1 10 3 is_stmt 1 view .LVU34
  11:src/drivers/lis3mdl/lis3mdl.c **** 
 168              		.loc 1 11 3 view .LVU35
 169 001e E278     		ldrb	r2, [r4, #3]	@ zero_extendqisi2
 170 0020 2121     		movs	r1, #33
 171 0022 2046     		mov	r0, r4
 172 0024 FFF7FEFF 		bl	lis3mdl_write_byte
 173              	.LVL10:
  13:src/drivers/lis3mdl/lis3mdl.c **** }
 174              		.loc 1 13 3 view .LVU36
  14:src/drivers/lis3mdl/lis3mdl.c **** 
 175              		.loc 1 14 1 is_stmt 0 view .LVU37
 176 0028 0020     		movs	r0, #0
 177 002a 10BD     		pop	{r4, pc}
  14:src/drivers/lis3mdl/lis3mdl.c **** 
 178              		.loc 1 14 1 view .LVU38
 179              		.cfi_endproc
 180              	.LFE3:
 182              		.section	.text.lis3mdl_read_byte,"ax",%progbits
 183              		.align	1
 184              		.weak	lis3mdl_read_byte
 185              		.syntax unified
 186              		.thumb
 187              		.thumb_func
 189              	lis3mdl_read_byte:
 190              	.LVL11:
 191              	.LFB8:
  71:src/drivers/lis3mdl/lis3mdl.c **** 
  72:src/drivers/lis3mdl/lis3mdl.c **** __attribute__((weak)) lis3mdl_err_t lis3mdl_read_byte(lis3mdl_device_t *device,
  73:src/drivers/lis3mdl/lis3mdl.c ****                                                       uint8_t reg,
  74:src/drivers/lis3mdl/lis3mdl.c ****                                                       uint8_t *data) {
 192              		.loc 1 74 70 is_stmt 1 view -0
 193              		.cfi_startproc
 194              		@ args = 0, pretend = 0, frame = 0
 195              		@ frame_needed = 0, uses_anonymous_args = 0
 196              		@ link register save eliminated.
ARM GAS  /tmp/cciStdu2.s 			page 6


  75:src/drivers/lis3mdl/lis3mdl.c ****   return LIS3MDL_ERR_OK;
 197              		.loc 1 75 3 view .LVU40
  76:src/drivers/lis3mdl/lis3mdl.c **** }
 198              		.loc 1 76 1 is_stmt 0 view .LVU41
 199 0000 0020     		movs	r0, #0
 200              	.LVL12:
 201              		.loc 1 76 1 view .LVU42
 202 0002 7047     		bx	lr
 203              		.cfi_endproc
 204              	.LFE8:
 206              		.section	.text.lis3mdl_write_block,"ax",%progbits
 207              		.align	1
 208              		.weak	lis3mdl_write_block
 209              		.syntax unified
 210              		.thumb
 211              		.thumb_func
 213              	lis3mdl_write_block:
 214              	.LVL13:
 215              	.LFB9:
  77:src/drivers/lis3mdl/lis3mdl.c **** 
  78:src/drivers/lis3mdl/lis3mdl.c **** __attribute__((weak)) lis3mdl_err_t lis3mdl_write_block(
  79:src/drivers/lis3mdl/lis3mdl.c ****     lis3mdl_device_t *device, uint8_t start_reg, uint8_t bytes, uint8_t *data) {
 216              		.loc 1 79 80 is_stmt 1 view -0
 217              		.cfi_startproc
 218              		@ args = 0, pretend = 0, frame = 0
 219              		@ frame_needed = 0, uses_anonymous_args = 0
 220              		@ link register save eliminated.
  80:src/drivers/lis3mdl/lis3mdl.c ****   return LIS3MDL_ERR_OK;
 221              		.loc 1 80 3 view .LVU44
  81:src/drivers/lis3mdl/lis3mdl.c **** }
 222              		.loc 1 81 1 is_stmt 0 view .LVU45
 223 0000 0020     		movs	r0, #0
 224              	.LVL14:
 225              		.loc 1 81 1 view .LVU46
 226 0002 7047     		bx	lr
 227              		.cfi_endproc
 228              	.LFE9:
 230              		.section	.text.lis3mdl_read_block,"ax",%progbits
 231              		.align	1
 232              		.weak	lis3mdl_read_block
 233              		.syntax unified
 234              		.thumb
 235              		.thumb_func
 237              	lis3mdl_read_block:
 238              	.LVL15:
 239              	.LFB10:
  82:src/drivers/lis3mdl/lis3mdl.c **** 
  83:src/drivers/lis3mdl/lis3mdl.c **** __attribute__((weak)) lis3mdl_err_t lis3mdl_read_block(lis3mdl_device_t *device,
  84:src/drivers/lis3mdl/lis3mdl.c ****                                                        uint8_t start_reg,
  85:src/drivers/lis3mdl/lis3mdl.c ****                                                        uint8_t bytes,
  86:src/drivers/lis3mdl/lis3mdl.c ****                                                        uint8_t *data) {
 240              		.loc 1 86 71 is_stmt 1 view -0
 241              		.cfi_startproc
 242              		@ args = 0, pretend = 0, frame = 0
 243              		@ frame_needed = 0, uses_anonymous_args = 0
 244              		@ link register save eliminated.
  87:src/drivers/lis3mdl/lis3mdl.c ****   return LIS3MDL_ERR_OK;
ARM GAS  /tmp/cciStdu2.s 			page 7


 245              		.loc 1 87 3 view .LVU48
  88:src/drivers/lis3mdl/lis3mdl.c **** }...
 246              		.loc 1 88 1 is_stmt 0 view .LVU49
 247 0000 0020     		movs	r0, #0
 248              	.LVL16:
 249              		.loc 1 88 1 view .LVU50
 250 0002 7047     		bx	lr
 251              		.cfi_endproc
 252              	.LFE10:
 254              		.section	.text.lis3mdl_read_mag,"ax",%progbits
 255              		.align	1
 256              		.global	lis3mdl_read_mag
 257              		.syntax unified
 258              		.thumb
 259              		.thumb_func
 261              	lis3mdl_read_mag:
 262              	.LVL17:
 263              	.LFB5:
  36:src/drivers/lis3mdl/lis3mdl.c **** lis3mdl_err_t lis3mdl_read_mag(lis3mdl_device_t *device, double *mag_reading) {
 264              		.loc 1 36 79 is_stmt 1 view -0
 265              		.cfi_startproc
 266              		@ args = 0, pretend = 0, frame = 16
 267              		@ frame_needed = 0, uses_anonymous_args = 0
  36:src/drivers/lis3mdl/lis3mdl.c **** lis3mdl_err_t lis3mdl_read_mag(lis3mdl_device_t *device, double *mag_reading) {
 268              		.loc 1 36 79 is_stmt 0 view .LVU52
 269 0000 2DE9F041 		push	{r4, r5, r6, r7, r8, lr}
 270              	.LCFI1:
 271              		.cfi_def_cfa_offset 24
 272              		.cfi_offset 4, -24
 273              		.cfi_offset 5, -20
 274              		.cfi_offset 6, -16
 275              		.cfi_offset 7, -12
 276              		.cfi_offset 8, -8
 277              		.cfi_offset 14, -4
 278 0004 84B0     		sub	sp, sp, #16
 279              	.LCFI2:
 280              		.cfi_def_cfa_offset 40
 281 0006 0646     		mov	r6, r0
 282 0008 0D46     		mov	r5, r1
  37:src/drivers/lis3mdl/lis3mdl.c ****   uint8_t mag_read_buf[6];
 283              		.loc 1 37 3 is_stmt 1 view .LVU53
  38:src/drivers/lis3mdl/lis3mdl.c ****   double sensitivity = 0;
 284              		.loc 1 38 3 view .LVU54
  38:src/drivers/lis3mdl/lis3mdl.c ****   double sensitivity = 0;
 285              		.loc 1 38 10 is_stmt 0 view .LVU55
 286 000a 0022     		movs	r2, #0
 287 000c 0023     		movs	r3, #0
 288 000e CDE90023 		strd	r2, [sp]
  40:src/drivers/lis3mdl/lis3mdl.c ****   lis3mdl_read_block(device, LIS3MDL_REG_OUT_X_L, 6, mag_read_buf);
 289              		.loc 1 40 3 is_stmt 1 view .LVU56
 290 0012 02AB     		add	r3, sp, #8
 291 0014 0622     		movs	r2, #6
 292 0016 2821     		movs	r1, #40
 293              	.LVL18:
  40:src/drivers/lis3mdl/lis3mdl.c ****   lis3mdl_read_block(device, LIS3MDL_REG_OUT_X_L, 6, mag_read_buf);
 294              		.loc 1 40 3 is_stmt 0 view .LVU57
 295 0018 FFF7FEFF 		bl	lis3mdl_read_block
ARM GAS  /tmp/cciStdu2.s 			page 8


 296              	.LVL19:
  42:src/drivers/lis3mdl/lis3mdl.c ****   int16_t x_reading = (mag_read_buf[1] << 8) | mag_read_buf[0];
 297              		.loc 1 42 3 is_stmt 1 view .LVU58
  42:src/drivers/lis3mdl/lis3mdl.c ****   int16_t x_reading = (mag_read_buf[1] << 8) | mag_read_buf[0];
 298              		.loc 1 42 36 is_stmt 0 view .LVU59
 299 001c 9DF80930 		ldrb	r3, [sp, #9]	@ zero_extendqisi2
  42:src/drivers/lis3mdl/lis3mdl.c ****   int16_t x_reading = (mag_read_buf[1] << 8) | mag_read_buf[0];
 300              		.loc 1 42 40 view .LVU60
 301 0020 1B02     		lsls	r3, r3, #8
  42:src/drivers/lis3mdl/lis3mdl.c ****   int16_t x_reading = (mag_read_buf[1] << 8) | mag_read_buf[0];
 302              		.loc 1 42 46 view .LVU61
 303 0022 1BB2     		sxth	r3, r3
  42:src/drivers/lis3mdl/lis3mdl.c ****   int16_t x_reading = (mag_read_buf[1] << 8) | mag_read_buf[0];
 304              		.loc 1 42 60 view .LVU62
 305 0024 9DF80820 		ldrb	r2, [sp, #8]	@ zero_extendqisi2
  42:src/drivers/lis3mdl/lis3mdl.c ****   int16_t x_reading = (mag_read_buf[1] << 8) | mag_read_buf[0];
 306              		.loc 1 42 11 view .LVU63
 307 0028 43EA0208 		orr	r8, r3, r2
 308              	.LVL20:
  43:src/drivers/lis3mdl/lis3mdl.c ****   int16_t y_reading = (mag_read_buf[3] << 8) | mag_read_buf[2];
 309              		.loc 1 43 3 is_stmt 1 view .LVU64
  43:src/drivers/lis3mdl/lis3mdl.c ****   int16_t y_reading = (mag_read_buf[3] << 8) | mag_read_buf[2];
 310              		.loc 1 43 36 is_stmt 0 view .LVU65
 311 002c 9DF80B30 		ldrb	r3, [sp, #11]	@ zero_extendqisi2
  43:src/drivers/lis3mdl/lis3mdl.c ****   int16_t y_reading = (mag_read_buf[3] << 8) | mag_read_buf[2];
 312              		.loc 1 43 40 view .LVU66
 313 0030 1B02     		lsls	r3, r3, #8
  43:src/drivers/lis3mdl/lis3mdl.c ****   int16_t y_reading = (mag_read_buf[3] << 8) | mag_read_buf[2];
 314              		.loc 1 43 46 view .LVU67
 315 0032 1BB2     		sxth	r3, r3
  43:src/drivers/lis3mdl/lis3mdl.c ****   int16_t y_reading = (mag_read_buf[3] << 8) | mag_read_buf[2];
 316              		.loc 1 43 60 view .LVU68
 317 0034 9DF80A20 		ldrb	r2, [sp, #10]	@ zero_extendqisi2
  43:src/drivers/lis3mdl/lis3mdl.c ****   int16_t y_reading = (mag_read_buf[3] << 8) | mag_read_buf[2];
 318              		.loc 1 43 11 view .LVU69
 319 0038 43EA0207 		orr	r7, r3, r2
 320              	.LVL21:
  44:src/drivers/lis3mdl/lis3mdl.c ****   int16_t z_reading = (mag_read_buf[5] << 8) | mag_read_buf[4];
 321              		.loc 1 44 3 is_stmt 1 view .LVU70
  44:src/drivers/lis3mdl/lis3mdl.c ****   int16_t z_reading = (mag_read_buf[5] << 8) | mag_read_buf[4];
 322              		.loc 1 44 36 is_stmt 0 view .LVU71
 323 003c 9DF80D30 		ldrb	r3, [sp, #13]	@ zero_extendqisi2
  44:src/drivers/lis3mdl/lis3mdl.c ****   int16_t z_reading = (mag_read_buf[5] << 8) | mag_read_buf[4];
 324              		.loc 1 44 40 view .LVU72
 325 0040 1B02     		lsls	r3, r3, #8
  44:src/drivers/lis3mdl/lis3mdl.c ****   int16_t z_reading = (mag_read_buf[5] << 8) | mag_read_buf[4];
 326              		.loc 1 44 46 view .LVU73
 327 0042 1BB2     		sxth	r3, r3
  44:src/drivers/lis3mdl/lis3mdl.c ****   int16_t z_reading = (mag_read_buf[5] << 8) | mag_read_buf[4];
 328              		.loc 1 44 60 view .LVU74
 329 0044 9DF80C20 		ldrb	r2, [sp, #12]	@ zero_extendqisi2
  44:src/drivers/lis3mdl/lis3mdl.c ****   int16_t z_reading = (mag_read_buf[5] << 8) | mag_read_buf[4];
 330              		.loc 1 44 11 view .LVU75
 331 0048 43EA0204 		orr	r4, r3, r2
 332              	.LVL22:
  46:src/drivers/lis3mdl/lis3mdl.c ****   lis3mdl_get_sensitivity(device, &sensitivity);
 333              		.loc 1 46 3 is_stmt 1 view .LVU76
ARM GAS  /tmp/cciStdu2.s 			page 9


 334 004c 6946     		mov	r1, sp
 335 004e 3046     		mov	r0, r6
 336 0050 FFF7FEFF 		bl	lis3mdl_get_sensitivity
 337              	.LVL23:
  48:src/drivers/lis3mdl/lis3mdl.c ****   mag_reading[0] = (double)x_reading / sensitivity;
 338              		.loc 1 48 3 view .LVU77
  48:src/drivers/lis3mdl/lis3mdl.c ****   mag_reading[0] = (double)x_reading / sensitivity;
 339              		.loc 1 48 20 is_stmt 0 view .LVU78
 340 0054 07EE908A 		vmov	s15, r8	@ int
 341 0058 B8EEE77B 		vcvt.f64.s32	d7, s15
  48:src/drivers/lis3mdl/lis3mdl.c ****   mag_reading[0] = (double)x_reading / sensitivity;
 342              		.loc 1 48 38 view .LVU79
 343 005c 9DED006B 		vldr.64	d6, [sp]
 344 0060 87EE065B 		vdiv.f64	d5, d7, d6
  48:src/drivers/lis3mdl/lis3mdl.c ****   mag_reading[0] = (double)x_reading / sensitivity;
 345              		.loc 1 48 18 view .LVU80
 346 0064 85ED005B 		vstr.64	d5, [r5]
  49:src/drivers/lis3mdl/lis3mdl.c ****   mag_reading[1] = (double)y_reading / sensitivity;
 347              		.loc 1 49 3 is_stmt 1 view .LVU81
  49:src/drivers/lis3mdl/lis3mdl.c ****   mag_reading[1] = (double)y_reading / sensitivity;
 348              		.loc 1 49 20 is_stmt 0 view .LVU82
 349 0068 07EE907A 		vmov	s15, r7	@ int
 350 006c B8EEE77B 		vcvt.f64.s32	d7, s15
  49:src/drivers/lis3mdl/lis3mdl.c ****   mag_reading[1] = (double)y_reading / sensitivity;
 351              		.loc 1 49 38 view .LVU83
 352 0070 87EE065B 		vdiv.f64	d5, d7, d6
  49:src/drivers/lis3mdl/lis3mdl.c ****   mag_reading[1] = (double)y_reading / sensitivity;
 353              		.loc 1 49 18 view .LVU84
 354 0074 85ED025B 		vstr.64	d5, [r5, #8]
  50:src/drivers/lis3mdl/lis3mdl.c ****   mag_reading[2] = (double)z_reading / sensitivity;
 355              		.loc 1 50 3 is_stmt 1 view .LVU85
  50:src/drivers/lis3mdl/lis3mdl.c ****   mag_reading[2] = (double)z_reading / sensitivity;
 356              		.loc 1 50 20 is_stmt 0 view .LVU86
 357 0078 07EE904A 		vmov	s15, r4	@ int
 358 007c B8EEE77B 		vcvt.f64.s32	d7, s15
  50:src/drivers/lis3mdl/lis3mdl.c ****   mag_reading[2] = (double)z_reading / sensitivity;
 359              		.loc 1 50 38 view .LVU87
 360 0080 87EE065B 		vdiv.f64	d5, d7, d6
  50:src/drivers/lis3mdl/lis3mdl.c ****   mag_reading[2] = (double)z_reading / sensitivity;
 361              		.loc 1 50 18 view .LVU88
 362 0084 85ED045B 		vstr.64	d5, [r5, #16]
  52:src/drivers/lis3mdl/lis3mdl.c ****   return LIS3MDL_ERR_OK;
 363              		.loc 1 52 3 is_stmt 1 view .LVU89
  53:src/drivers/lis3mdl/lis3mdl.c **** }
 364              		.loc 1 53 1 is_stmt 0 view .LVU90
 365 0088 0020     		movs	r0, #0
 366 008a 04B0     		add	sp, sp, #16
 367              	.LCFI3:
 368              		.cfi_def_cfa_offset 24
 369              		@ sp needed
 370 008c BDE8F081 		pop	{r4, r5, r6, r7, r8, pc}
  53:src/drivers/lis3mdl/lis3mdl.c **** }
 371              		.loc 1 53 1 view .LVU91
 372              		.cfi_endproc
 373              	.LFE5:
 375              		.section	.text.lis3mdl_read_temp,"ax",%progbits
 376              		.align	1
ARM GAS  /tmp/cciStdu2.s 			page 10


 377              		.global	lis3mdl_read_temp
 378              		.syntax unified
 379              		.thumb
 380              		.thumb_func
 382              	lis3mdl_read_temp:
 383              	.LVL24:
 384              	.LFB6:
  55:src/drivers/lis3mdl/lis3mdl.c **** lis3mdl_err_t lis3mdl_read_temp(lis3mdl_device_t *device, double *temp) {
 385              		.loc 1 55 73 is_stmt 1 view -0
 386              		.cfi_startproc
 387              		@ args = 0, pretend = 0, frame = 8
 388              		@ frame_needed = 0, uses_anonymous_args = 0
  55:src/drivers/lis3mdl/lis3mdl.c **** lis3mdl_err_t lis3mdl_read_temp(lis3mdl_device_t *device, double *temp) {
 389              		.loc 1 55 73 is_stmt 0 view .LVU93
 390 0000 10B5     		push	{r4, lr}
 391              	.LCFI4:
 392              		.cfi_def_cfa_offset 8
 393              		.cfi_offset 4, -8
 394              		.cfi_offset 14, -4
 395 0002 82B0     		sub	sp, sp, #8
 396              	.LCFI5:
 397              		.cfi_def_cfa_offset 16
 398 0004 0C46     		mov	r4, r1
  56:src/drivers/lis3mdl/lis3mdl.c ****   uint8_t temp_read_buf[2];
 399              		.loc 1 56 3 is_stmt 1 view .LVU94
  58:src/drivers/lis3mdl/lis3mdl.c ****   lis3mdl_read_block(device, LIS3MDL_REG_TEMP_OUT_L, 2, temp_read_buf);
 400              		.loc 1 58 3 view .LVU95
 401 0006 01AB     		add	r3, sp, #4
 402 0008 0222     		movs	r2, #2
 403 000a 2E21     		movs	r1, #46
 404              	.LVL25:
  58:src/drivers/lis3mdl/lis3mdl.c ****   lis3mdl_read_block(device, LIS3MDL_REG_TEMP_OUT_L, 2, temp_read_buf);
 405              		.loc 1 58 3 is_stmt 0 view .LVU96
 406 000c FFF7FEFF 		bl	lis3mdl_read_block
 407              	.LVL26:
  60:src/drivers/lis3mdl/lis3mdl.c ****   int16_t temp_reading = (temp_read_buf[1] << 8) | temp_read_buf[0];
 408              		.loc 1 60 3 is_stmt 1 view .LVU97
  60:src/drivers/lis3mdl/lis3mdl.c ****   int16_t temp_reading = (temp_read_buf[1] << 8) | temp_read_buf[0];
 409              		.loc 1 60 40 is_stmt 0 view .LVU98
 410 0010 9DF80530 		ldrb	r3, [sp, #5]	@ zero_extendqisi2
  60:src/drivers/lis3mdl/lis3mdl.c ****   int16_t temp_reading = (temp_read_buf[1] << 8) | temp_read_buf[0];
 411              		.loc 1 60 44 view .LVU99
 412 0014 1B02     		lsls	r3, r3, #8
  60:src/drivers/lis3mdl/lis3mdl.c ****   int16_t temp_reading = (temp_read_buf[1] << 8) | temp_read_buf[0];
 413              		.loc 1 60 50 view .LVU100
 414 0016 1BB2     		sxth	r3, r3
  60:src/drivers/lis3mdl/lis3mdl.c ****   int16_t temp_reading = (temp_read_buf[1] << 8) | temp_read_buf[0];
 415              		.loc 1 60 65 view .LVU101
 416 0018 9DF80420 		ldrb	r2, [sp, #4]	@ zero_extendqisi2
  60:src/drivers/lis3mdl/lis3mdl.c ****   int16_t temp_reading = (temp_read_buf[1] << 8) | temp_read_buf[0];
 417              		.loc 1 60 11 view .LVU102
 418 001c 1343     		orrs	r3, r3, r2
 419              	.LVL27:
  61:src/drivers/lis3mdl/lis3mdl.c ****   *temp = (double)temp_reading / 8.0f + 25.0f;
 420              		.loc 1 61 3 is_stmt 1 view .LVU103
  61:src/drivers/lis3mdl/lis3mdl.c ****   *temp = (double)temp_reading / 8.0f + 25.0f;
 421              		.loc 1 61 11 is_stmt 0 view .LVU104
ARM GAS  /tmp/cciStdu2.s 			page 11


 422 001e 07EE903A 		vmov	s15, r3	@ int
 423 0022 B8EEE77B 		vcvt.f64.s32	d7, s15
  61:src/drivers/lis3mdl/lis3mdl.c ****   *temp = (double)temp_reading / 8.0f + 25.0f;
 424              		.loc 1 61 39 view .LVU105
 425 0026 B4EE005B 		vmov.f64	d5, #1.25e-1
 426 002a B3EE096B 		vmov.f64	d6, #2.5e+1
 427 002e 07EE056B 		vmla.f64	d6, d7, d5
  61:src/drivers/lis3mdl/lis3mdl.c ****   *temp = (double)temp_reading / 8.0f + 25.0f;
 428              		.loc 1 61 9 view .LVU106
 429 0032 84ED006B 		vstr.64	d6, [r4]
  63:src/drivers/lis3mdl/lis3mdl.c ****   return LIS3MDL_ERR_OK;
 430              		.loc 1 63 3 is_stmt 1 view .LVU107
  64:src/drivers/lis3mdl/lis3mdl.c **** }
 431              		.loc 1 64 1 is_stmt 0 view .LVU108
 432 0036 0020     		movs	r0, #0
 433 0038 02B0     		add	sp, sp, #8
 434              	.LCFI6:
 435              		.cfi_def_cfa_offset 8
 436              		@ sp needed
 437 003a 10BD     		pop	{r4, pc}
  64:src/drivers/lis3mdl/lis3mdl.c **** }
 438              		.loc 1 64 1 view .LVU109
 439              		.cfi_endproc
 440              	.LFE6:
 442              		.text
 443              	.Letext0:
 444              		.file 2 "/usr/lib/gcc/arm-none-eabi/12.2.1/include/stdint.h"
 445              		.file 3 "src/drivers/lis3mdl/lis3mdl.h"
ARM GAS  /tmp/cciStdu2.s 			page 12

