ARM GAS  /tmp/ccFYrYca.s 			page 1


   1              		.cpu cortex-m7
   2              		.arch armv7e-m
   3              		.fpu fpv5-d16
   4              		.eabi_attribute 28, 1
   5              		.eabi_attribute 20, 1
   6              		.eabi_attribute 21, 1
   7              		.eabi_attribute 23, 3
   8              		.eabi_attribute 24, 1
   9              		.eabi_attribute 25, 1
  10              		.eabi_attribute 26, 1
  11              		.eabi_attribute 30, 1
  12              		.eabi_attribute 34, 1
  13              		.eabi_attribute 18, 4
  14              		.file	"ring_buffer.c"
  15              		.text
  16              	.Ltext0:
  17              		.cfi_sections	.debug_frame
  18              		.file 1 "src/ring_buffer/ring_buffer.c"
  19              		.section	.text.ring_buffer_init,"ax",%progbits
  20              		.align	1
  21              		.global	ring_buffer_init
  22              		.syntax unified
  23              		.thumb
  24              		.thumb_func
  26              	ring_buffer_init:
  27              	.LVL0:
  28              	.LFB0:
   1:src/ring_buffer/ring_buffer.c **** #include "ring_buffer.h"
   2:src/ring_buffer/ring_buffer.c **** 
   3:src/ring_buffer/ring_buffer.c **** #include <string.h>
   4:src/ring_buffer/ring_buffer.c **** 
   5:src/ring_buffer/ring_buffer.c **** #define BUF_IS_VALID(b) ((b) != NULL && (b)->buf != NULL && (b)->size > 0)
   6:src/ring_buffer/ring_buffer.c **** #define BUF_MIN(x, y)   ((x) < (y) ? (x) : (y))
   7:src/ring_buffer/ring_buffer.c **** 
   8:src/ring_buffer/ring_buffer.c **** uint8_t ring_buffer_init(struct ring_buffer *ring_buffer, void *data_buffer,
   9:src/ring_buffer/ring_buffer.c ****                       uint32_t len) {
  29              		.loc 1 9 37 view -0
  30              		.cfi_startproc
  31              		@ args = 0, pretend = 0, frame = 0
  32              		@ frame_needed = 0, uses_anonymous_args = 0
  33              		@ link register save eliminated.
  10:src/ring_buffer/ring_buffer.c ****   if (ring_buffer == NULL || data_buffer == NULL || len == 0) {
  34              		.loc 1 10 3 view .LVU1
  35              		.loc 1 10 6 is_stmt 0 view .LVU2
  36 0000 0029     		cmp	r1, #0
  37 0002 18BF     		it	ne
  38 0004 0028     		cmpne	r0, #0
  39 0006 0BD0     		beq	.L3
   9:src/ring_buffer/ring_buffer.c ****   if (ring_buffer == NULL || data_buffer == NULL || len == 0) {
  40              		.loc 1 9 37 discriminator 1 view .LVU3
  41 0008 10B4     		push	{r4}
  42              	.LCFI0:
  43              		.cfi_def_cfa_offset 4
  44              		.cfi_offset 4, -4
  45 000a 0346     		mov	r3, r0
  46              		.loc 1 10 50 discriminator 1 view .LVU4
  47 000c 52B1     		cbz	r2, .L4
ARM GAS  /tmp/ccFYrYca.s 			page 2


  11:src/ring_buffer/ring_buffer.c ****     return 0;
  12:src/ring_buffer/ring_buffer.c ****   }
  13:src/ring_buffer/ring_buffer.c **** 
  14:src/ring_buffer/ring_buffer.c ****   ring_buffer->size = len;
  48              		.loc 1 14 3 is_stmt 1 view .LVU5
  49              		.loc 1 14 21 is_stmt 0 view .LVU6
  50 000e 4260     		str	r2, [r0, #4]
  15:src/ring_buffer/ring_buffer.c ****   ring_buffer->buf = data_buffer;
  51              		.loc 1 15 3 is_stmt 1 view .LVU7
  52              		.loc 1 15 20 is_stmt 0 view .LVU8
  53 0010 1960     		str	r1, [r3]
  16:src/ring_buffer/ring_buffer.c ****   ring_buffer->w_ptr = 0;
  54              		.loc 1 16 3 is_stmt 1 view .LVU9
  55              		.loc 1 16 22 is_stmt 0 view .LVU10
  56 0012 0022     		movs	r2, #0
  57              	.LVL1:
  58              		.loc 1 16 22 view .LVU11
  59 0014 8260     		str	r2, [r0, #8]
  17:src/ring_buffer/ring_buffer.c ****   ring_buffer->r_ptr = 0;
  60              		.loc 1 17 3 is_stmt 1 view .LVU12
  61              		.loc 1 17 22 is_stmt 0 view .LVU13
  62 0016 C260     		str	r2, [r0, #12]
  18:src/ring_buffer/ring_buffer.c **** 
  19:src/ring_buffer/ring_buffer.c ****   return 1;
  63              		.loc 1 19 3 is_stmt 1 view .LVU14
  64              		.loc 1 19 10 is_stmt 0 view .LVU15
  65 0018 0120     		movs	r0, #1
  66              	.LVL2:
  67              	.L2:
  20:src/ring_buffer/ring_buffer.c **** }
  68              		.loc 1 20 1 view .LVU16
  69 001a 5DF8044B 		ldr	r4, [sp], #4
  70              	.LCFI1:
  71              		.cfi_restore 4
  72              		.cfi_def_cfa_offset 0
  73 001e 7047     		bx	lr
  74              	.LVL3:
  75              	.L3:
  11:src/ring_buffer/ring_buffer.c ****   }
  76              		.loc 1 11 12 view .LVU17
  77 0020 0020     		movs	r0, #0
  78              	.LVL4:
  79              		.loc 1 20 1 view .LVU18
  80 0022 7047     		bx	lr
  81              	.LVL5:
  82              	.L4:
  83              	.LCFI2:
  84              		.cfi_def_cfa_offset 4
  85              		.cfi_offset 4, -4
  11:src/ring_buffer/ring_buffer.c ****   }
  86              		.loc 1 11 12 view .LVU19
  87 0024 0020     		movs	r0, #0
  88              	.LVL6:
  11:src/ring_buffer/ring_buffer.c ****   }
  89              		.loc 1 11 12 view .LVU20
  90 0026 F8E7     		b	.L2
  91              		.cfi_endproc
ARM GAS  /tmp/ccFYrYca.s 			page 3


  92              	.LFE0:
  94              		.section	.text.ring_buffer_get_free,"ax",%progbits
  95              		.align	1
  96              		.global	ring_buffer_get_free
  97              		.syntax unified
  98              		.thumb
  99              		.thumb_func
 101              	ring_buffer_get_free:
 102              	.LVL7:
 103              	.LFB4:
  21:src/ring_buffer/ring_buffer.c **** 
  22:src/ring_buffer/ring_buffer.c **** uint32_t ring_buffer_write(struct ring_buffer *ring_buffer, void *data,
  23:src/ring_buffer/ring_buffer.c ****                        uint32_t len) {
  24:src/ring_buffer/ring_buffer.c ****   uint32_t to_copy = 0;
  25:src/ring_buffer/ring_buffer.c ****   uint32_t free = 0;
  26:src/ring_buffer/ring_buffer.c ****   uint32_t w_ptr = 0;
  27:src/ring_buffer/ring_buffer.c ****   const uint8_t *d_ptr = (uint8_t *) data;
  28:src/ring_buffer/ring_buffer.c **** 
  29:src/ring_buffer/ring_buffer.c ****   if (!BUF_IS_VALID(ring_buffer) || data == NULL || len == 0) {
  30:src/ring_buffer/ring_buffer.c ****     return 0;
  31:src/ring_buffer/ring_buffer.c ****   }
  32:src/ring_buffer/ring_buffer.c **** 
  33:src/ring_buffer/ring_buffer.c ****   free = ring_buffer_get_free(ring_buffer);
  34:src/ring_buffer/ring_buffer.c **** 
  35:src/ring_buffer/ring_buffer.c ****   if ((free == 0) || (free < len)) {
  36:src/ring_buffer/ring_buffer.c ****     return 0;
  37:src/ring_buffer/ring_buffer.c ****   }
  38:src/ring_buffer/ring_buffer.c **** 
  39:src/ring_buffer/ring_buffer.c ****   len = BUF_MIN(free, len);
  40:src/ring_buffer/ring_buffer.c ****   w_ptr = ring_buffer->w_ptr;
  41:src/ring_buffer/ring_buffer.c **** 
  42:src/ring_buffer/ring_buffer.c ****   to_copy = BUF_MIN(ring_buffer->size - w_ptr, len);
  43:src/ring_buffer/ring_buffer.c ****   memcpy(&ring_buffer->buf[w_ptr], d_ptr, to_copy);
  44:src/ring_buffer/ring_buffer.c ****   d_ptr += to_copy;
  45:src/ring_buffer/ring_buffer.c ****   w_ptr += to_copy;
  46:src/ring_buffer/ring_buffer.c ****   len -= to_copy;
  47:src/ring_buffer/ring_buffer.c **** 
  48:src/ring_buffer/ring_buffer.c ****   if (len > 0) {
  49:src/ring_buffer/ring_buffer.c ****     memcpy(ring_buffer->buf, d_ptr, len);
  50:src/ring_buffer/ring_buffer.c ****     w_ptr = len;
  51:src/ring_buffer/ring_buffer.c ****   }
  52:src/ring_buffer/ring_buffer.c **** 
  53:src/ring_buffer/ring_buffer.c ****   if (w_ptr >= ring_buffer->size) {
  54:src/ring_buffer/ring_buffer.c ****     w_ptr = 0;
  55:src/ring_buffer/ring_buffer.c ****   }
  56:src/ring_buffer/ring_buffer.c **** 
  57:src/ring_buffer/ring_buffer.c ****   ring_buffer->w_ptr = w_ptr;
  58:src/ring_buffer/ring_buffer.c **** 
  59:src/ring_buffer/ring_buffer.c ****   return to_copy + len;
  60:src/ring_buffer/ring_buffer.c **** }
  61:src/ring_buffer/ring_buffer.c **** 
  62:src/ring_buffer/ring_buffer.c **** uint32_t ring_buffer_read(struct ring_buffer *ring_buffer, void *data,
  63:src/ring_buffer/ring_buffer.c ****                           uint32_t len) {
  64:src/ring_buffer/ring_buffer.c ****   uint32_t to_copy = 0;
  65:src/ring_buffer/ring_buffer.c ****   uint32_t full = 0;
  66:src/ring_buffer/ring_buffer.c ****   uint32_t r_ptr = 0;
  67:src/ring_buffer/ring_buffer.c ****   uint8_t *d_ptr = (uint8_t *) data;
ARM GAS  /tmp/ccFYrYca.s 			page 4


  68:src/ring_buffer/ring_buffer.c **** 
  69:src/ring_buffer/ring_buffer.c ****   if (!BUF_IS_VALID(ring_buffer) || data == NULL || len == 0) {
  70:src/ring_buffer/ring_buffer.c ****     return 0;
  71:src/ring_buffer/ring_buffer.c ****   }
  72:src/ring_buffer/ring_buffer.c **** 
  73:src/ring_buffer/ring_buffer.c ****   full = ring_buffer_get_full(ring_buffer);
  74:src/ring_buffer/ring_buffer.c ****   if ((full == 0) || (full < len)) {
  75:src/ring_buffer/ring_buffer.c ****     return 0;
  76:src/ring_buffer/ring_buffer.c ****   }
  77:src/ring_buffer/ring_buffer.c **** 
  78:src/ring_buffer/ring_buffer.c ****   len = BUF_MIN(full, len);
  79:src/ring_buffer/ring_buffer.c ****   r_ptr = ring_buffer->r_ptr;
  80:src/ring_buffer/ring_buffer.c **** 
  81:src/ring_buffer/ring_buffer.c ****   to_copy = BUF_MIN(ring_buffer->size - r_ptr, len);
  82:src/ring_buffer/ring_buffer.c ****   memcpy(d_ptr, &ring_buffer->buf[r_ptr], to_copy);
  83:src/ring_buffer/ring_buffer.c ****   d_ptr += to_copy;
  84:src/ring_buffer/ring_buffer.c ****   r_ptr += to_copy;
  85:src/ring_buffer/ring_buffer.c ****   len -= to_copy;
  86:src/ring_buffer/ring_buffer.c **** 
  87:src/ring_buffer/ring_buffer.c ****   if (len > 0) {
  88:src/ring_buffer/ring_buffer.c ****     memcpy(d_ptr, ring_buffer->buf, len);
  89:src/ring_buffer/ring_buffer.c ****     r_ptr = len;
  90:src/ring_buffer/ring_buffer.c ****   }
  91:src/ring_buffer/ring_buffer.c **** 
  92:src/ring_buffer/ring_buffer.c ****   if (r_ptr >= ring_buffer->size) {
  93:src/ring_buffer/ring_buffer.c ****     r_ptr = 0;
  94:src/ring_buffer/ring_buffer.c ****   }
  95:src/ring_buffer/ring_buffer.c **** 
  96:src/ring_buffer/ring_buffer.c ****   ring_buffer->r_ptr = r_ptr;
  97:src/ring_buffer/ring_buffer.c **** 
  98:src/ring_buffer/ring_buffer.c ****   return to_copy + len;
  99:src/ring_buffer/ring_buffer.c **** }
 100:src/ring_buffer/ring_buffer.c **** 
 101:src/ring_buffer/ring_buffer.c **** uint32_t ring_buffer_peek(const struct ring_buffer *ring_buffer,
 102:src/ring_buffer/ring_buffer.c ****                           uint32_t skip, void *data, uint32_t len) {
 103:src/ring_buffer/ring_buffer.c ****   uint32_t full = 0;
 104:src/ring_buffer/ring_buffer.c ****   uint32_t to_copy = 0;
 105:src/ring_buffer/ring_buffer.c ****   uint32_t r_ptr = 0;
 106:src/ring_buffer/ring_buffer.c ****   uint8_t* d_ptr = (uint8_t *) data;
 107:src/ring_buffer/ring_buffer.c **** 
 108:src/ring_buffer/ring_buffer.c ****   if (!BUF_IS_VALID(ring_buffer) || data == NULL || len == 0) {
 109:src/ring_buffer/ring_buffer.c ****     return 0;
 110:src/ring_buffer/ring_buffer.c ****   }
 111:src/ring_buffer/ring_buffer.c **** 
 112:src/ring_buffer/ring_buffer.c ****   full = ring_buffer_get_full(ring_buffer);
 113:src/ring_buffer/ring_buffer.c ****   if (skip >= full) {
 114:src/ring_buffer/ring_buffer.c ****     return 0;
 115:src/ring_buffer/ring_buffer.c ****   }
 116:src/ring_buffer/ring_buffer.c **** 
 117:src/ring_buffer/ring_buffer.c ****   r_ptr = ring_buffer->r_ptr;
 118:src/ring_buffer/ring_buffer.c ****   r_ptr += skip;
 119:src/ring_buffer/ring_buffer.c ****   full -= skip;
 120:src/ring_buffer/ring_buffer.c ****   if (r_ptr >= ring_buffer->size) {
 121:src/ring_buffer/ring_buffer.c ****     r_ptr -= ring_buffer->size;
 122:src/ring_buffer/ring_buffer.c ****   }
 123:src/ring_buffer/ring_buffer.c **** 
 124:src/ring_buffer/ring_buffer.c ****   len = BUF_MIN(full, len);
ARM GAS  /tmp/ccFYrYca.s 			page 5


 125:src/ring_buffer/ring_buffer.c ****   if (len == 0) {
 126:src/ring_buffer/ring_buffer.c ****     return 0;
 127:src/ring_buffer/ring_buffer.c ****   }
 128:src/ring_buffer/ring_buffer.c **** 
 129:src/ring_buffer/ring_buffer.c ****   to_copy = BUF_MIN(ring_buffer->size - r_ptr, len);
 130:src/ring_buffer/ring_buffer.c ****   memcpy(d_ptr, &ring_buffer->buf[r_ptr], to_copy);
 131:src/ring_buffer/ring_buffer.c ****   d_ptr += to_copy;
 132:src/ring_buffer/ring_buffer.c ****   len -= to_copy;
 133:src/ring_buffer/ring_buffer.c **** 
 134:src/ring_buffer/ring_buffer.c ****   if (len > 0) {
 135:src/ring_buffer/ring_buffer.c ****     memcpy(d_ptr, ring_buffer->buf, len);
 136:src/ring_buffer/ring_buffer.c ****   }
 137:src/ring_buffer/ring_buffer.c **** 
 138:src/ring_buffer/ring_buffer.c ****   return to_copy + len;
 139:src/ring_buffer/ring_buffer.c **** }
 140:src/ring_buffer/ring_buffer.c **** 
 141:src/ring_buffer/ring_buffer.c **** uint32_t ring_buffer_get_free(const struct ring_buffer *ring_buffer) {
 104              		.loc 1 141 70 is_stmt 1 view -0
 105              		.cfi_startproc
 106              		@ args = 0, pretend = 0, frame = 0
 107              		@ frame_needed = 0, uses_anonymous_args = 0
 108              		@ link register save eliminated.
 142:src/ring_buffer/ring_buffer.c ****   uint32_t size = 0;
 109              		.loc 1 142 3 view .LVU22
 143:src/ring_buffer/ring_buffer.c ****   uint32_t w_ptr = 0;
 110              		.loc 1 143 3 view .LVU23
 144:src/ring_buffer/ring_buffer.c ****   uint32_t r_ptr = 0;
 111              		.loc 1 144 3 view .LVU24
 145:src/ring_buffer/ring_buffer.c **** 
 146:src/ring_buffer/ring_buffer.c ****   if (!BUF_IS_VALID(ring_buffer)) {
 112              		.loc 1 146 3 view .LVU25
 113              		.loc 1 146 6 is_stmt 0 view .LVU26
 114 0000 0346     		mov	r3, r0
 115 0002 68B1     		cbz	r0, .L13
 116              		.loc 1 146 8 discriminator 1 view .LVU27
 117 0004 0268     		ldr	r2, [r0]
 118 0006 6AB1     		cbz	r2, .L14
 119              		.loc 1 146 8 discriminator 2 view .LVU28
 120 0008 4068     		ldr	r0, [r0, #4]
 121              	.LVL8:
 122              		.loc 1 146 7 discriminator 2 view .LVU29
 123 000a 60B1     		cbz	r0, .L9
 147:src/ring_buffer/ring_buffer.c ****     return 0;
 148:src/ring_buffer/ring_buffer.c ****   }
 149:src/ring_buffer/ring_buffer.c **** 
 150:src/ring_buffer/ring_buffer.c ****   w_ptr = ring_buffer->w_ptr;
 124              		.loc 1 150 3 is_stmt 1 view .LVU30
 125              		.loc 1 150 9 is_stmt 0 view .LVU31
 126 000c 9A68     		ldr	r2, [r3, #8]
 127              	.LVL9:
 151:src/ring_buffer/ring_buffer.c ****   r_ptr = ring_buffer->r_ptr;
 128              		.loc 1 151 3 is_stmt 1 view .LVU32
 129              		.loc 1 151 9 is_stmt 0 view .LVU33
 130 000e DB68     		ldr	r3, [r3, #12]
 131              	.LVL10:
 152:src/ring_buffer/ring_buffer.c **** 
 153:src/ring_buffer/ring_buffer.c **** 
ARM GAS  /tmp/ccFYrYca.s 			page 6


 154:src/ring_buffer/ring_buffer.c ****   if (w_ptr >= r_ptr) {
 132              		.loc 1 154 3 is_stmt 1 view .LVU34
 133              		.loc 1 154 6 is_stmt 0 view .LVU35
 134 0010 9A42     		cmp	r2, r3
 135 0012 03D3     		bcc	.L11
 155:src/ring_buffer/ring_buffer.c ****     size = ring_buffer->size - (w_ptr - r_ptr);
 136              		.loc 1 155 5 is_stmt 1 view .LVU36
 137              		.loc 1 155 30 is_stmt 0 view .LVU37
 138 0014 9B1A     		subs	r3, r3, r2
 139              	.LVL11:
 140              		.loc 1 155 10 view .LVU38
 141 0016 1844     		add	r0, r0, r3
 142              	.LVL12:
 143              	.L12:
 156:src/ring_buffer/ring_buffer.c ****   } else {
 157:src/ring_buffer/ring_buffer.c ****     size = r_ptr - w_ptr;
 158:src/ring_buffer/ring_buffer.c ****   }
 159:src/ring_buffer/ring_buffer.c **** 
 160:src/ring_buffer/ring_buffer.c ****   return size - 1;
 144              		.loc 1 160 3 is_stmt 1 view .LVU39
 145              		.loc 1 160 15 is_stmt 0 view .LVU40
 146 0018 0138     		subs	r0, r0, #1
 147              	.LVL13:
 148              		.loc 1 160 15 view .LVU41
 149 001a 7047     		bx	lr
 150              	.LVL14:
 151              	.L11:
 157:src/ring_buffer/ring_buffer.c ****   }
 152              		.loc 1 157 5 is_stmt 1 view .LVU42
 157:src/ring_buffer/ring_buffer.c ****   }
 153              		.loc 1 157 10 is_stmt 0 view .LVU43
 154 001c 981A     		subs	r0, r3, r2
 155              	.LVL15:
 157:src/ring_buffer/ring_buffer.c ****   }
 156              		.loc 1 157 10 view .LVU44
 157 001e FBE7     		b	.L12
 158              	.LVL16:
 159              	.L13:
 147:src/ring_buffer/ring_buffer.c ****   }
 160              		.loc 1 147 12 view .LVU45
 161 0020 0020     		movs	r0, #0
 162              	.LVL17:
 147:src/ring_buffer/ring_buffer.c ****   }
 163              		.loc 1 147 12 view .LVU46
 164 0022 7047     		bx	lr
 165              	.LVL18:
 166              	.L14:
 147:src/ring_buffer/ring_buffer.c ****   }
 167              		.loc 1 147 12 view .LVU47
 168 0024 0020     		movs	r0, #0
 169              	.LVL19:
 170              	.L9:
 161:src/ring_buffer/ring_buffer.c **** }
 171              		.loc 1 161 1 view .LVU48
 172 0026 7047     		bx	lr
 173              		.cfi_endproc
 174              	.LFE4:
ARM GAS  /tmp/ccFYrYca.s 			page 7


 176              		.section	.text.ring_buffer_write,"ax",%progbits
 177              		.align	1
 178              		.global	ring_buffer_write
 179              		.syntax unified
 180              		.thumb
 181              		.thumb_func
 183              	ring_buffer_write:
 184              	.LVL20:
 185              	.LFB1:
  23:src/ring_buffer/ring_buffer.c ****   uint32_t to_copy = 0;
 186              		.loc 1 23 38 is_stmt 1 view -0
 187              		.cfi_startproc
 188              		@ args = 0, pretend = 0, frame = 0
 189              		@ frame_needed = 0, uses_anonymous_args = 0
  23:src/ring_buffer/ring_buffer.c ****   uint32_t to_copy = 0;
 190              		.loc 1 23 38 is_stmt 0 view .LVU50
 191 0000 2DE9F843 		push	{r3, r4, r5, r6, r7, r8, r9, lr}
 192              	.LCFI3:
 193              		.cfi_def_cfa_offset 32
 194              		.cfi_offset 3, -32
 195              		.cfi_offset 4, -28
 196              		.cfi_offset 5, -24
 197              		.cfi_offset 6, -20
 198              		.cfi_offset 7, -16
 199              		.cfi_offset 8, -12
 200              		.cfi_offset 9, -8
 201              		.cfi_offset 14, -4
  24:src/ring_buffer/ring_buffer.c ****   uint32_t free = 0;
 202              		.loc 1 24 3 is_stmt 1 view .LVU51
 203              	.LVL21:
  25:src/ring_buffer/ring_buffer.c ****   uint32_t w_ptr = 0;
 204              		.loc 1 25 3 view .LVU52
  26:src/ring_buffer/ring_buffer.c ****   const uint8_t *d_ptr = (uint8_t *) data;
 205              		.loc 1 26 3 view .LVU53
  27:src/ring_buffer/ring_buffer.c **** 
 206              		.loc 1 27 3 view .LVU54
  29:src/ring_buffer/ring_buffer.c ****     return 0;
 207              		.loc 1 29 3 view .LVU55
  29:src/ring_buffer/ring_buffer.c ****     return 0;
 208              		.loc 1 29 6 is_stmt 0 view .LVU56
 209 0004 0028     		cmp	r0, #0
 210 0006 3DD0     		beq	.L19
 211 0008 0E46     		mov	r6, r1
 212 000a 1546     		mov	r5, r2
 213 000c 0746     		mov	r7, r0
  29:src/ring_buffer/ring_buffer.c ****     return 0;
 214              		.loc 1 29 8 discriminator 1 view .LVU57
 215 000e D0F80080 		ldr	r8, [r0]
 216 0012 B8F1000F 		cmp	r8, #0
 217 0016 39D0     		beq	.L20
  29:src/ring_buffer/ring_buffer.c ****     return 0;
 218              		.loc 1 29 8 discriminator 2 view .LVU58
 219 0018 4468     		ldr	r4, [r0, #4]
  29:src/ring_buffer/ring_buffer.c ****     return 0;
 220              		.loc 1 29 7 discriminator 2 view .LVU59
 221 001a A4B3     		cbz	r4, .L15
  29:src/ring_buffer/ring_buffer.c ****     return 0;
ARM GAS  /tmp/ccFYrYca.s 			page 8


 222              		.loc 1 29 57 discriminator 3 view .LVU60
 223 001c B2FA82F3 		clz	r3, r2
 224 0020 5B09     		lsrs	r3, r3, #5
  29:src/ring_buffer/ring_buffer.c ****     return 0;
 225              		.loc 1 29 50 discriminator 3 view .LVU61
 226 0022 A9B3     		cbz	r1, .L21
 227 0024 A3BB     		cbnz	r3, .L21
  33:src/ring_buffer/ring_buffer.c **** 
 228              		.loc 1 33 3 is_stmt 1 view .LVU62
  33:src/ring_buffer/ring_buffer.c **** 
 229              		.loc 1 33 10 is_stmt 0 view .LVU63
 230 0026 FFF7FEFF 		bl	ring_buffer_get_free
 231              	.LVL22:
  35:src/ring_buffer/ring_buffer.c ****     return 0;
 232              		.loc 1 35 3 is_stmt 1 view .LVU64
  35:src/ring_buffer/ring_buffer.c ****     return 0;
 233              		.loc 1 35 28 is_stmt 0 view .LVU65
 234 002a 8542     		cmp	r5, r0
 235 002c 94BF     		ite	ls
 236 002e 0023     		movls	r3, #0
 237 0030 0123     		movhi	r3, #1
  35:src/ring_buffer/ring_buffer.c ****     return 0;
 238              		.loc 1 35 19 view .LVU66
 239 0032 0028     		cmp	r0, #0
 240 0034 08BF     		it	eq
 241 0036 43F00103 		orreq	r3, r3, #1
  35:src/ring_buffer/ring_buffer.c ****     return 0;
 242              		.loc 1 35 6 view .LVU67
 243 003a 0BB1     		cbz	r3, .L25
  36:src/ring_buffer/ring_buffer.c ****   }
 244              		.loc 1 36 12 view .LVU68
 245 003c 0024     		movs	r4, #0
 246 003e 22E0     		b	.L15
 247              	.L25:
  39:src/ring_buffer/ring_buffer.c ****   w_ptr = ring_buffer->w_ptr;
 248              		.loc 1 39 3 is_stmt 1 view .LVU69
  39:src/ring_buffer/ring_buffer.c ****   w_ptr = ring_buffer->w_ptr;
 249              		.loc 1 39 7 is_stmt 0 view .LVU70
 250 0040 8542     		cmp	r5, r0
 251 0042 28BF     		it	cs
 252 0044 0546     		movcs	r5, r0
 253              	.LVL23:
  40:src/ring_buffer/ring_buffer.c **** 
 254              		.loc 1 40 3 is_stmt 1 view .LVU71
  40:src/ring_buffer/ring_buffer.c **** 
 255              		.loc 1 40 9 is_stmt 0 view .LVU72
 256 0046 D7F80890 		ldr	r9, [r7, #8]
 257              	.LVL24:
  42:src/ring_buffer/ring_buffer.c ****   memcpy(&ring_buffer->buf[w_ptr], d_ptr, to_copy);
 258              		.loc 1 42 3 is_stmt 1 view .LVU73
  42:src/ring_buffer/ring_buffer.c ****   memcpy(&ring_buffer->buf[w_ptr], d_ptr, to_copy);
 259              		.loc 1 42 13 is_stmt 0 view .LVU74
 260 004a A4EB0904 		sub	r4, r4, r9
  42:src/ring_buffer/ring_buffer.c ****   memcpy(&ring_buffer->buf[w_ptr], d_ptr, to_copy);
 261              		.loc 1 42 11 view .LVU75
 262 004e AC42     		cmp	r4, r5
 263 0050 28BF     		it	cs
ARM GAS  /tmp/ccFYrYca.s 			page 9


 264 0052 2C46     		movcs	r4, r5
 265              	.LVL25:
  43:src/ring_buffer/ring_buffer.c ****   d_ptr += to_copy;
 266              		.loc 1 43 3 is_stmt 1 view .LVU76
 267 0054 2246     		mov	r2, r4
 268 0056 3146     		mov	r1, r6
 269 0058 08EB0900 		add	r0, r8, r9
 270              	.LVL26:
  43:src/ring_buffer/ring_buffer.c ****   d_ptr += to_copy;
 271              		.loc 1 43 3 is_stmt 0 view .LVU77
 272 005c FFF7FEFF 		bl	memcpy
 273              	.LVL27:
  44:src/ring_buffer/ring_buffer.c ****   w_ptr += to_copy;
 274              		.loc 1 44 3 is_stmt 1 view .LVU78
  44:src/ring_buffer/ring_buffer.c ****   w_ptr += to_copy;
 275              		.loc 1 44 9 is_stmt 0 view .LVU79
 276 0060 3119     		adds	r1, r6, r4
 277              	.LVL28:
  45:src/ring_buffer/ring_buffer.c ****   len -= to_copy;
 278              		.loc 1 45 3 is_stmt 1 view .LVU80
  45:src/ring_buffer/ring_buffer.c ****   len -= to_copy;
 279              		.loc 1 45 9 is_stmt 0 view .LVU81
 280 0062 09EB0403 		add	r3, r9, r4
 281              	.LVL29:
  46:src/ring_buffer/ring_buffer.c **** 
 282              		.loc 1 46 3 is_stmt 1 view .LVU82
  48:src/ring_buffer/ring_buffer.c ****     memcpy(ring_buffer->buf, d_ptr, len);
 283              		.loc 1 48 3 view .LVU83
  48:src/ring_buffer/ring_buffer.c ****     memcpy(ring_buffer->buf, d_ptr, len);
 284              		.loc 1 48 6 is_stmt 0 view .LVU84
 285 0066 2C1B     		subs	r4, r5, r4
 286              	.LVL30:
  48:src/ring_buffer/ring_buffer.c ****     memcpy(ring_buffer->buf, d_ptr, len);
 287              		.loc 1 48 6 view .LVU85
 288 0068 06D1     		bne	.L26
 289              	.LVL31:
 290              	.L17:
  53:src/ring_buffer/ring_buffer.c ****     w_ptr = 0;
 291              		.loc 1 53 3 is_stmt 1 view .LVU86
  53:src/ring_buffer/ring_buffer.c ****     w_ptr = 0;
 292              		.loc 1 53 27 is_stmt 0 view .LVU87
 293 006a 7A68     		ldr	r2, [r7, #4]
  53:src/ring_buffer/ring_buffer.c ****     w_ptr = 0;
 294              		.loc 1 53 6 view .LVU88
 295 006c 9A42     		cmp	r2, r3
 296 006e 00D8     		bhi	.L18
  54:src/ring_buffer/ring_buffer.c ****   }
 297              		.loc 1 54 11 view .LVU89
 298 0070 0023     		movs	r3, #0
 299              	.LVL32:
 300              	.L18:
  57:src/ring_buffer/ring_buffer.c **** 
 301              		.loc 1 57 3 is_stmt 1 view .LVU90
  57:src/ring_buffer/ring_buffer.c **** 
 302              		.loc 1 57 22 is_stmt 0 view .LVU91
 303 0072 BB60     		str	r3, [r7, #8]
  59:src/ring_buffer/ring_buffer.c **** }
ARM GAS  /tmp/ccFYrYca.s 			page 10


 304              		.loc 1 59 3 is_stmt 1 view .LVU92
  59:src/ring_buffer/ring_buffer.c **** }
 305              		.loc 1 59 18 is_stmt 0 view .LVU93
 306 0074 2C46     		mov	r4, r5
 307              	.LVL33:
  59:src/ring_buffer/ring_buffer.c **** }
 308              		.loc 1 59 18 view .LVU94
 309 0076 06E0     		b	.L15
 310              	.LVL34:
 311              	.L26:
  49:src/ring_buffer/ring_buffer.c ****     w_ptr = len;
 312              		.loc 1 49 5 is_stmt 1 view .LVU95
 313 0078 2246     		mov	r2, r4
 314 007a 3868     		ldr	r0, [r7]
 315 007c FFF7FEFF 		bl	memcpy
 316              	.LVL35:
  50:src/ring_buffer/ring_buffer.c ****   }
 317              		.loc 1 50 5 view .LVU96
  50:src/ring_buffer/ring_buffer.c ****   }
 318              		.loc 1 50 11 is_stmt 0 view .LVU97
 319 0080 2346     		mov	r3, r4
 320 0082 F2E7     		b	.L17
 321              	.LVL36:
 322              	.L19:
  30:src/ring_buffer/ring_buffer.c ****   }
 323              		.loc 1 30 12 view .LVU98
 324 0084 0024     		movs	r4, #0
 325              	.LVL37:
 326              	.L15:
  60:src/ring_buffer/ring_buffer.c **** 
 327              		.loc 1 60 1 view .LVU99
 328 0086 2046     		mov	r0, r4
 329 0088 BDE8F883 		pop	{r3, r4, r5, r6, r7, r8, r9, pc}
 330              	.LVL38:
 331              	.L20:
  30:src/ring_buffer/ring_buffer.c ****   }
 332              		.loc 1 30 12 view .LVU100
 333 008c 0024     		movs	r4, #0
 334 008e FAE7     		b	.L15
 335              	.L21:
 336 0090 0024     		movs	r4, #0
 337 0092 F8E7     		b	.L15
 338              		.cfi_endproc
 339              	.LFE1:
 341              		.section	.text.ring_buffer_get_full,"ax",%progbits
 342              		.align	1
 343              		.global	ring_buffer_get_full
 344              		.syntax unified
 345              		.thumb
 346              		.thumb_func
 348              	ring_buffer_get_full:
 349              	.LVL39:
 350              	.LFB5:
 162:src/ring_buffer/ring_buffer.c **** 
 163:src/ring_buffer/ring_buffer.c **** uint32_t ring_buffer_get_full(const struct ring_buffer *ring_buffer) {
 351              		.loc 1 163 70 is_stmt 1 view -0
 352              		.cfi_startproc
ARM GAS  /tmp/ccFYrYca.s 			page 11


 353              		@ args = 0, pretend = 0, frame = 0
 354              		@ frame_needed = 0, uses_anonymous_args = 0
 355              		@ link register save eliminated.
 164:src/ring_buffer/ring_buffer.c ****   uint32_t size = 0;
 356              		.loc 1 164 3 view .LVU102
 165:src/ring_buffer/ring_buffer.c ****   uint32_t w_ptr = 0;
 357              		.loc 1 165 3 view .LVU103
 166:src/ring_buffer/ring_buffer.c ****   uint32_t r_ptr = 0;
 358              		.loc 1 166 3 view .LVU104
 167:src/ring_buffer/ring_buffer.c **** 
 168:src/ring_buffer/ring_buffer.c ****   if (!BUF_IS_VALID(ring_buffer)) {
 359              		.loc 1 168 3 view .LVU105
 360              		.loc 1 168 6 is_stmt 0 view .LVU106
 361 0000 0346     		mov	r3, r0
 362 0002 60B1     		cbz	r0, .L30
 363              		.loc 1 168 8 discriminator 1 view .LVU107
 364 0004 0268     		ldr	r2, [r0]
 365 0006 62B1     		cbz	r2, .L31
 366              		.loc 1 168 8 discriminator 2 view .LVU108
 367 0008 4068     		ldr	r0, [r0, #4]
 368              	.LVL40:
 369              		.loc 1 168 7 discriminator 2 view .LVU109
 370 000a 58B1     		cbz	r0, .L27
 169:src/ring_buffer/ring_buffer.c ****     return 0; 
 170:src/ring_buffer/ring_buffer.c ****   }
 171:src/ring_buffer/ring_buffer.c **** 
 172:src/ring_buffer/ring_buffer.c ****   w_ptr = ring_buffer->w_ptr;
 371              		.loc 1 172 3 is_stmt 1 view .LVU110
 372              		.loc 1 172 9 is_stmt 0 view .LVU111
 373 000c 9A68     		ldr	r2, [r3, #8]
 374              	.LVL41:
 173:src/ring_buffer/ring_buffer.c ****   r_ptr = ring_buffer->r_ptr;
 375              		.loc 1 173 3 is_stmt 1 view .LVU112
 376              		.loc 1 173 9 is_stmt 0 view .LVU113
 377 000e DB68     		ldr	r3, [r3, #12]
 378              	.LVL42:
 174:src/ring_buffer/ring_buffer.c ****   
 175:src/ring_buffer/ring_buffer.c ****   if (w_ptr >= r_ptr) {
 379              		.loc 1 175 3 is_stmt 1 view .LVU114
 380              		.loc 1 175 6 is_stmt 0 view .LVU115
 381 0010 9A42     		cmp	r2, r3
 382 0012 01D3     		bcc	.L29
 176:src/ring_buffer/ring_buffer.c ****     size = w_ptr - r_ptr;
 383              		.loc 1 176 5 is_stmt 1 view .LVU116
 384              		.loc 1 176 10 is_stmt 0 view .LVU117
 385 0014 D01A     		subs	r0, r2, r3
 386              	.LVL43:
 387              		.loc 1 176 10 view .LVU118
 388 0016 7047     		bx	lr
 389              	.LVL44:
 390              	.L29:
 177:src/ring_buffer/ring_buffer.c ****   } else {
 178:src/ring_buffer/ring_buffer.c ****     size = ring_buffer->size - (r_ptr - w_ptr);
 391              		.loc 1 178 5 is_stmt 1 view .LVU119
 392              		.loc 1 178 30 is_stmt 0 view .LVU120
 393 0018 D21A     		subs	r2, r2, r3
 394              	.LVL45:
ARM GAS  /tmp/ccFYrYca.s 			page 12


 395              		.loc 1 178 10 view .LVU121
 396 001a 1044     		add	r0, r0, r2
 397              	.LVL46:
 398              		.loc 1 178 10 view .LVU122
 399 001c 7047     		bx	lr
 400              	.LVL47:
 401              	.L30:
 169:src/ring_buffer/ring_buffer.c ****   }
 402              		.loc 1 169 12 view .LVU123
 403 001e 0020     		movs	r0, #0
 404              	.LVL48:
 169:src/ring_buffer/ring_buffer.c ****   }
 405              		.loc 1 169 12 view .LVU124
 406 0020 7047     		bx	lr
 407              	.LVL49:
 408              	.L31:
 169:src/ring_buffer/ring_buffer.c ****   }
 409              		.loc 1 169 12 view .LVU125
 410 0022 0020     		movs	r0, #0
 411              	.LVL50:
 412              	.L27:
 179:src/ring_buffer/ring_buffer.c ****   }
 180:src/ring_buffer/ring_buffer.c **** 
 181:src/ring_buffer/ring_buffer.c ****   return size;
 182:src/ring_buffer/ring_buffer.c **** }
 413              		.loc 1 182 1 view .LVU126
 414 0024 7047     		bx	lr
 415              		.cfi_endproc
 416              	.LFE5:
 418              		.section	.text.ring_buffer_read,"ax",%progbits
 419              		.align	1
 420              		.global	ring_buffer_read
 421              		.syntax unified
 422              		.thumb
 423              		.thumb_func
 425              	ring_buffer_read:
 426              	.LVL51:
 427              	.LFB2:
  63:src/ring_buffer/ring_buffer.c ****   uint32_t to_copy = 0;
 428              		.loc 1 63 41 is_stmt 1 view -0
 429              		.cfi_startproc
 430              		@ args = 0, pretend = 0, frame = 0
 431              		@ frame_needed = 0, uses_anonymous_args = 0
  63:src/ring_buffer/ring_buffer.c ****   uint32_t to_copy = 0;
 432              		.loc 1 63 41 is_stmt 0 view .LVU128
 433 0000 2DE9F843 		push	{r3, r4, r5, r6, r7, r8, r9, lr}
 434              	.LCFI4:
 435              		.cfi_def_cfa_offset 32
 436              		.cfi_offset 3, -32
 437              		.cfi_offset 4, -28
 438              		.cfi_offset 5, -24
 439              		.cfi_offset 6, -20
 440              		.cfi_offset 7, -16
 441              		.cfi_offset 8, -12
 442              		.cfi_offset 9, -8
 443              		.cfi_offset 14, -4
  64:src/ring_buffer/ring_buffer.c ****   uint32_t full = 0;
ARM GAS  /tmp/ccFYrYca.s 			page 13


 444              		.loc 1 64 3 is_stmt 1 view .LVU129
 445              	.LVL52:
  65:src/ring_buffer/ring_buffer.c ****   uint32_t r_ptr = 0;
 446              		.loc 1 65 3 view .LVU130
  66:src/ring_buffer/ring_buffer.c ****   uint8_t *d_ptr = (uint8_t *) data;
 447              		.loc 1 66 3 view .LVU131
  67:src/ring_buffer/ring_buffer.c **** 
 448              		.loc 1 67 3 view .LVU132
  69:src/ring_buffer/ring_buffer.c ****     return 0;
 449              		.loc 1 69 3 view .LVU133
  69:src/ring_buffer/ring_buffer.c ****     return 0;
 450              		.loc 1 69 6 is_stmt 0 view .LVU134
 451 0004 0028     		cmp	r0, #0
 452 0006 3DD0     		beq	.L36
 453 0008 0E46     		mov	r6, r1
 454 000a 1546     		mov	r5, r2
 455 000c 0746     		mov	r7, r0
  69:src/ring_buffer/ring_buffer.c ****     return 0;
 456              		.loc 1 69 8 discriminator 1 view .LVU135
 457 000e D0F80080 		ldr	r8, [r0]
 458 0012 B8F1000F 		cmp	r8, #0
 459 0016 39D0     		beq	.L37
  69:src/ring_buffer/ring_buffer.c ****     return 0;
 460              		.loc 1 69 8 discriminator 2 view .LVU136
 461 0018 4468     		ldr	r4, [r0, #4]
  69:src/ring_buffer/ring_buffer.c ****     return 0;
 462              		.loc 1 69 7 discriminator 2 view .LVU137
 463 001a A4B3     		cbz	r4, .L32
  69:src/ring_buffer/ring_buffer.c ****     return 0;
 464              		.loc 1 69 57 discriminator 3 view .LVU138
 465 001c B2FA82F3 		clz	r3, r2
 466 0020 5B09     		lsrs	r3, r3, #5
  69:src/ring_buffer/ring_buffer.c ****     return 0;
 467              		.loc 1 69 50 discriminator 3 view .LVU139
 468 0022 A9B3     		cbz	r1, .L38
 469 0024 A3BB     		cbnz	r3, .L38
  73:src/ring_buffer/ring_buffer.c ****   if ((full == 0) || (full < len)) {
 470              		.loc 1 73 3 is_stmt 1 view .LVU140
  73:src/ring_buffer/ring_buffer.c ****   if ((full == 0) || (full < len)) {
 471              		.loc 1 73 10 is_stmt 0 view .LVU141
 472 0026 FFF7FEFF 		bl	ring_buffer_get_full
 473              	.LVL53:
  74:src/ring_buffer/ring_buffer.c ****     return 0;
 474              		.loc 1 74 3 is_stmt 1 view .LVU142
  74:src/ring_buffer/ring_buffer.c ****     return 0;
 475              		.loc 1 74 28 is_stmt 0 view .LVU143
 476 002a 8542     		cmp	r5, r0
 477 002c 94BF     		ite	ls
 478 002e 0023     		movls	r3, #0
 479 0030 0123     		movhi	r3, #1
  74:src/ring_buffer/ring_buffer.c ****     return 0;
 480              		.loc 1 74 19 view .LVU144
 481 0032 0028     		cmp	r0, #0
 482 0034 08BF     		it	eq
 483 0036 43F00103 		orreq	r3, r3, #1
  74:src/ring_buffer/ring_buffer.c ****     return 0;
 484              		.loc 1 74 6 view .LVU145
ARM GAS  /tmp/ccFYrYca.s 			page 14


 485 003a 0BB1     		cbz	r3, .L42
  75:src/ring_buffer/ring_buffer.c ****   }
 486              		.loc 1 75 12 view .LVU146
 487 003c 0024     		movs	r4, #0
 488 003e 22E0     		b	.L32
 489              	.L42:
  78:src/ring_buffer/ring_buffer.c ****   r_ptr = ring_buffer->r_ptr;
 490              		.loc 1 78 3 is_stmt 1 view .LVU147
  78:src/ring_buffer/ring_buffer.c ****   r_ptr = ring_buffer->r_ptr;
 491              		.loc 1 78 7 is_stmt 0 view .LVU148
 492 0040 8542     		cmp	r5, r0
 493 0042 28BF     		it	cs
 494 0044 0546     		movcs	r5, r0
 495              	.LVL54:
  79:src/ring_buffer/ring_buffer.c **** 
 496              		.loc 1 79 3 is_stmt 1 view .LVU149
  79:src/ring_buffer/ring_buffer.c **** 
 497              		.loc 1 79 9 is_stmt 0 view .LVU150
 498 0046 D7F80C90 		ldr	r9, [r7, #12]
 499              	.LVL55:
  81:src/ring_buffer/ring_buffer.c ****   memcpy(d_ptr, &ring_buffer->buf[r_ptr], to_copy);
 500              		.loc 1 81 3 is_stmt 1 view .LVU151
  81:src/ring_buffer/ring_buffer.c ****   memcpy(d_ptr, &ring_buffer->buf[r_ptr], to_copy);
 501              		.loc 1 81 13 is_stmt 0 view .LVU152
 502 004a A4EB0904 		sub	r4, r4, r9
  81:src/ring_buffer/ring_buffer.c ****   memcpy(d_ptr, &ring_buffer->buf[r_ptr], to_copy);
 503              		.loc 1 81 11 view .LVU153
 504 004e AC42     		cmp	r4, r5
 505 0050 28BF     		it	cs
 506 0052 2C46     		movcs	r4, r5
 507              	.LVL56:
  82:src/ring_buffer/ring_buffer.c ****   d_ptr += to_copy;
 508              		.loc 1 82 3 is_stmt 1 view .LVU154
 509 0054 2246     		mov	r2, r4
 510 0056 08EB0901 		add	r1, r8, r9
 511 005a 3046     		mov	r0, r6
 512              	.LVL57:
  82:src/ring_buffer/ring_buffer.c ****   d_ptr += to_copy;
 513              		.loc 1 82 3 is_stmt 0 view .LVU155
 514 005c FFF7FEFF 		bl	memcpy
 515              	.LVL58:
  83:src/ring_buffer/ring_buffer.c ****   r_ptr += to_copy;
 516              		.loc 1 83 3 is_stmt 1 view .LVU156
  83:src/ring_buffer/ring_buffer.c ****   r_ptr += to_copy;
 517              		.loc 1 83 9 is_stmt 0 view .LVU157
 518 0060 3019     		adds	r0, r6, r4
 519              	.LVL59:
  84:src/ring_buffer/ring_buffer.c ****   len -= to_copy;
 520              		.loc 1 84 3 is_stmt 1 view .LVU158
  84:src/ring_buffer/ring_buffer.c ****   len -= to_copy;
 521              		.loc 1 84 9 is_stmt 0 view .LVU159
 522 0062 09EB0403 		add	r3, r9, r4
 523              	.LVL60:
  85:src/ring_buffer/ring_buffer.c **** 
 524              		.loc 1 85 3 is_stmt 1 view .LVU160
  87:src/ring_buffer/ring_buffer.c ****     memcpy(d_ptr, ring_buffer->buf, len);
 525              		.loc 1 87 3 view .LVU161
ARM GAS  /tmp/ccFYrYca.s 			page 15


  87:src/ring_buffer/ring_buffer.c ****     memcpy(d_ptr, ring_buffer->buf, len);
 526              		.loc 1 87 6 is_stmt 0 view .LVU162
 527 0066 2C1B     		subs	r4, r5, r4
 528              	.LVL61:
  87:src/ring_buffer/ring_buffer.c ****     memcpy(d_ptr, ring_buffer->buf, len);
 529              		.loc 1 87 6 view .LVU163
 530 0068 06D1     		bne	.L43
 531              	.LVL62:
 532              	.L34:
  92:src/ring_buffer/ring_buffer.c ****     r_ptr = 0;
 533              		.loc 1 92 3 is_stmt 1 view .LVU164
  92:src/ring_buffer/ring_buffer.c ****     r_ptr = 0;
 534              		.loc 1 92 27 is_stmt 0 view .LVU165
 535 006a 7A68     		ldr	r2, [r7, #4]
  92:src/ring_buffer/ring_buffer.c ****     r_ptr = 0;
 536              		.loc 1 92 6 view .LVU166
 537 006c 9A42     		cmp	r2, r3
 538 006e 00D8     		bhi	.L35
  93:src/ring_buffer/ring_buffer.c ****   }
 539              		.loc 1 93 11 view .LVU167
 540 0070 0023     		movs	r3, #0
 541              	.LVL63:
 542              	.L35:
  96:src/ring_buffer/ring_buffer.c **** 
 543              		.loc 1 96 3 is_stmt 1 view .LVU168
  96:src/ring_buffer/ring_buffer.c **** 
 544              		.loc 1 96 22 is_stmt 0 view .LVU169
 545 0072 FB60     		str	r3, [r7, #12]
  98:src/ring_buffer/ring_buffer.c **** }
 546              		.loc 1 98 3 is_stmt 1 view .LVU170
  98:src/ring_buffer/ring_buffer.c **** }
 547              		.loc 1 98 18 is_stmt 0 view .LVU171
 548 0074 2C46     		mov	r4, r5
 549              	.LVL64:
  98:src/ring_buffer/ring_buffer.c **** }
 550              		.loc 1 98 18 view .LVU172
 551 0076 06E0     		b	.L32
 552              	.LVL65:
 553              	.L43:
  88:src/ring_buffer/ring_buffer.c ****     r_ptr = len;
 554              		.loc 1 88 5 is_stmt 1 view .LVU173
 555 0078 2246     		mov	r2, r4
 556 007a 3968     		ldr	r1, [r7]
 557 007c FFF7FEFF 		bl	memcpy
 558              	.LVL66:
  89:src/ring_buffer/ring_buffer.c ****   }
 559              		.loc 1 89 5 view .LVU174
  89:src/ring_buffer/ring_buffer.c ****   }
 560              		.loc 1 89 11 is_stmt 0 view .LVU175
 561 0080 2346     		mov	r3, r4
 562 0082 F2E7     		b	.L34
 563              	.LVL67:
 564              	.L36:
  70:src/ring_buffer/ring_buffer.c ****   }
 565              		.loc 1 70 12 view .LVU176
 566 0084 0024     		movs	r4, #0
 567              	.LVL68:
ARM GAS  /tmp/ccFYrYca.s 			page 16


 568              	.L32:
  99:src/ring_buffer/ring_buffer.c **** 
 569              		.loc 1 99 1 view .LVU177
 570 0086 2046     		mov	r0, r4
 571 0088 BDE8F883 		pop	{r3, r4, r5, r6, r7, r8, r9, pc}
 572              	.LVL69:
 573              	.L37:
  70:src/ring_buffer/ring_buffer.c ****   }
 574              		.loc 1 70 12 view .LVU178
 575 008c 0024     		movs	r4, #0
 576 008e FAE7     		b	.L32
 577              	.L38:
 578 0090 0024     		movs	r4, #0
 579 0092 F8E7     		b	.L32
 580              		.cfi_endproc
 581              	.LFE2:
 583              		.section	.text.ring_buffer_peek,"ax",%progbits
 584              		.align	1
 585              		.global	ring_buffer_peek
 586              		.syntax unified
 587              		.thumb
 588              		.thumb_func
 590              	ring_buffer_peek:
 591              	.LVL70:
 592              	.LFB3:
 102:src/ring_buffer/ring_buffer.c ****   uint32_t full = 0;
 593              		.loc 1 102 68 is_stmt 1 view -0
 594              		.cfi_startproc
 595              		@ args = 0, pretend = 0, frame = 0
 596              		@ frame_needed = 0, uses_anonymous_args = 0
 102:src/ring_buffer/ring_buffer.c ****   uint32_t full = 0;
 597              		.loc 1 102 68 is_stmt 0 view .LVU180
 598 0000 2DE9F845 		push	{r3, r4, r5, r6, r7, r8, r10, lr}
 599              	.LCFI5:
 600              		.cfi_def_cfa_offset 32
 601              		.cfi_offset 3, -32
 602              		.cfi_offset 4, -28
 603              		.cfi_offset 5, -24
 604              		.cfi_offset 6, -20
 605              		.cfi_offset 7, -16
 606              		.cfi_offset 8, -12
 607              		.cfi_offset 10, -8
 608              		.cfi_offset 14, -4
 103:src/ring_buffer/ring_buffer.c ****   uint32_t to_copy = 0;
 609              		.loc 1 103 3 is_stmt 1 view .LVU181
 610              	.LVL71:
 104:src/ring_buffer/ring_buffer.c ****   uint32_t r_ptr = 0;
 611              		.loc 1 104 3 view .LVU182
 105:src/ring_buffer/ring_buffer.c ****   uint8_t* d_ptr = (uint8_t *) data;
 612              		.loc 1 105 3 view .LVU183
 106:src/ring_buffer/ring_buffer.c **** 
 613              		.loc 1 106 3 view .LVU184
 108:src/ring_buffer/ring_buffer.c ****     return 0;
 614              		.loc 1 108 3 view .LVU185
 108:src/ring_buffer/ring_buffer.c ****     return 0;
 615              		.loc 1 108 6 is_stmt 0 view .LVU186
 616 0004 98B3     		cbz	r0, .L47
ARM GAS  /tmp/ccFYrYca.s 			page 17


 617 0006 0D46     		mov	r5, r1
 618 0008 9046     		mov	r8, r2
 619 000a 1E46     		mov	r6, r3
 620 000c 0746     		mov	r7, r0
 108:src/ring_buffer/ring_buffer.c ****     return 0;
 621              		.loc 1 108 8 discriminator 1 view .LVU187
 622 000e D0F800A0 		ldr	r10, [r0]
 623 0012 BAF1000F 		cmp	r10, #0
 624 0016 2ED0     		beq	.L48
 108:src/ring_buffer/ring_buffer.c ****     return 0;
 625              		.loc 1 108 8 discriminator 2 view .LVU188
 626 0018 4468     		ldr	r4, [r0, #4]
 108:src/ring_buffer/ring_buffer.c ****     return 0;
 627              		.loc 1 108 7 discriminator 2 view .LVU189
 628 001a 4CB3     		cbz	r4, .L44
 108:src/ring_buffer/ring_buffer.c ****     return 0;
 629              		.loc 1 108 57 discriminator 3 view .LVU190
 630 001c B3FA83F3 		clz	r3, r3
 631              	.LVL72:
 108:src/ring_buffer/ring_buffer.c ****     return 0;
 632              		.loc 1 108 57 discriminator 3 view .LVU191
 633 0020 5B09     		lsrs	r3, r3, #5
 108:src/ring_buffer/ring_buffer.c ****     return 0;
 634              		.loc 1 108 50 discriminator 3 view .LVU192
 635 0022 52B3     		cbz	r2, .L49
 636 0024 4BBB     		cbnz	r3, .L49
 112:src/ring_buffer/ring_buffer.c ****   if (skip >= full) {
 637              		.loc 1 112 3 is_stmt 1 view .LVU193
 112:src/ring_buffer/ring_buffer.c ****   if (skip >= full) {
 638              		.loc 1 112 10 is_stmt 0 view .LVU194
 639 0026 FFF7FEFF 		bl	ring_buffer_get_full
 640              	.LVL73:
 113:src/ring_buffer/ring_buffer.c ****     return 0;
 641              		.loc 1 113 3 is_stmt 1 view .LVU195
 113:src/ring_buffer/ring_buffer.c ****     return 0;
 642              		.loc 1 113 6 is_stmt 0 view .LVU196
 643 002a A842     		cmp	r0, r5
 644 002c 27D9     		bls	.L50
 117:src/ring_buffer/ring_buffer.c ****   r_ptr += skip;
 645              		.loc 1 117 3 is_stmt 1 view .LVU197
 117:src/ring_buffer/ring_buffer.c ****   r_ptr += skip;
 646              		.loc 1 117 9 is_stmt 0 view .LVU198
 647 002e F968     		ldr	r1, [r7, #12]
 648              	.LVL74:
 118:src/ring_buffer/ring_buffer.c ****   full -= skip;
 649              		.loc 1 118 3 is_stmt 1 view .LVU199
 118:src/ring_buffer/ring_buffer.c ****   full -= skip;
 650              		.loc 1 118 9 is_stmt 0 view .LVU200
 651 0030 2944     		add	r1, r1, r5
 652              	.LVL75:
 119:src/ring_buffer/ring_buffer.c ****   if (r_ptr >= ring_buffer->size) {
 653              		.loc 1 119 3 is_stmt 1 view .LVU201
 119:src/ring_buffer/ring_buffer.c ****   if (r_ptr >= ring_buffer->size) {
 654              		.loc 1 119 8 is_stmt 0 view .LVU202
 655 0032 451B     		subs	r5, r0, r5
 656              	.LVL76:
 120:src/ring_buffer/ring_buffer.c ****     r_ptr -= ring_buffer->size;
ARM GAS  /tmp/ccFYrYca.s 			page 18


 657              		.loc 1 120 3 is_stmt 1 view .LVU203
 120:src/ring_buffer/ring_buffer.c ****     r_ptr -= ring_buffer->size;
 658              		.loc 1 120 6 is_stmt 0 view .LVU204
 659 0034 8C42     		cmp	r4, r1
 660 0036 00D8     		bhi	.L46
 121:src/ring_buffer/ring_buffer.c ****   }
 661              		.loc 1 121 5 is_stmt 1 view .LVU205
 121:src/ring_buffer/ring_buffer.c ****   }
 662              		.loc 1 121 11 is_stmt 0 view .LVU206
 663 0038 091B     		subs	r1, r1, r4
 664              	.LVL77:
 665              	.L46:
 124:src/ring_buffer/ring_buffer.c ****   if (len == 0) {
 666              		.loc 1 124 3 is_stmt 1 view .LVU207
 124:src/ring_buffer/ring_buffer.c ****   if (len == 0) {
 667              		.loc 1 124 7 is_stmt 0 view .LVU208
 668 003a B542     		cmp	r5, r6
 669 003c 28BF     		it	cs
 670 003e 3546     		movcs	r5, r6
 671              	.LVL78:
 125:src/ring_buffer/ring_buffer.c ****     return 0;
 672              		.loc 1 125 3 is_stmt 1 view .LVU209
 125:src/ring_buffer/ring_buffer.c ****     return 0;
 673              		.loc 1 125 6 is_stmt 0 view .LVU210
 674 0040 0DB9     		cbnz	r5, .L54
 126:src/ring_buffer/ring_buffer.c ****   }
 675              		.loc 1 126 12 view .LVU211
 676 0042 2C46     		mov	r4, r5
 677 0044 14E0     		b	.L44
 678              	.L54:
 129:src/ring_buffer/ring_buffer.c ****   memcpy(d_ptr, &ring_buffer->buf[r_ptr], to_copy);
 679              		.loc 1 129 3 is_stmt 1 view .LVU212
 129:src/ring_buffer/ring_buffer.c ****   memcpy(d_ptr, &ring_buffer->buf[r_ptr], to_copy);
 680              		.loc 1 129 13 is_stmt 0 view .LVU213
 681 0046 641A     		subs	r4, r4, r1
 129:src/ring_buffer/ring_buffer.c ****   memcpy(d_ptr, &ring_buffer->buf[r_ptr], to_copy);
 682              		.loc 1 129 11 view .LVU214
 683 0048 AC42     		cmp	r4, r5
 684 004a 28BF     		it	cs
 685 004c 2C46     		movcs	r4, r5
 686              	.LVL79:
 130:src/ring_buffer/ring_buffer.c ****   d_ptr += to_copy;
 687              		.loc 1 130 3 is_stmt 1 view .LVU215
 688 004e 2246     		mov	r2, r4
 689 0050 5144     		add	r1, r1, r10
 690              	.LVL80:
 130:src/ring_buffer/ring_buffer.c ****   d_ptr += to_copy;
 691              		.loc 1 130 3 is_stmt 0 view .LVU216
 692 0052 4046     		mov	r0, r8
 693              	.LVL81:
 130:src/ring_buffer/ring_buffer.c ****   d_ptr += to_copy;
 694              		.loc 1 130 3 view .LVU217
 695 0054 FFF7FEFF 		bl	memcpy
 696              	.LVL82:
 131:src/ring_buffer/ring_buffer.c ****   len -= to_copy;
 697              		.loc 1 131 3 is_stmt 1 view .LVU218
 131:src/ring_buffer/ring_buffer.c ****   len -= to_copy;
ARM GAS  /tmp/ccFYrYca.s 			page 19


 698              		.loc 1 131 9 is_stmt 0 view .LVU219
 699 0058 08EB0400 		add	r0, r8, r4
 700              	.LVL83:
 132:src/ring_buffer/ring_buffer.c **** 
 701              		.loc 1 132 3 is_stmt 1 view .LVU220
 134:src/ring_buffer/ring_buffer.c ****     memcpy(d_ptr, ring_buffer->buf, len);
 702              		.loc 1 134 3 view .LVU221
 134:src/ring_buffer/ring_buffer.c ****     memcpy(d_ptr, ring_buffer->buf, len);
 703              		.loc 1 134 6 is_stmt 0 view .LVU222
 704 005c 2A1B     		subs	r2, r5, r4
 705              	.LVL84:
 134:src/ring_buffer/ring_buffer.c ****     memcpy(d_ptr, ring_buffer->buf, len);
 706              		.loc 1 134 6 view .LVU223
 707 005e 01D1     		bne	.L55
 138:src/ring_buffer/ring_buffer.c **** }
 708              		.loc 1 138 18 view .LVU224
 709 0060 2C46     		mov	r4, r5
 710              	.LVL85:
 138:src/ring_buffer/ring_buffer.c **** }
 711              		.loc 1 138 18 view .LVU225
 712 0062 05E0     		b	.L44
 713              	.LVL86:
 714              	.L55:
 135:src/ring_buffer/ring_buffer.c ****   }
 715              		.loc 1 135 5 is_stmt 1 view .LVU226
 716 0064 3968     		ldr	r1, [r7]
 717 0066 FFF7FEFF 		bl	memcpy
 718              	.LVL87:
 138:src/ring_buffer/ring_buffer.c **** }
 719              		.loc 1 138 18 is_stmt 0 view .LVU227
 720 006a 2C46     		mov	r4, r5
 721              	.LVL88:
 138:src/ring_buffer/ring_buffer.c **** }
 722              		.loc 1 138 18 view .LVU228
 723 006c 00E0     		b	.L44
 724              	.LVL89:
 725              	.L47:
 109:src/ring_buffer/ring_buffer.c ****   }
 726              		.loc 1 109 12 view .LVU229
 727 006e 0024     		movs	r4, #0
 728              	.LVL90:
 729              	.L44:
 139:src/ring_buffer/ring_buffer.c **** 
 730              		.loc 1 139 1 view .LVU230
 731 0070 2046     		mov	r0, r4
 732 0072 BDE8F885 		pop	{r3, r4, r5, r6, r7, r8, r10, pc}
 733              	.LVL91:
 734              	.L48:
 109:src/ring_buffer/ring_buffer.c ****   }
 735              		.loc 1 109 12 view .LVU231
 736 0076 0024     		movs	r4, #0
 737 0078 FAE7     		b	.L44
 738              	.LVL92:
 739              	.L49:
 109:src/ring_buffer/ring_buffer.c ****   }
 740              		.loc 1 109 12 view .LVU232
 741 007a 0024     		movs	r4, #0
ARM GAS  /tmp/ccFYrYca.s 			page 20


 742 007c F8E7     		b	.L44
 743              	.LVL93:
 744              	.L50:
 114:src/ring_buffer/ring_buffer.c ****   }
 745              		.loc 1 114 12 view .LVU233
 746 007e 0024     		movs	r4, #0
 747 0080 F6E7     		b	.L44
 748              		.cfi_endproc
 749              	.LFE3:
 751              		.section	.text.ring_buffer_get_logical_block_read_address,"ax",%progbits
 752              		.align	1
 753              		.global	ring_buffer_get_logical_block_read_address
 754              		.syntax unified
 755              		.thumb
 756              		.thumb_func
 758              	ring_buffer_get_logical_block_read_address:
 759              	.LVL94:
 760              	.LFB6:
 183:src/ring_buffer/ring_buffer.c **** 
 184:src/ring_buffer/ring_buffer.c **** void *ring_buffer_get_logical_block_read_address(const struct ring_buffer *ring_buffer) {
 761              		.loc 1 184 89 is_stmt 1 view -0
 762              		.cfi_startproc
 763              		@ args = 0, pretend = 0, frame = 0
 764              		@ frame_needed = 0, uses_anonymous_args = 0
 765              		@ link register save eliminated.
 185:src/ring_buffer/ring_buffer.c ****   uint32_t ptr = 0;
 766              		.loc 1 185 3 view .LVU235
 186:src/ring_buffer/ring_buffer.c **** 
 187:src/ring_buffer/ring_buffer.c ****   if (!BUF_IS_VALID(ring_buffer)) {
 767              		.loc 1 187 3 view .LVU236
 768              		.loc 1 187 6 is_stmt 0 view .LVU237
 769 0000 0346     		mov	r3, r0
 770 0002 30B1     		cbz	r0, .L58
 771              		.loc 1 187 8 discriminator 1 view .LVU238
 772 0004 0068     		ldr	r0, [r0]
 773              	.LVL95:
 774              		.loc 1 187 8 discriminator 1 view .LVU239
 775 0006 30B1     		cbz	r0, .L56
 776              		.loc 1 187 8 discriminator 2 view .LVU240
 777 0008 5A68     		ldr	r2, [r3, #4]
 778              		.loc 1 187 7 discriminator 2 view .LVU241
 779 000a 1AB1     		cbz	r2, .L59
 188:src/ring_buffer/ring_buffer.c ****     return NULL;
 189:src/ring_buffer/ring_buffer.c ****   }
 190:src/ring_buffer/ring_buffer.c **** 
 191:src/ring_buffer/ring_buffer.c ****   ptr = ring_buffer->r_ptr;
 780              		.loc 1 191 3 is_stmt 1 view .LVU242
 781              		.loc 1 191 7 is_stmt 0 view .LVU243
 782 000c DB68     		ldr	r3, [r3, #12]
 783              	.LVL96:
 192:src/ring_buffer/ring_buffer.c ****   return &ring_buffer->buf[ptr];
 784              		.loc 1 192 3 is_stmt 1 view .LVU244
 785              		.loc 1 192 10 is_stmt 0 view .LVU245
 786 000e 1844     		add	r0, r0, r3
 787 0010 7047     		bx	lr
 788              	.LVL97:
 789              	.L58:
ARM GAS  /tmp/ccFYrYca.s 			page 21


 790              		.loc 1 192 10 view .LVU246
 791 0012 7047     		bx	lr
 792              	.LVL98:
 793              	.L59:
 188:src/ring_buffer/ring_buffer.c ****     return NULL;
 794              		.loc 1 188 12 view .LVU247
 795 0014 0020     		movs	r0, #0
 796              	.L56:
 193:src/ring_buffer/ring_buffer.c **** }
 797              		.loc 1 193 1 view .LVU248
 798 0016 7047     		bx	lr
 799              		.cfi_endproc
 800              	.LFE6:
 802              		.section	.text.ring_buffer_get_logical_block_read_length,"ax",%progbits
 803              		.align	1
 804              		.global	ring_buffer_get_logical_block_read_length
 805              		.syntax unified
 806              		.thumb
 807              		.thumb_func
 809              	ring_buffer_get_logical_block_read_length:
 810              	.LVL99:
 811              	.LFB7:
 194:src/ring_buffer/ring_buffer.c **** 
 195:src/ring_buffer/ring_buffer.c **** uint32_t ring_buffer_get_logical_block_read_length(const struct ring_buffer *ring_buffer) {
 812              		.loc 1 195 91 is_stmt 1 view -0
 813              		.cfi_startproc
 814              		@ args = 0, pretend = 0, frame = 0
 815              		@ frame_needed = 0, uses_anonymous_args = 0
 816              		@ link register save eliminated.
 196:src/ring_buffer/ring_buffer.c ****   uint32_t len = 0;
 817              		.loc 1 196 3 view .LVU250
 197:src/ring_buffer/ring_buffer.c ****   uint32_t w_ptr = 0;
 818              		.loc 1 197 3 view .LVU251
 198:src/ring_buffer/ring_buffer.c ****   uint32_t r_ptr = 0;
 819              		.loc 1 198 3 view .LVU252
 199:src/ring_buffer/ring_buffer.c **** 
 200:src/ring_buffer/ring_buffer.c ****   if (!BUF_IS_VALID(ring_buffer)) {
 820              		.loc 1 200 3 view .LVU253
 821              		.loc 1 200 6 is_stmt 0 view .LVU254
 822 0000 0346     		mov	r3, r0
 823 0002 68B1     		cbz	r0, .L63
 824              		.loc 1 200 8 discriminator 1 view .LVU255
 825 0004 0268     		ldr	r2, [r0]
 826 0006 6AB1     		cbz	r2, .L64
 827              		.loc 1 200 8 discriminator 2 view .LVU256
 828 0008 4068     		ldr	r0, [r0, #4]
 829              	.LVL100:
 830              		.loc 1 200 7 discriminator 2 view .LVU257
 831 000a 70B1     		cbz	r0, .L60
 201:src/ring_buffer/ring_buffer.c ****     return 0;
 202:src/ring_buffer/ring_buffer.c ****   }
 203:src/ring_buffer/ring_buffer.c **** 
 204:src/ring_buffer/ring_buffer.c ****   w_ptr = ring_buffer->w_ptr;
 832              		.loc 1 204 3 is_stmt 1 view .LVU258
 833              		.loc 1 204 9 is_stmt 0 view .LVU259
 834 000c 9A68     		ldr	r2, [r3, #8]
 835              	.LVL101:
ARM GAS  /tmp/ccFYrYca.s 			page 22


 205:src/ring_buffer/ring_buffer.c ****   r_ptr = ring_buffer->r_ptr;
 836              		.loc 1 205 3 is_stmt 1 view .LVU260
 837              		.loc 1 205 9 is_stmt 0 view .LVU261
 838 000e DB68     		ldr	r3, [r3, #12]
 839              	.LVL102:
 206:src/ring_buffer/ring_buffer.c **** 
 207:src/ring_buffer/ring_buffer.c ****   if (w_ptr > r_ptr) {
 840              		.loc 1 207 3 is_stmt 1 view .LVU262
 841              		.loc 1 207 6 is_stmt 0 view .LVU263
 842 0010 9A42     		cmp	r2, r3
 843 0012 01D9     		bls	.L62
 208:src/ring_buffer/ring_buffer.c ****     len = w_ptr - r_ptr;
 844              		.loc 1 208 5 is_stmt 1 view .LVU264
 845              		.loc 1 208 9 is_stmt 0 view .LVU265
 846 0014 D01A     		subs	r0, r2, r3
 847              	.LVL103:
 848              		.loc 1 208 9 view .LVU266
 849 0016 7047     		bx	lr
 850              	.LVL104:
 851              	.L62:
 209:src/ring_buffer/ring_buffer.c ****   } else if (r_ptr > w_ptr) {
 852              		.loc 1 209 10 is_stmt 1 view .LVU267
 853              		.loc 1 209 13 is_stmt 0 view .LVU268
 854 0018 9A42     		cmp	r2, r3
 855 001a 05D2     		bcs	.L65
 210:src/ring_buffer/ring_buffer.c ****     len = ring_buffer->size - r_ptr;
 856              		.loc 1 210 5 is_stmt 1 view .LVU269
 857              		.loc 1 210 9 is_stmt 0 view .LVU270
 858 001c C01A     		subs	r0, r0, r3
 859              	.LVL105:
 860              		.loc 1 210 9 view .LVU271
 861 001e 7047     		bx	lr
 862              	.LVL106:
 863              	.L63:
 201:src/ring_buffer/ring_buffer.c ****   }
 864              		.loc 1 201 12 view .LVU272
 865 0020 0020     		movs	r0, #0
 866              	.LVL107:
 201:src/ring_buffer/ring_buffer.c ****   }
 867              		.loc 1 201 12 view .LVU273
 868 0022 7047     		bx	lr
 869              	.LVL108:
 870              	.L64:
 201:src/ring_buffer/ring_buffer.c ****   }
 871              		.loc 1 201 12 view .LVU274
 872 0024 0020     		movs	r0, #0
 873              	.LVL109:
 201:src/ring_buffer/ring_buffer.c ****   }
 874              		.loc 1 201 12 view .LVU275
 875 0026 7047     		bx	lr
 876              	.LVL110:
 877              	.L65:
 211:src/ring_buffer/ring_buffer.c ****   } else {
 212:src/ring_buffer/ring_buffer.c ****     len = 0;
 878              		.loc 1 212 9 view .LVU276
 879 0028 0020     		movs	r0, #0
 880              	.LVL111:
ARM GAS  /tmp/ccFYrYca.s 			page 23


 881              	.L60:
 213:src/ring_buffer/ring_buffer.c ****   }
 214:src/ring_buffer/ring_buffer.c **** 
 215:src/ring_buffer/ring_buffer.c ****   return len;
 216:src/ring_buffer/ring_buffer.c **** }
 882              		.loc 1 216 1 view .LVU277
 883 002a 7047     		bx	lr
 884              		.cfi_endproc
 885              	.LFE7:
 887              		.section	.text.ring_buffer_skip,"ax",%progbits
 888              		.align	1
 889              		.global	ring_buffer_skip
 890              		.syntax unified
 891              		.thumb
 892              		.thumb_func
 894              	ring_buffer_skip:
 895              	.LVL112:
 896              	.LFB8:
 217:src/ring_buffer/ring_buffer.c **** 
 218:src/ring_buffer/ring_buffer.c **** uint32_t ring_buffer_skip(struct ring_buffer *ring_buffer, uint32_t len) {
 897              		.loc 1 218 74 is_stmt 1 view -0
 898              		.cfi_startproc
 899              		@ args = 0, pretend = 0, frame = 0
 900              		@ frame_needed = 0, uses_anonymous_args = 0
 901              		.loc 1 218 74 is_stmt 0 view .LVU279
 902 0000 70B5     		push	{r4, r5, r6, lr}
 903              	.LCFI6:
 904              		.cfi_def_cfa_offset 16
 905              		.cfi_offset 4, -16
 906              		.cfi_offset 5, -12
 907              		.cfi_offset 6, -8
 908              		.cfi_offset 14, -4
 219:src/ring_buffer/ring_buffer.c ****   uint32_t full = 0;
 909              		.loc 1 219 3 is_stmt 1 view .LVU280
 910              	.LVL113:
 220:src/ring_buffer/ring_buffer.c ****   uint32_t r_ptr = 0;
 911              		.loc 1 220 3 view .LVU281
 221:src/ring_buffer/ring_buffer.c **** 
 222:src/ring_buffer/ring_buffer.c ****   if (!BUF_IS_VALID(ring_buffer) || len == 0) {
 912              		.loc 1 222 3 view .LVU282
 913              		.loc 1 222 6 is_stmt 0 view .LVU283
 914 0002 A0B1     		cbz	r0, .L69
 915 0004 0C46     		mov	r4, r1
 916 0006 0646     		mov	r6, r0
 917              		.loc 1 222 8 discriminator 1 view .LVU284
 918 0008 0368     		ldr	r3, [r0]
 919 000a 93B1     		cbz	r3, .L70
 920              		.loc 1 222 8 discriminator 2 view .LVU285
 921 000c 4568     		ldr	r5, [r0, #4]
 922              		.loc 1 222 7 discriminator 2 view .LVU286
 923 000e 65B1     		cbz	r5, .L66
 924              		.loc 1 222 34 discriminator 3 view .LVU287
 925 0010 89B1     		cbz	r1, .L71
 223:src/ring_buffer/ring_buffer.c ****     return 0;
 224:src/ring_buffer/ring_buffer.c ****   }
 225:src/ring_buffer/ring_buffer.c **** 
 226:src/ring_buffer/ring_buffer.c ****   full = ring_buffer_get_full(ring_buffer);
ARM GAS  /tmp/ccFYrYca.s 			page 24


 926              		.loc 1 226 3 is_stmt 1 view .LVU288
 927              		.loc 1 226 10 is_stmt 0 view .LVU289
 928 0012 FFF7FEFF 		bl	ring_buffer_get_full
 929              	.LVL114:
 227:src/ring_buffer/ring_buffer.c ****   len = BUF_MIN(len, full);
 930              		.loc 1 227 3 is_stmt 1 view .LVU290
 931              		.loc 1 227 7 is_stmt 0 view .LVU291
 932 0016 A042     		cmp	r0, r4
 933 0018 28BF     		it	cs
 934 001a 2046     		movcs	r0, r4
 935              	.LVL115:
 228:src/ring_buffer/ring_buffer.c ****   r_ptr = ring_buffer->r_ptr;
 936              		.loc 1 228 3 is_stmt 1 view .LVU292
 937              		.loc 1 228 9 is_stmt 0 view .LVU293
 938 001c F368     		ldr	r3, [r6, #12]
 939              	.LVL116:
 229:src/ring_buffer/ring_buffer.c ****   r_ptr += len;
 940              		.loc 1 229 3 is_stmt 1 view .LVU294
 941              		.loc 1 229 9 is_stmt 0 view .LVU295
 942 001e 0344     		add	r3, r3, r0
 943              	.LVL117:
 230:src/ring_buffer/ring_buffer.c **** 
 231:src/ring_buffer/ring_buffer.c ****   if (r_ptr >= ring_buffer->size) {
 944              		.loc 1 231 3 is_stmt 1 view .LVU296
 945              		.loc 1 231 6 is_stmt 0 view .LVU297
 946 0020 9D42     		cmp	r5, r3
 947 0022 00D8     		bhi	.L68
 232:src/ring_buffer/ring_buffer.c ****     r_ptr -= ring_buffer->size;
 948              		.loc 1 232 5 is_stmt 1 view .LVU298
 949              		.loc 1 232 11 is_stmt 0 view .LVU299
 950 0024 5B1B     		subs	r3, r3, r5
 951              	.LVL118:
 952              	.L68:
 233:src/ring_buffer/ring_buffer.c ****   }
 234:src/ring_buffer/ring_buffer.c **** 
 235:src/ring_buffer/ring_buffer.c ****   ring_buffer->r_ptr = r_ptr;
 953              		.loc 1 235 3 is_stmt 1 view .LVU300
 954              		.loc 1 235 22 is_stmt 0 view .LVU301
 955 0026 F360     		str	r3, [r6, #12]
 236:src/ring_buffer/ring_buffer.c **** 
 237:src/ring_buffer/ring_buffer.c ****   return len;
 956              		.loc 1 237 3 is_stmt 1 view .LVU302
 957              		.loc 1 237 10 is_stmt 0 view .LVU303
 958 0028 0546     		mov	r5, r0
 959              	.LVL119:
 960              	.L66:
 238:src/ring_buffer/ring_buffer.c **** }
 961              		.loc 1 238 1 view .LVU304
 962 002a 2846     		mov	r0, r5
 963 002c 70BD     		pop	{r4, r5, r6, pc}
 964              	.LVL120:
 965              	.L69:
 223:src/ring_buffer/ring_buffer.c ****   }
 966              		.loc 1 223 12 view .LVU305
 967 002e 0025     		movs	r5, #0
 968 0030 FBE7     		b	.L66
 969              	.L70:
ARM GAS  /tmp/ccFYrYca.s 			page 25


 223:src/ring_buffer/ring_buffer.c ****   }
 970              		.loc 1 223 12 view .LVU306
 971 0032 0025     		movs	r5, #0
 972 0034 F9E7     		b	.L66
 973              	.L71:
 974 0036 0D46     		mov	r5, r1
 975 0038 F7E7     		b	.L66
 976              		.cfi_endproc
 977              	.LFE8:
 979              		.section	.text.ring_buffer_get_logical_block_write_address,"ax",%progbits
 980              		.align	1
 981              		.global	ring_buffer_get_logical_block_write_address
 982              		.syntax unified
 983              		.thumb
 984              		.thumb_func
 986              	ring_buffer_get_logical_block_write_address:
 987              	.LVL121:
 988              	.LFB9:
 239:src/ring_buffer/ring_buffer.c **** 
 240:src/ring_buffer/ring_buffer.c **** void *ring_buffer_get_logical_block_write_address(const struct ring_buffer *ring_buffer) {
 989              		.loc 1 240 90 is_stmt 1 view -0
 990              		.cfi_startproc
 991              		@ args = 0, pretend = 0, frame = 0
 992              		@ frame_needed = 0, uses_anonymous_args = 0
 993              		@ link register save eliminated.
 241:src/ring_buffer/ring_buffer.c ****   uint32_t ptr = 0;
 994              		.loc 1 241 3 view .LVU308
 242:src/ring_buffer/ring_buffer.c **** 
 243:src/ring_buffer/ring_buffer.c ****   if (!BUF_IS_VALID(ring_buffer)) {
 995              		.loc 1 243 3 view .LVU309
 996              		.loc 1 243 6 is_stmt 0 view .LVU310
 997 0000 0346     		mov	r3, r0
 998 0002 30B1     		cbz	r0, .L75
 999              		.loc 1 243 8 discriminator 1 view .LVU311
 1000 0004 0068     		ldr	r0, [r0]
 1001              	.LVL122:
 1002              		.loc 1 243 8 discriminator 1 view .LVU312
 1003 0006 30B1     		cbz	r0, .L73
 1004              		.loc 1 243 8 discriminator 2 view .LVU313
 1005 0008 5A68     		ldr	r2, [r3, #4]
 1006              		.loc 1 243 7 discriminator 2 view .LVU314
 1007 000a 1AB1     		cbz	r2, .L76
 244:src/ring_buffer/ring_buffer.c ****     return NULL;
 245:src/ring_buffer/ring_buffer.c ****   }
 246:src/ring_buffer/ring_buffer.c **** 
 247:src/ring_buffer/ring_buffer.c ****   ptr = ring_buffer->w_ptr;
 1008              		.loc 1 247 3 is_stmt 1 view .LVU315
 1009              		.loc 1 247 7 is_stmt 0 view .LVU316
 1010 000c 9B68     		ldr	r3, [r3, #8]
 1011              	.LVL123:
 248:src/ring_buffer/ring_buffer.c ****   return &ring_buffer->buf[ptr];
 1012              		.loc 1 248 3 is_stmt 1 view .LVU317
 1013              		.loc 1 248 10 is_stmt 0 view .LVU318
 1014 000e 1844     		add	r0, r0, r3
 1015 0010 7047     		bx	lr
 1016              	.LVL124:
 1017              	.L75:
ARM GAS  /tmp/ccFYrYca.s 			page 26


 1018              		.loc 1 248 10 view .LVU319
 1019 0012 7047     		bx	lr
 1020              	.LVL125:
 1021              	.L76:
 244:src/ring_buffer/ring_buffer.c ****     return NULL;
 1022              		.loc 1 244 12 view .LVU320
 1023 0014 0020     		movs	r0, #0
 1024              	.L73:
 249:src/ring_buffer/ring_buffer.c **** }
 1025              		.loc 1 249 1 view .LVU321
 1026 0016 7047     		bx	lr
 1027              		.cfi_endproc
 1028              	.LFE9:
 1030              		.section	.text.ring_buffer_get_logical_block_write_length,"ax",%progbits
 1031              		.align	1
 1032              		.global	ring_buffer_get_logical_block_write_length
 1033              		.syntax unified
 1034              		.thumb
 1035              		.thumb_func
 1037              	ring_buffer_get_logical_block_write_length:
 1038              	.LVL126:
 1039              	.LFB10:
 250:src/ring_buffer/ring_buffer.c **** 
 251:src/ring_buffer/ring_buffer.c **** uint32_t ring_buffer_get_logical_block_write_length(const struct ring_buffer *ring_buffer) {
 1040              		.loc 1 251 92 is_stmt 1 view -0
 1041              		.cfi_startproc
 1042              		@ args = 0, pretend = 0, frame = 0
 1043              		@ frame_needed = 0, uses_anonymous_args = 0
 1044              		@ link register save eliminated.
 252:src/ring_buffer/ring_buffer.c ****  uint32_t len = 0;
 1045              		.loc 1 252 2 view .LVU323
 253:src/ring_buffer/ring_buffer.c ****  uint32_t w_ptr = 0;
 1046              		.loc 1 253 2 view .LVU324
 254:src/ring_buffer/ring_buffer.c ****  uint32_t r_ptr = 0;
 1047              		.loc 1 254 2 view .LVU325
 255:src/ring_buffer/ring_buffer.c **** 
 256:src/ring_buffer/ring_buffer.c ****   if (!BUF_IS_VALID(ring_buffer)) {
 1048              		.loc 1 256 3 view .LVU326
 1049              		.loc 1 256 6 is_stmt 0 view .LVU327
 1050 0000 0346     		mov	r3, r0
 1051 0002 70B1     		cbz	r0, .L80
 1052              		.loc 1 256 8 discriminator 1 view .LVU328
 1053 0004 0268     		ldr	r2, [r0]
 1054 0006 72B1     		cbz	r2, .L81
 1055              		.loc 1 256 8 discriminator 2 view .LVU329
 1056 0008 4068     		ldr	r0, [r0, #4]
 1057              	.LVL127:
 1058              		.loc 1 256 7 discriminator 2 view .LVU330
 1059 000a 68B1     		cbz	r0, .L77
 257:src/ring_buffer/ring_buffer.c ****     return 0;
 258:src/ring_buffer/ring_buffer.c ****   }
 259:src/ring_buffer/ring_buffer.c **** 
 260:src/ring_buffer/ring_buffer.c ****   w_ptr = ring_buffer->w_ptr;
 1060              		.loc 1 260 3 is_stmt 1 view .LVU331
 1061              		.loc 1 260 9 is_stmt 0 view .LVU332
 1062 000c 9A68     		ldr	r2, [r3, #8]
 1063              	.LVL128:
ARM GAS  /tmp/ccFYrYca.s 			page 27


 261:src/ring_buffer/ring_buffer.c ****   r_ptr = ring_buffer->r_ptr;
 1064              		.loc 1 261 3 is_stmt 1 view .LVU333
 1065              		.loc 1 261 9 is_stmt 0 view .LVU334
 1066 000e DB68     		ldr	r3, [r3, #12]
 1067              	.LVL129:
 262:src/ring_buffer/ring_buffer.c **** 
 263:src/ring_buffer/ring_buffer.c ****   if (w_ptr >= r_ptr) {
 1068              		.loc 1 263 3 is_stmt 1 view .LVU335
 1069              		.loc 1 263 6 is_stmt 0 view .LVU336
 1070 0010 9A42     		cmp	r2, r3
 1071 0012 03D3     		bcc	.L79
 264:src/ring_buffer/ring_buffer.c ****     len = ring_buffer->size - w_ptr;
 1072              		.loc 1 264 5 is_stmt 1 view .LVU337
 1073              		.loc 1 264 9 is_stmt 0 view .LVU338
 1074 0014 801A     		subs	r0, r0, r2
 1075              	.LVL130:
 265:src/ring_buffer/ring_buffer.c **** 
 266:src/ring_buffer/ring_buffer.c ****     if (r_ptr == 0) {
 1076              		.loc 1 266 5 is_stmt 1 view .LVU339
 1077              		.loc 1 266 8 is_stmt 0 view .LVU340
 1078 0016 3BB9     		cbnz	r3, .L77
 267:src/ring_buffer/ring_buffer.c ****       --len;
 1079              		.loc 1 267 7 is_stmt 1 view .LVU341
 1080 0018 0138     		subs	r0, r0, #1
 1081              	.LVL131:
 1082              		.loc 1 267 7 is_stmt 0 view .LVU342
 1083 001a 7047     		bx	lr
 1084              	.LVL132:
 1085              	.L79:
 268:src/ring_buffer/ring_buffer.c ****     }
 269:src/ring_buffer/ring_buffer.c ****   } else {
 270:src/ring_buffer/ring_buffer.c ****     len = r_ptr - w_ptr - 1;
 1086              		.loc 1 270 5 is_stmt 1 view .LVU343
 1087              		.loc 1 270 17 is_stmt 0 view .LVU344
 1088 001c 9B1A     		subs	r3, r3, r2
 1089              	.LVL133:
 1090              		.loc 1 270 9 view .LVU345
 1091 001e 581E     		subs	r0, r3, #1
 1092              	.LVL134:
 1093              		.loc 1 270 9 view .LVU346
 1094 0020 7047     		bx	lr
 1095              	.LVL135:
 1096              	.L80:
 257:src/ring_buffer/ring_buffer.c ****   }
 1097              		.loc 1 257 12 view .LVU347
 1098 0022 0020     		movs	r0, #0
 1099              	.LVL136:
 257:src/ring_buffer/ring_buffer.c ****   }
 1100              		.loc 1 257 12 view .LVU348
 1101 0024 7047     		bx	lr
 1102              	.LVL137:
 1103              	.L81:
 257:src/ring_buffer/ring_buffer.c ****   }
 1104              		.loc 1 257 12 view .LVU349
 1105 0026 0020     		movs	r0, #0
 1106              	.LVL138:
 1107              	.L77:
ARM GAS  /tmp/ccFYrYca.s 			page 28


 271:src/ring_buffer/ring_buffer.c ****   }
 272:src/ring_buffer/ring_buffer.c **** 
 273:src/ring_buffer/ring_buffer.c ****   return len;
 274:src/ring_buffer/ring_buffer.c **** }
 1108              		.loc 1 274 1 view .LVU350
 1109 0028 7047     		bx	lr
 1110              		.cfi_endproc
 1111              	.LFE10:
 1113              		.section	.text.ring_buffer_advance,"ax",%progbits
 1114              		.align	1
 1115              		.global	ring_buffer_advance
 1116              		.syntax unified
 1117              		.thumb
 1118              		.thumb_func
 1120              	ring_buffer_advance:
 1121              	.LVL139:
 1122              	.LFB11:
 275:src/ring_buffer/ring_buffer.c **** 
 276:src/ring_buffer/ring_buffer.c **** uint32_t ring_buffer_advance(struct ring_buffer *ring_buffer, uint32_t len) {
 1123              		.loc 1 276 77 is_stmt 1 view -0
 1124              		.cfi_startproc
 1125              		@ args = 0, pretend = 0, frame = 0
 1126              		@ frame_needed = 0, uses_anonymous_args = 0
 1127              		.loc 1 276 77 is_stmt 0 view .LVU352
 1128 0000 70B5     		push	{r4, r5, r6, lr}
 1129              	.LCFI7:
 1130              		.cfi_def_cfa_offset 16
 1131              		.cfi_offset 4, -16
 1132              		.cfi_offset 5, -12
 1133              		.cfi_offset 6, -8
 1134              		.cfi_offset 14, -4
 277:src/ring_buffer/ring_buffer.c ****   uint32_t free = 0;
 1135              		.loc 1 277 3 is_stmt 1 view .LVU353
 1136              	.LVL140:
 278:src/ring_buffer/ring_buffer.c ****   uint32_t w_ptr = 0;
 1137              		.loc 1 278 3 view .LVU354
 279:src/ring_buffer/ring_buffer.c **** 
 280:src/ring_buffer/ring_buffer.c ****   if (!BUF_IS_VALID(ring_buffer) || len == 0) {
 1138              		.loc 1 280 3 view .LVU355
 1139              		.loc 1 280 6 is_stmt 0 view .LVU356
 1140 0002 A0B1     		cbz	r0, .L85
 1141 0004 0C46     		mov	r4, r1
 1142 0006 0646     		mov	r6, r0
 1143              		.loc 1 280 8 discriminator 1 view .LVU357
 1144 0008 0368     		ldr	r3, [r0]
 1145 000a 93B1     		cbz	r3, .L86
 1146              		.loc 1 280 8 discriminator 2 view .LVU358
 1147 000c 4568     		ldr	r5, [r0, #4]
 1148              		.loc 1 280 7 discriminator 2 view .LVU359
 1149 000e 65B1     		cbz	r5, .L82
 1150              		.loc 1 280 34 discriminator 3 view .LVU360
 1151 0010 89B1     		cbz	r1, .L87
 281:src/ring_buffer/ring_buffer.c ****     return 0;
 282:src/ring_buffer/ring_buffer.c ****   }
 283:src/ring_buffer/ring_buffer.c **** 
 284:src/ring_buffer/ring_buffer.c ****   free = ring_buffer_get_free(ring_buffer);
 1152              		.loc 1 284 3 is_stmt 1 view .LVU361
ARM GAS  /tmp/ccFYrYca.s 			page 29


 1153              		.loc 1 284 10 is_stmt 0 view .LVU362
 1154 0012 FFF7FEFF 		bl	ring_buffer_get_free
 1155              	.LVL141:
 285:src/ring_buffer/ring_buffer.c ****   len = BUF_MIN(len, free);
 1156              		.loc 1 285 3 is_stmt 1 view .LVU363
 1157              		.loc 1 285 7 is_stmt 0 view .LVU364
 1158 0016 A042     		cmp	r0, r4
 1159 0018 28BF     		it	cs
 1160 001a 2046     		movcs	r0, r4
 1161              	.LVL142:
 286:src/ring_buffer/ring_buffer.c ****   w_ptr = ring_buffer->w_ptr;
 1162              		.loc 1 286 3 is_stmt 1 view .LVU365
 1163              		.loc 1 286 9 is_stmt 0 view .LVU366
 1164 001c B368     		ldr	r3, [r6, #8]
 1165              	.LVL143:
 287:src/ring_buffer/ring_buffer.c ****   w_ptr += len;
 1166              		.loc 1 287 3 is_stmt 1 view .LVU367
 1167              		.loc 1 287 9 is_stmt 0 view .LVU368
 1168 001e 0344     		add	r3, r3, r0
 1169              	.LVL144:
 288:src/ring_buffer/ring_buffer.c **** 
 289:src/ring_buffer/ring_buffer.c ****   if (w_ptr >= ring_buffer->size) {
 1170              		.loc 1 289 3 is_stmt 1 view .LVU369
 1171              		.loc 1 289 6 is_stmt 0 view .LVU370
 1172 0020 9D42     		cmp	r5, r3
 1173 0022 00D8     		bhi	.L84
 290:src/ring_buffer/ring_buffer.c ****     w_ptr -= ring_buffer->size;
 1174              		.loc 1 290 5 is_stmt 1 view .LVU371
 1175              		.loc 1 290 11 is_stmt 0 view .LVU372
 1176 0024 5B1B     		subs	r3, r3, r5
 1177              	.LVL145:
 1178              	.L84:
 291:src/ring_buffer/ring_buffer.c ****   }
 292:src/ring_buffer/ring_buffer.c ****   ring_buffer->w_ptr = w_ptr;
 1179              		.loc 1 292 3 is_stmt 1 view .LVU373
 1180              		.loc 1 292 22 is_stmt 0 view .LVU374
 1181 0026 B360     		str	r3, [r6, #8]
 293:src/ring_buffer/ring_buffer.c **** 
 294:src/ring_buffer/ring_buffer.c ****   return len;
 1182              		.loc 1 294 3 is_stmt 1 view .LVU375
 1183              		.loc 1 294 10 is_stmt 0 view .LVU376
 1184 0028 0546     		mov	r5, r0
 1185              	.LVL146:
 1186              	.L82:
 295:src/ring_buffer/ring_buffer.c **** }...
 1187              		.loc 1 295 1 view .LVU377
 1188 002a 2846     		mov	r0, r5
 1189 002c 70BD     		pop	{r4, r5, r6, pc}
 1190              	.LVL147:
 1191              	.L85:
 281:src/ring_buffer/ring_buffer.c ****     return 0;
 1192              		.loc 1 281 12 view .LVU378
 1193 002e 0025     		movs	r5, #0
 1194 0030 FBE7     		b	.L82
 1195              	.L86:
 281:src/ring_buffer/ring_buffer.c ****     return 0;
 1196              		.loc 1 281 12 view .LVU379
ARM GAS  /tmp/ccFYrYca.s 			page 30


 1197 0032 0025     		movs	r5, #0
 1198 0034 F9E7     		b	.L82
 1199              	.L87:
 1200 0036 0D46     		mov	r5, r1
 1201 0038 F7E7     		b	.L82
 1202              		.cfi_endproc
 1203              	.LFE11:
 1205              		.text
 1206              	.Letext0:
 1207              		.file 2 "/usr/lib/gcc/arm-none-eabi/12.2.1/include/stdint.h"
 1208              		.file 3 "src/ring_buffer/ring_buffer.h"
 1209              		.file 4 "/usr/lib/gcc/arm-none-eabi/12.2.1/include/stddef.h"
 1210              		.file 5 "/usr/include/newlib/string.h"
 1211              		.file 6 "<built-in>"
ARM GAS  /tmp/ccFYrYca.s 			page 31

