ARM GAS  /tmp/ccQ08H2I.s 			page 1


   1              		.cpu cortex-m7
   2              		.arch armv7e-m
   3              		.fpu fpv5-d16
   4              		.eabi_attribute 28, 1
   5              		.eabi_attribute 20, 1
   6              		.eabi_attribute 21, 1
   7              		.eabi_attribute 23, 3
   8              		.eabi_attribute 24, 1
   9              		.eabi_attribute 25, 1
  10              		.eabi_attribute 26, 1
  11              		.eabi_attribute 30, 1
  12              		.eabi_attribute 34, 1
  13              		.eabi_attribute 18, 4
  14              		.file	"us_timer.c"
  15              		.text
  16              	.Ltext0:
  17              		.cfi_sections	.debug_frame
  18              		.file 1 "src/drivers/us_timer/us_timer.c"
  19              		.section	.text.us_timer_init,"ax",%progbits
  20              		.align	1
  21              		.global	us_timer_init
  22              		.syntax unified
  23              		.thumb
  24              		.thumb_func
  26              	us_timer_init:
  27              	.LVL0:
  28              	.LFB147:
   1:src/drivers/us_timer/us_timer.c **** #include "stm32h7xx_hal.h"
   2:src/drivers/us_timer/us_timer.c **** #include "us_timer.h"
   3:src/drivers/us_timer/us_timer.c **** 
   4:src/drivers/us_timer/us_timer.c **** us_timer_err_t us_timer_init(us_timer_device_t *device) {
  29              		.loc 1 4 57 view -0
  30              		.cfi_startproc
  31              		@ args = 0, pretend = 0, frame = 0
  32              		@ frame_needed = 0, uses_anonymous_args = 0
  33              		.loc 1 4 57 is_stmt 0 view .LVU1
  34 0000 10B5     		push	{r4, lr}
  35              	.LCFI0:
  36              		.cfi_def_cfa_offset 8
  37              		.cfi_offset 4, -8
  38              		.cfi_offset 14, -4
  39 0002 0446     		mov	r4, r0
   5:src/drivers/us_timer/us_timer.c ****   device->timer_is_initialized = false;
  40              		.loc 1 5 3 is_stmt 1 view .LVU2
  41              		.loc 1 5 32 is_stmt 0 view .LVU3
  42 0004 0023     		movs	r3, #0
  43 0006 0371     		strb	r3, [r0, #4]
   6:src/drivers/us_timer/us_timer.c ****   
   7:src/drivers/us_timer/us_timer.c ****   uint8_t ret = HAL_TIM_Base_Start(device->htim);
  44              		.loc 1 7 3 is_stmt 1 view .LVU4
  45              		.loc 1 7 17 is_stmt 0 view .LVU5
  46 0008 0068     		ldr	r0, [r0]
  47              	.LVL1:
  48              		.loc 1 7 17 view .LVU6
  49 000a FFF7FEFF 		bl	HAL_TIM_Base_Start
  50              	.LVL2:
   8:src/drivers/us_timer/us_timer.c ****   
ARM GAS  /tmp/ccQ08H2I.s 			page 2


   9:src/drivers/us_timer/us_timer.c ****   if (ret != HAL_OK) {
  51              		.loc 1 9 3 is_stmt 1 view .LVU7
  52              		.loc 1 9 6 is_stmt 0 view .LVU8
  53 000e 10B9     		cbnz	r0, .L3
  10:src/drivers/us_timer/us_timer.c ****     return US_TIMER_ERR_HAL;
  11:src/drivers/us_timer/us_timer.c ****   }
  12:src/drivers/us_timer/us_timer.c **** 
  13:src/drivers/us_timer/us_timer.c ****   device->timer_is_initialized = true;
  54              		.loc 1 13 3 is_stmt 1 view .LVU9
  55              		.loc 1 13 32 is_stmt 0 view .LVU10
  56 0010 0123     		movs	r3, #1
  57 0012 2371     		strb	r3, [r4, #4]
  14:src/drivers/us_timer/us_timer.c **** 
  15:src/drivers/us_timer/us_timer.c ****   return US_TIMER_ERR_OK;
  58              		.loc 1 15 3 is_stmt 1 view .LVU11
  59              	.L2:
  16:src/drivers/us_timer/us_timer.c **** }
  60              		.loc 1 16 1 is_stmt 0 view .LVU12
  61 0014 10BD     		pop	{r4, pc}
  62              	.LVL3:
  63              	.L3:
  10:src/drivers/us_timer/us_timer.c ****     return US_TIMER_ERR_HAL;
  64              		.loc 1 10 12 view .LVU13
  65 0016 0320     		movs	r0, #3
  66 0018 FCE7     		b	.L2
  67              		.cfi_endproc
  68              	.LFE147:
  70              		.section	.text.us_timer_get_tick,"ax",%progbits
  71              		.align	1
  72              		.global	us_timer_get_tick
  73              		.syntax unified
  74              		.thumb
  75              		.thumb_func
  77              	us_timer_get_tick:
  78              	.LVL4:
  79              	.LFB149:
  17:src/drivers/us_timer/us_timer.c **** 
  18:src/drivers/us_timer/us_timer.c **** us_timer_err_t us_timer_delay(us_timer_device_t *device, uint32_t delay_us) {
  19:src/drivers/us_timer/us_timer.c ****   // Check if timer is intitialized (needs to be ticking)
  20:src/drivers/us_timer/us_timer.c ****   if (!device->timer_is_initialized) {
  21:src/drivers/us_timer/us_timer.c ****     return US_TIMER_ERR_NOT_INITIALIZED;
  22:src/drivers/us_timer/us_timer.c ****   }
  23:src/drivers/us_timer/us_timer.c **** 
  24:src/drivers/us_timer/us_timer.c ****   // Check if demanded delay is longer than max delay
  25:src/drivers/us_timer/us_timer.c ****   if (delay_us > US_TIMER_MAX_COUNT) {
  26:src/drivers/us_timer/us_timer.c ****     return US_TIMER_DELAY_OVER_MAX;
  27:src/drivers/us_timer/us_timer.c ****   }
  28:src/drivers/us_timer/us_timer.c ****   
  29:src/drivers/us_timer/us_timer.c ****   // Reset timer to zero
  30:src/drivers/us_timer/us_timer.c ****   us_timer_reset(device);
  31:src/drivers/us_timer/us_timer.c ****   uint32_t tick = 0;
  32:src/drivers/us_timer/us_timer.c **** 
  33:src/drivers/us_timer/us_timer.c ****   // For loop until the delay expires
  34:src/drivers/us_timer/us_timer.c ****   for (uint32_t t = 0; t < US_TIMER_MAX_COUNT; t++) {
  35:src/drivers/us_timer/us_timer.c ****     us_timer_get_tick(device, &tick);
  36:src/drivers/us_timer/us_timer.c ****     
  37:src/drivers/us_timer/us_timer.c ****     if (tick >= delay_us) {
ARM GAS  /tmp/ccQ08H2I.s 			page 3


  38:src/drivers/us_timer/us_timer.c ****       return US_TIMER_ERR_OK;
  39:src/drivers/us_timer/us_timer.c ****     }
  40:src/drivers/us_timer/us_timer.c ****   }
  41:src/drivers/us_timer/us_timer.c ****   
  42:src/drivers/us_timer/us_timer.c ****   return US_TIMER_MAX_COUNT_REACHED;
  43:src/drivers/us_timer/us_timer.c **** }
  44:src/drivers/us_timer/us_timer.c **** 
  45:src/drivers/us_timer/us_timer.c **** us_timer_err_t us_timer_get_tick(us_timer_device_t *device, uint32_t *tick) {
  80              		.loc 1 45 77 is_stmt 1 view -0
  81              		.cfi_startproc
  82              		@ args = 0, pretend = 0, frame = 0
  83              		@ frame_needed = 0, uses_anonymous_args = 0
  84              		@ link register save eliminated.
  46:src/drivers/us_timer/us_timer.c ****   *tick = device->htim->Instance->CNT;
  85              		.loc 1 46 3 view .LVU15
  86              		.loc 1 46 17 is_stmt 0 view .LVU16
  87 0000 0368     		ldr	r3, [r0]
  88              		.loc 1 46 23 view .LVU17
  89 0002 1B68     		ldr	r3, [r3]
  90              		.loc 1 46 33 view .LVU18
  91 0004 5B6A     		ldr	r3, [r3, #36]
  92              		.loc 1 46 9 view .LVU19
  93 0006 0B60     		str	r3, [r1]
  47:src/drivers/us_timer/us_timer.c ****   
  48:src/drivers/us_timer/us_timer.c ****   return US_TIMER_ERR_OK; 
  94              		.loc 1 48 3 is_stmt 1 view .LVU20
  49:src/drivers/us_timer/us_timer.c **** }
  95              		.loc 1 49 1 is_stmt 0 view .LVU21
  96 0008 0020     		movs	r0, #0
  97              	.LVL5:
  98              		.loc 1 49 1 view .LVU22
  99 000a 7047     		bx	lr
 100              		.cfi_endproc
 101              	.LFE149:
 103              		.section	.text.us_timer_reset,"ax",%progbits
 104              		.align	1
 105              		.global	us_timer_reset
 106              		.syntax unified
 107              		.thumb
 108              		.thumb_func
 110              	us_timer_reset:
 111              	.LVL6:
 112              	.LFB150:
  50:src/drivers/us_timer/us_timer.c **** 
  51:src/drivers/us_timer/us_timer.c **** us_timer_err_t us_timer_reset(us_timer_device_t *device) {
 113              		.loc 1 51 58 is_stmt 1 view -0
 114              		.cfi_startproc
 115              		@ args = 0, pretend = 0, frame = 0
 116              		@ frame_needed = 0, uses_anonymous_args = 0
 117              		@ link register save eliminated.
  52:src/drivers/us_timer/us_timer.c ****   device->htim->Instance->CNT = 0;
 118              		.loc 1 52 3 view .LVU24
 119              		.loc 1 52 9 is_stmt 0 view .LVU25
 120 0000 0368     		ldr	r3, [r0]
 121              		.loc 1 52 15 view .LVU26
 122 0002 1B68     		ldr	r3, [r3]
 123              		.loc 1 52 31 view .LVU27
ARM GAS  /tmp/ccQ08H2I.s 			page 4


 124 0004 0020     		movs	r0, #0
 125              	.LVL7:
 126              		.loc 1 52 31 view .LVU28
 127 0006 5862     		str	r0, [r3, #36]
  53:src/drivers/us_timer/us_timer.c **** 
  54:src/drivers/us_timer/us_timer.c ****   return US_TIMER_ERR_OK;
 128              		.loc 1 54 3 is_stmt 1 view .LVU29
  55:src/drivers/us_timer/us_timer.c **** }...
 129              		.loc 1 55 1 is_stmt 0 view .LVU30
 130 0008 7047     		bx	lr
 131              		.cfi_endproc
 132              	.LFE150:
 134              		.section	.text.us_timer_delay,"ax",%progbits
 135              		.align	1
 136              		.global	us_timer_delay
 137              		.syntax unified
 138              		.thumb
 139              		.thumb_func
 141              	us_timer_delay:
 142              	.LVL8:
 143              	.LFB148:
  18:src/drivers/us_timer/us_timer.c **** us_timer_err_t us_timer_delay(us_timer_device_t *device, uint32_t delay_us) {
 144              		.loc 1 18 77 is_stmt 1 view -0
 145              		.cfi_startproc
 146              		@ args = 0, pretend = 0, frame = 8
 147              		@ frame_needed = 0, uses_anonymous_args = 0
  20:src/drivers/us_timer/us_timer.c ****   if (!device->timer_is_initialized) {
 148              		.loc 1 20 3 view .LVU32
  20:src/drivers/us_timer/us_timer.c ****   if (!device->timer_is_initialized) {
 149              		.loc 1 20 14 is_stmt 0 view .LVU33
 150 0000 0379     		ldrb	r3, [r0, #4]	@ zero_extendqisi2
  20:src/drivers/us_timer/us_timer.c ****   if (!device->timer_is_initialized) {
 151              		.loc 1 20 6 view .LVU34
 152 0002 C3B1     		cbz	r3, .L11
  18:src/drivers/us_timer/us_timer.c **** us_timer_err_t us_timer_delay(us_timer_device_t *device, uint32_t delay_us) {
 153              		.loc 1 18 77 view .LVU35
 154 0004 70B5     		push	{r4, r5, r6, lr}
 155              	.LCFI1:
 156              		.cfi_def_cfa_offset 16
 157              		.cfi_offset 4, -16
 158              		.cfi_offset 5, -12
 159              		.cfi_offset 6, -8
 160              		.cfi_offset 14, -4
 161 0006 82B0     		sub	sp, sp, #8
 162              	.LCFI2:
 163              		.cfi_def_cfa_offset 24
 164 0008 0546     		mov	r5, r0
 165 000a 0E46     		mov	r6, r1
  25:src/drivers/us_timer/us_timer.c ****   if (delay_us > US_TIMER_MAX_COUNT) {
 166              		.loc 1 25 3 is_stmt 1 view .LVU36
  25:src/drivers/us_timer/us_timer.c ****   if (delay_us > US_TIMER_MAX_COUNT) {
 167              		.loc 1 25 6 is_stmt 0 view .LVU37
 168 000c 0D4B     		ldr	r3, .L19
 169 000e 9942     		cmp	r1, r3
 170 0010 13D8     		bhi	.L12
  30:src/drivers/us_timer/us_timer.c ****   us_timer_reset(device);
 171              		.loc 1 30 3 is_stmt 1 view .LVU38
ARM GAS  /tmp/ccQ08H2I.s 			page 5


 172 0012 FFF7FEFF 		bl	us_timer_reset
 173              	.LVL9:
  31:src/drivers/us_timer/us_timer.c ****   uint32_t tick = 0;
 174              		.loc 1 31 3 view .LVU39
  31:src/drivers/us_timer/us_timer.c ****   uint32_t tick = 0;
 175              		.loc 1 31 12 is_stmt 0 view .LVU40
 176 0016 0024     		movs	r4, #0
 177 0018 0194     		str	r4, [sp, #4]
  34:src/drivers/us_timer/us_timer.c ****   for (uint32_t t = 0; t < US_TIMER_MAX_COUNT; t++) {
 178              		.loc 1 34 3 is_stmt 1 view .LVU41
 179              	.LBB2:
  34:src/drivers/us_timer/us_timer.c ****   for (uint32_t t = 0; t < US_TIMER_MAX_COUNT; t++) {
 180              		.loc 1 34 8 view .LVU42
 181              	.LVL10:
 182              	.L9:
  34:src/drivers/us_timer/us_timer.c ****   for (uint32_t t = 0; t < US_TIMER_MAX_COUNT; t++) {
 183              		.loc 1 34 26 discriminator 1 view .LVU43
 184 001a 0B4B     		ldr	r3, .L19+4
 185 001c 9C42     		cmp	r4, r3
 186 001e 08D8     		bhi	.L18
  35:src/drivers/us_timer/us_timer.c ****     us_timer_get_tick(device, &tick);
 187              		.loc 1 35 5 view .LVU44
 188 0020 01A9     		add	r1, sp, #4
 189 0022 2846     		mov	r0, r5
 190 0024 FFF7FEFF 		bl	us_timer_get_tick
 191              	.LVL11:
  37:src/drivers/us_timer/us_timer.c ****     if (tick >= delay_us) {
 192              		.loc 1 37 5 view .LVU45
  37:src/drivers/us_timer/us_timer.c ****     if (tick >= delay_us) {
 193              		.loc 1 37 14 is_stmt 0 view .LVU46
 194 0028 019B     		ldr	r3, [sp, #4]
  37:src/drivers/us_timer/us_timer.c ****     if (tick >= delay_us) {
 195              		.loc 1 37 8 view .LVU47
 196 002a B342     		cmp	r3, r6
 197 002c 07D2     		bcs	.L13
  34:src/drivers/us_timer/us_timer.c ****   for (uint32_t t = 0; t < US_TIMER_MAX_COUNT; t++) {
 198              		.loc 1 34 49 is_stmt 1 discriminator 2 view .LVU48
 199 002e 0134     		adds	r4, r4, #1
 200              	.LVL12:
  34:src/drivers/us_timer/us_timer.c ****   for (uint32_t t = 0; t < US_TIMER_MAX_COUNT; t++) {
 201              		.loc 1 34 49 is_stmt 0 discriminator 2 view .LVU49
 202 0030 F3E7     		b	.L9
 203              	.L18:
  34:src/drivers/us_timer/us_timer.c ****   for (uint32_t t = 0; t < US_TIMER_MAX_COUNT; t++) {
 204              		.loc 1 34 49 discriminator 2 view .LVU50
 205              	.LBE2:
  42:src/drivers/us_timer/us_timer.c ****   return US_TIMER_MAX_COUNT_REACHED;
 206              		.loc 1 42 10 view .LVU51
 207 0032 0520     		movs	r0, #5
 208              	.LBB3:
 209 0034 04E0     		b	.L8
 210              	.LVL13:
 211              	.L11:
 212              	.LCFI3:
 213              		.cfi_def_cfa_offset 0
 214              		.cfi_restore 4
 215              		.cfi_restore 5
ARM GAS  /tmp/ccQ08H2I.s 			page 6


 216              		.cfi_restore 6
 217              		.cfi_restore 14
  42:src/drivers/us_timer/us_timer.c ****   return US_TIMER_MAX_COUNT_REACHED;
 218              		.loc 1 42 10 view .LVU52
 219              	.LBE3:
  21:src/drivers/us_timer/us_timer.c ****     return US_TIMER_ERR_NOT_INITIALIZED;
 220              		.loc 1 21 12 view .LVU53
 221 0036 0120     		movs	r0, #1
 222              	.LVL14:
  43:src/drivers/us_timer/us_timer.c **** }
 223              		.loc 1 43 1 view .LVU54
 224 0038 7047     		bx	lr
 225              	.LVL15:
 226              	.L12:
 227              	.LCFI4:
 228              		.cfi_def_cfa_offset 24
 229              		.cfi_offset 4, -16
 230              		.cfi_offset 5, -12
 231              		.cfi_offset 6, -8
 232              		.cfi_offset 14, -4
  26:src/drivers/us_timer/us_timer.c ****     return US_TIMER_DELAY_OVER_MAX;
 233              		.loc 1 26 12 view .LVU55
 234 003a 0420     		movs	r0, #4
 235              	.LVL16:
  26:src/drivers/us_timer/us_timer.c ****     return US_TIMER_DELAY_OVER_MAX;
 236              		.loc 1 26 12 view .LVU56
 237 003c 00E0     		b	.L8
 238              	.LVL17:
 239              	.L13:
 240              	.LBB4:
  38:src/drivers/us_timer/us_timer.c ****       return US_TIMER_ERR_OK;
 241              		.loc 1 38 14 view .LVU57
 242 003e 0020     		movs	r0, #0
 243              	.LVL18:
 244              	.L8:
  38:src/drivers/us_timer/us_timer.c ****       return US_TIMER_ERR_OK;
 245              		.loc 1 38 14 view .LVU58
 246              	.LBE4:
  43:src/drivers/us_timer/us_timer.c **** }
 247              		.loc 1 43 1 view .LVU59
 248 0040 02B0     		add	sp, sp, #8
 249              	.LCFI5:
 250              		.cfi_def_cfa_offset 16
 251              		@ sp needed
 252 0042 70BD     		pop	{r4, r5, r6, pc}
 253              	.LVL19:
 254              	.L20:
  43:src/drivers/us_timer/us_timer.c **** }
 255              		.loc 1 43 1 view .LVU60
 256              		.align	2
 257              	.L19:
 258 0044 40420F00 		.word	1000000
 259 0048 3F420F00 		.word	999999
 260              		.cfi_endproc
 261              	.LFE148:
 263              		.text
 264              	.Letext0:
ARM GAS  /tmp/ccQ08H2I.s 			page 7


 265              		.file 2 "/usr/lib/gcc/arm-none-eabi/12.2.1/include/stdint.h"
 266              		.file 3 "external/drivers/cmsis/include/stm32h723xx.h"
 267              		.file 4 "external/drivers/stm32h7xx/include/stm32h7xx_hal_def.h"
 268              		.file 5 "external/drivers/stm32h7xx/include/stm32h7xx_hal_dma.h"
 269              		.file 6 "external/drivers/stm32h7xx/include/stm32h7xx_hal_tim.h"
 270              		.file 7 "src/drivers/us_timer/us_timer.h"
ARM GAS  /tmp/ccQ08H2I.s 			page 8

